SF:/var/home/jack/Code/koan/src/builtins.rs
FN:120,_RNvNtCscUx3zdyuqfq_4koan8builtins13default_scope
FN:54,_RNvNtCscUx3zdyuqfq_4koan8builtins16register_builtin
FN:93,_RNvNtCscUx3zdyuqfq_4koan8builtins21register_builtin_full
FN:78,_RNvNtCscUx3zdyuqfq_4koan8builtins23register_nominal_binder
FN:65,_RNvNtCscUx3zdyuqfq_4koan8builtins28register_builtin_with_binder
FN:39,_RNvNtCscUx3zdyuqfq_4koan8builtins2kw
FN:44,_RNvNtCscUx3zdyuqfq_4koan8builtins3arg
FN:34,_RNvNtCscUx3zdyuqfq_4koan8builtins3err
FN:50,_RNvNtCscUx3zdyuqfq_4koan8builtins3sig
FN:120,_RNvNtCseriWsCb5ev6_4koan8builtins13default_scope
FN:54,_RNvNtCseriWsCb5ev6_4koan8builtins16register_builtin
FN:93,_RNvNtCseriWsCb5ev6_4koan8builtins21register_builtin_full
FN:78,_RNvNtCseriWsCb5ev6_4koan8builtins23register_nominal_binder
FN:65,_RNvNtCseriWsCb5ev6_4koan8builtins28register_builtin_with_binder
FN:39,_RNvNtCseriWsCb5ev6_4koan8builtins2kw
FN:44,_RNvNtCseriWsCb5ev6_4koan8builtins3arg
FN:34,_RNvNtCseriWsCb5ev6_4koan8builtins3err
FN:50,_RNvNtCseriWsCb5ev6_4koan8builtins3sig
FNDA:40,_RNvNtCscUx3zdyuqfq_4koan8builtins13default_scope
FNDA:1040,_RNvNtCscUx3zdyuqfq_4koan8builtins16register_builtin
FNDA:1520,_RNvNtCscUx3zdyuqfq_4koan8builtins21register_builtin_full
FNDA:160,_RNvNtCscUx3zdyuqfq_4koan8builtins23register_nominal_binder
FNDA:1200,_RNvNtCscUx3zdyuqfq_4koan8builtins28register_builtin_with_binder
FNDA:2440,_RNvNtCscUx3zdyuqfq_4koan8builtins2kw
FNDA:2920,_RNvNtCscUx3zdyuqfq_4koan8builtins3arg
FNDA:1,_RNvNtCscUx3zdyuqfq_4koan8builtins3err
FNDA:1520,_RNvNtCscUx3zdyuqfq_4koan8builtins3sig
FNDA:461,_RNvNtCseriWsCb5ev6_4koan8builtins13default_scope
FNDA:12004,_RNvNtCseriWsCb5ev6_4koan8builtins16register_builtin
FNDA:17537,_RNvNtCseriWsCb5ev6_4koan8builtins21register_builtin_full
FNDA:1844,_RNvNtCseriWsCb5ev6_4koan8builtins23register_nominal_binder
FNDA:13849,_RNvNtCseriWsCb5ev6_4koan8builtins28register_builtin_with_binder
FNDA:28121,_RNvNtCseriWsCb5ev6_4koan8builtins2kw
FNDA:33653,_RNvNtCseriWsCb5ev6_4koan8builtins3arg
FNDA:52,_RNvNtCseriWsCb5ev6_4koan8builtins3err
FNDA:17518,_RNvNtCseriWsCb5ev6_4koan8builtins3sig
FNF:9
FNH:9
DA:34,53
DA:35,53
DA:36,53
DA:39,30561
DA:40,30561
DA:41,30561
DA:44,36573
DA:45,36573
DA:46,36573
DA:50,19038
DA:51,19038
DA:52,19038
DA:54,13044
DA:55,13044
DA:56,13044
DA:57,13044
DA:58,13044
DA:59,13044
DA:60,13044
DA:61,13044
DA:65,15049
DA:66,15049
DA:67,15049
DA:68,15049
DA:69,15049
DA:70,15049
DA:71,15049
DA:72,15049
DA:73,15049
DA:78,2004
DA:79,2004
DA:80,2004
DA:81,2004
DA:82,2004
DA:83,2004
DA:84,2004
DA:85,2004
DA:86,2004
DA:93,19057
DA:94,19057
DA:95,19057
DA:96,19057
DA:97,19057
DA:98,19057
DA:99,19057
DA:100,19057
DA:101,19057
DA:102,19057
DA:103,19057
DA:104,19057
DA:105,19057
DA:106,19057
DA:107,19057
DA:108,19057
DA:109,19057
DA:110,19057
DA:111,19057
DA:112,19057
DA:113,19057
DA:114,19057
DA:115,19057
DA:120,501
DA:121,501
DA:122,501
DA:123,501
DA:124,501
DA:126,501
DA:127,501
DA:128,501
DA:129,501
DA:130,501
DA:131,501
DA:132,501
DA:133,501
DA:136,501
DA:137,501
DA:140,501
DA:141,501
DA:142,501
DA:145,501
DA:146,501
DA:147,501
DA:150,501
DA:151,501
DA:152,501
DA:154,501
DA:155,501
DA:156,501
DA:157,501
DA:158,501
DA:159,501
DA:160,501
DA:161,501
DA:162,501
DA:163,501
DA:164,501
DA:165,501
DA:166,501
DA:167,501
DA:168,501
DA:169,501
DA:170,501
DA:171,501
DA:172,501
DA:173,501
DA:174,501
DA:176,501
DA:177,501
BRF:0
BRH:0
LF:108
LH:108
end_of_record
SF:/var/home/jack/Code/koan/src/builtins/ascribe.rs
FN:15,_RNvNtNtCscUx3zdyuqfq_4koan8builtins7ascribe11body_opaque
FN:111,_RNvNtNtCscUx3zdyuqfq_4koan8builtins7ascribe11shape_check
FN:85,_RNvNtNtCscUx3zdyuqfq_4koan8builtins7ascribe16body_transparent
FN:161,_RNvNtNtCscUx3zdyuqfq_4koan8builtins7ascribe21is_abstract_type_name
FN:147,_RNvNtNtCscUx3zdyuqfq_4koan8builtins7ascribe22abstract_type_names_of
FN:170,_RNvNtNtCscUx3zdyuqfq_4koan8builtins7ascribe28resolve_module_and_signature
FN:178,_RNvNtNtCscUx3zdyuqfq_4koan8builtins7ascribe8register
FN:167,_RNCNvNtNtCscUx3zdyuqfq_4koan8builtins7ascribe21is_abstract_type_name0B7_
FN:15,_RNvNtNtCseriWsCb5ev6_4koan8builtins7ascribe11body_opaque
FN:111,_RNvNtNtCseriWsCb5ev6_4koan8builtins7ascribe11shape_check
FN:85,_RNvNtNtCseriWsCb5ev6_4koan8builtins7ascribe16body_transparent
FN:161,_RNvNtNtCseriWsCb5ev6_4koan8builtins7ascribe21is_abstract_type_name
FN:147,_RNvNtNtCseriWsCb5ev6_4koan8builtins7ascribe22abstract_type_names_of
FN:170,_RNvNtNtCseriWsCb5ev6_4koan8builtins7ascribe28resolve_module_and_signature
FN:178,_RNvNtNtCseriWsCb5ev6_4koan8builtins7ascribe8register
FN:167,_RNCNvNtNtCseriWsCb5ev6_4koan8builtins7ascribe21is_abstract_type_name0B7_
FNDA:1,_RNvNtNtCscUx3zdyuqfq_4koan8builtins7ascribe11body_opaque
FNDA:4,_RNvNtNtCscUx3zdyuqfq_4koan8builtins7ascribe11shape_check
FNDA:3,_RNvNtNtCscUx3zdyuqfq_4koan8builtins7ascribe16body_transparent
FNDA:18,_RNvNtNtCscUx3zdyuqfq_4koan8builtins7ascribe21is_abstract_type_name
FNDA:5,_RNvNtNtCscUx3zdyuqfq_4koan8builtins7ascribe22abstract_type_names_of
FNDA:4,_RNvNtNtCscUx3zdyuqfq_4koan8builtins7ascribe28resolve_module_and_signature
FNDA:40,_RNvNtNtCscUx3zdyuqfq_4koan8builtins7ascribe8register
FNDA:0,_RNCNvNtNtCscUx3zdyuqfq_4koan8builtins7ascribe21is_abstract_type_name0B7_
FNDA:19,_RNvNtNtCseriWsCb5ev6_4koan8builtins7ascribe11body_opaque
FNDA:36,_RNvNtNtCseriWsCb5ev6_4koan8builtins7ascribe11shape_check
FNDA:17,_RNvNtNtCseriWsCb5ev6_4koan8builtins7ascribe16body_transparent
FNDA:126,_RNvNtNtCseriWsCb5ev6_4koan8builtins7ascribe21is_abstract_type_name
FNDA:62,_RNvNtNtCseriWsCb5ev6_4koan8builtins7ascribe22abstract_type_names_of
FNDA:36,_RNvNtNtCseriWsCb5ev6_4koan8builtins7ascribe28resolve_module_and_signature
FNDA:461,_RNvNtNtCseriWsCb5ev6_4koan8builtins7ascribe8register
FNDA:9,_RNCNvNtNtCseriWsCb5ev6_4koan8builtins7ascribe21is_abstract_type_name0B7_
FNF:8
FNH:8
DA:15,20
DA:16,20
DA:17,20
DA:18,20
DA:19,20
DA:20,20
DA:21,20
DA:22,0
DA:25,20
DA:26,20
DA:27,20
DA:28,20
DA:31,20
DA:32,20
DA:33,0
DA:34,20
DA:36,20
DA:40,20
DA:42,20
DA:43,20
DA:44,13
DA:46,3
DA:48,3
DA:49,3
DA:50,3
DA:51,3
DA:52,3
DA:53,3
DA:54,3
DA:55,3
DA:57,10
DA:58,10
DA:59,10
DA:60,10
DA:62,13
DA:65,20
DA:66,13
DA:67,13
DA:68,13
DA:69,13
DA:70,7
DA:72,20
DA:73,2
DA:74,18
DA:76,18
DA:78,18
DA:79,18
DA:80,18
DA:81,18
DA:82,20
DA:85,20
DA:86,20
DA:87,20
DA:88,20
DA:89,20
DA:90,20
DA:91,20
DA:92,0
DA:94,20
DA:95,0
DA:96,20
DA:98,20
DA:99,20
DA:100,20
DA:101,20
DA:102,20
DA:103,20
DA:104,20
DA:105,20
DA:106,20
DA:107,20
DA:108,20
DA:111,40
DA:112,40
DA:113,40
DA:114,40
DA:115,40
DA:116,40
DA:117,40
DA:118,40
DA:119,40
DA:120,40
DA:121,40
DA:122,40
DA:123,40
DA:124,40
DA:125,40
DA:126,40
DA:127,40
DA:128,40
DA:129,40
DA:130,40
DA:131,37
DA:132,0
DA:133,37
DA:134,37
DA:135,2
DA:136,2
DA:137,2
DA:138,2
DA:139,35
DA:141,38
DA:142,40
DA:147,67
DA:148,67
DA:149,67
DA:150,67
DA:151,67
DA:152,61
DA:153,0
DA:154,61
DA:156,67
DA:157,67
DA:161,144
DA:162,144
DA:163,144
DA:164,144
DA:165,135
DA:166,9
DA:167,9
DA:168,144
DA:170,40
DA:171,40
DA:172,40
DA:173,40
DA:174,40
DA:175,40
DA:176,40
DA:178,501
DA:182,501
DA:183,501
DA:184,501
DA:185,501
DA:186,501
DA:187,501
DA:188,501
DA:190,501
DA:192,501
DA:193,501
DA:194,501
DA:195,501
DA:196,501
DA:197,501
DA:198,501
DA:200,501
DA:202,501
BRF:0
BRH:0
LF:147
LH:141
end_of_record
SF:/var/home/jack/Code/koan/src/builtins/attr.rs
FN:120,_RNvNtNtCscUx3zdyuqfq_4koan8builtins4attr11body_module
FN:104,_RNvNtNtCscUx3zdyuqfq_4koan8builtins4attr11body_struct
FN:158,_RNvNtNtCscUx3zdyuqfq_4koan8builtins4attr12access_field
FN:70,_RNvNtNtCscUx3zdyuqfq_4koan8builtins4attr13body_type_lhs
FN:22,_RNvNtNtCscUx3zdyuqfq_4koan8builtins4attr15body_identifier
FN:144,_RNvNtNtCscUx3zdyuqfq_4koan8builtins4attr15read_field_name
FN:211,_RNvNtNtCscUx3zdyuqfq_4koan8builtins4attr20access_module_member
FN:232,_RNvNtNtCscUx3zdyuqfq_4koan8builtins4attr8register
FN:316,_RNvNtNtNtCseriWsCb5ev6_4koan8builtins4attr5testss_24attr_unbound_name_errors
FN:343,_RNvNtNtNtCseriWsCb5ev6_4koan8builtins4attr5testss_25attr_unknown_field_errors
FN:327,_RNvNtNtNtCseriWsCb5ev6_4koan8builtins4attr5testss_31attr_on_non_struct_value_errors
FN:359,_RNvNtNtNtCseriWsCb5ev6_4koan8builtins4attr5testss_33attr_chained_unknown_field_errors
FN:300,_RNvNtNtNtCseriWsCb5ev6_4koan8builtins4attr5testss_34attr_chained_through_nested_struct
FN:276,_RNvNtNtNtCseriWsCb5ev6_4koan8builtins4attr5testss_34attr_reads_field_from_named_struct
FN:288,_RNvNtNtNtCseriWsCb5ev6_4koan8builtins4attr5testss_35attr_reads_each_field_independently
FN:396,_RNvNtNtNtCseriWsCb5ev6_4koan8builtins4attr5testss_39access_field_rejects_wrapped_non_struct
FN:380,_RNvNtNtNtCseriWsCb5ev6_4koan8builtins4attr5testss_41access_field_falls_through_wrapped_struct
FN:418,_RNvNtNtNtCseriWsCb5ev6_4koan8builtins4attr5testss_53access_field_falls_through_wrapped_with_missing_field
FN:120,_RNvNtNtCseriWsCb5ev6_4koan8builtins4attr11body_module
FN:104,_RNvNtNtCseriWsCb5ev6_4koan8builtins4attr11body_struct
FN:158,_RNvNtNtCseriWsCb5ev6_4koan8builtins4attr12access_field
FN:70,_RNvNtNtCseriWsCb5ev6_4koan8builtins4attr13body_type_lhs
FN:22,_RNvNtNtCseriWsCb5ev6_4koan8builtins4attr15body_identifier
FN:144,_RNvNtNtCseriWsCb5ev6_4koan8builtins4attr15read_field_name
FN:211,_RNvNtNtCseriWsCb5ev6_4koan8builtins4attr20access_module_member
FN:232,_RNvNtNtCseriWsCb5ev6_4koan8builtins4attr8register
FNDA:7,_RNvNtNtCscUx3zdyuqfq_4koan8builtins4attr11body_module
FNDA:1,_RNvNtNtCscUx3zdyuqfq_4koan8builtins4attr11body_struct
FNDA:1,_RNvNtNtCscUx3zdyuqfq_4koan8builtins4attr12access_field
FNDA:0,_RNvNtNtCscUx3zdyuqfq_4koan8builtins4attr13body_type_lhs
FNDA:1,_RNvNtNtCscUx3zdyuqfq_4koan8builtins4attr15body_identifier
FNDA:9,_RNvNtNtCscUx3zdyuqfq_4koan8builtins4attr15read_field_name
FNDA:7,_RNvNtNtCscUx3zdyuqfq_4koan8builtins4attr20access_module_member
FNDA:40,_RNvNtNtCscUx3zdyuqfq_4koan8builtins4attr8register
FNDA:1,_RNvNtNtNtCseriWsCb5ev6_4koan8builtins4attr5testss_24attr_unbound_name_errors
FNDA:1,_RNvNtNtNtCseriWsCb5ev6_4koan8builtins4attr5testss_25attr_unknown_field_errors
FNDA:1,_RNvNtNtNtCseriWsCb5ev6_4koan8builtins4attr5testss_31attr_on_non_struct_value_errors
FNDA:1,_RNvNtNtNtCseriWsCb5ev6_4koan8builtins4attr5testss_33attr_chained_unknown_field_errors
FNDA:1,_RNvNtNtNtCseriWsCb5ev6_4koan8builtins4attr5testss_34attr_chained_through_nested_struct
FNDA:1,_RNvNtNtNtCseriWsCb5ev6_4koan8builtins4attr5testss_34attr_reads_field_from_named_struct
FNDA:1,_RNvNtNtNtCseriWsCb5ev6_4koan8builtins4attr5testss_35attr_reads_each_field_independently
FNDA:1,_RNvNtNtNtCseriWsCb5ev6_4koan8builtins4attr5testss_39access_field_rejects_wrapped_non_struct
FNDA:1,_RNvNtNtNtCseriWsCb5ev6_4koan8builtins4attr5testss_41access_field_falls_through_wrapped_struct
FNDA:1,_RNvNtNtNtCseriWsCb5ev6_4koan8builtins4attr5testss_53access_field_falls_through_wrapped_with_missing_field
FNDA:9,_RNvNtNtCseriWsCb5ev6_4koan8builtins4attr11body_module
FNDA:18,_RNvNtNtCseriWsCb5ev6_4koan8builtins4attr11body_struct
FNDA:25,_RNvNtNtCseriWsCb5ev6_4koan8builtins4attr12access_field
FNDA:0,_RNvNtNtCseriWsCb5ev6_4koan8builtins4attr13body_type_lhs
FNDA:7,_RNvNtNtCseriWsCb5ev6_4koan8builtins4attr15body_identifier
FNDA:34,_RNvNtNtCseriWsCb5ev6_4koan8builtins4attr15read_field_name
FNDA:12,_RNvNtNtCseriWsCb5ev6_4koan8builtins4attr20access_module_member
FNDA:461,_RNvNtNtCseriWsCb5ev6_4koan8builtins4attr8register
FNF:18
FNH:17
DA:22,8
DA:23,8
DA:24,8
DA:25,8
DA:26,8
DA:27,8
DA:28,8
DA:29,0
DA:30,0
DA:31,0
DA:32,0
DA:33,0
DA:34,0
DA:36,0
DA:38,8
DA:39,8
DA:40,8
DA:41,0
DA:46,8
DA:47,3
DA:48,5
DA:49,5
DA:50,3
DA:51,3
DA:52,0
DA:53,0
DA:58,0
DA:60,2
DA:61,2
DA:62,8
DA:70,0
DA:71,0
DA:72,0
DA:73,0
DA:74,0
DA:75,0
DA:76,0
DA:77,0
DA:78,0
DA:79,0
DA:80,0
DA:81,0
DA:82,0
DA:83,0
DA:85,0
DA:87,0
DA:88,0
DA:89,0
DA:96,0
DA:97,0
DA:98,0
DA:99,0
DA:101,0
DA:102,0
DA:104,19
DA:105,19
DA:106,19
DA:107,19
DA:108,19
DA:109,19
DA:110,19
DA:111,0
DA:113,19
DA:114,19
DA:115,0
DA:117,19
DA:118,19
DA:120,16
DA:121,16
DA:122,16
DA:123,16
DA:124,16
DA:125,16
DA:126,16
DA:127,0
DA:129,16
DA:130,16
DA:131,0
DA:133,16
DA:134,16
DA:135,0
DA:136,0
DA:137,0
DA:138,0
DA:139,0
DA:141,16
DA:142,16
DA:144,43
DA:145,43
DA:146,38
DA:147,0
DA:148,5
DA:149,0
DA:150,0
DA:151,0
DA:152,0
DA:153,0
DA:154,0
DA:156,43
DA:158,26
DA:159,26
DA:160,26
DA:161,26
DA:162,26
DA:163,0
DA:164,18
DA:165,15
DA:166,3
DA:167,3
DA:168,3
DA:169,3
DA:171,0
DA:173,0
DA:174,0
DA:175,0
DA:176,0
DA:177,0
DA:178,0
DA:179,0
DA:180,0
DA:181,0
DA:182,0
DA:183,0
DA:184,0
DA:185,0
DA:186,0
DA:189,0
DA:190,0
DA:195,4
DA:196,4
DA:197,4
DA:198,4
DA:199,4
DA:200,4
DA:202,26
DA:211,19
DA:212,19
DA:213,5
DA:214,5
DA:215,5
DA:216,14
DA:217,14
DA:218,14
DA:219,13
DA:220,1
DA:221,1
DA:222,0
DA:223,0
DA:224,0
DA:225,1
DA:226,1
DA:227,1
DA:228,1
DA:229,1
DA:230,19
DA:232,501
DA:233,501
DA:234,501
DA:235,501
DA:236,501
DA:237,501
DA:239,501
DA:240,501
DA:241,501
DA:242,501
DA:243,501
DA:244,501
DA:245,501
DA:246,501
DA:247,501
DA:252,501
DA:253,501
DA:254,501
DA:255,501
DA:256,501
DA:257,501
DA:258,501
DA:259,501
DA:260,501
DA:262,501
DA:263,501
DA:264,501
DA:265,501
DA:276,1
DA:277,1
DA:278,1
DA:279,1
DA:280,1
DA:281,1
DA:283,1
DA:284,1
DA:285,1
DA:288,1
DA:289,1
DA:290,1
DA:291,1
DA:292,1
DA:293,1
DA:295,1
DA:296,1
DA:297,1
DA:300,1
DA:301,1
DA:302,1
DA:303,1
DA:304,1
DA:305,1
DA:306,1
DA:307,1
DA:308,1
DA:309,1
DA:311,1
DA:312,1
DA:313,1
DA:316,1
DA:317,1
DA:318,1
DA:319,1
DA:320,1
DA:321,1
DA:324,1
DA:327,1
DA:328,1
DA:329,1
DA:330,1
DA:331,1
DA:332,1
DA:333,1
DA:334,1
DA:335,1
DA:336,1
DA:338,0
DA:340,1
DA:343,1
DA:344,1
DA:345,1
DA:346,1
DA:347,1
DA:348,1
DA:350,1
DA:351,1
DA:352,1
DA:353,1
DA:356,1
DA:359,1
DA:360,1
DA:361,1
DA:362,1
DA:363,1
DA:364,1
DA:365,1
DA:366,1
DA:367,1
DA:368,1
DA:370,1
DA:371,1
DA:372,1
DA:373,1
DA:376,1
DA:380,1
DA:381,1
DA:382,1
DA:383,1
DA:384,1
DA:385,1
DA:386,1
DA:387,1
DA:388,1
DA:390,1
DA:391,1
DA:392,1
DA:396,1
DA:397,1
DA:398,1
DA:399,1
DA:400,1
DA:401,1
DA:402,1
DA:404,1
DA:405,1
DA:406,1
DA:407,1
DA:408,1
DA:409,1
DA:411,0
DA:413,1
DA:418,1
DA:419,1
DA:420,1
DA:421,1
DA:422,1
DA:423,1
DA:424,1
DA:425,1
DA:426,1
DA:428,1
DA:429,1
DA:430,1
DA:431,1
DA:434,1
BRF:0
BRH:0
LF:300
LH:226
end_of_record
SF:/var/home/jack/Code/koan/src/builtins/branch_walk.rs
FN:12,_RNvNtNtCscUx3zdyuqfq_4koan8builtins11branch_walk16find_branch_body
FN:12,_RNvNtNtCseriWsCb5ev6_4koan8builtins11branch_walk16find_branch_body
FNDA:0,_RNvNtNtCscUx3zdyuqfq_4koan8builtins11branch_walk16find_branch_body
FNDA:86,_RNvNtNtCseriWsCb5ev6_4koan8builtins11branch_walk16find_branch_body
FNF:1
FNH:1
DA:12,86
DA:13,86
DA:14,86
DA:15,86
DA:16,86
DA:17,86
DA:18,86
DA:19,0
DA:20,0
DA:21,0
DA:22,0
DA:23,86
DA:24,86
DA:25,86
DA:26,127
DA:27,119
DA:28,119
DA:29,119
DA:30,119
DA:31,106
DA:34,9
DA:35,9
DA:38,4
DA:39,0
DA:40,0
DA:41,0
DA:42,0
DA:43,0
DA:46,119
DA:47,119
DA:48,0
DA:49,0
DA:50,0
DA:51,0
DA:52,0
DA:55,119
DA:56,117
DA:57,2
DA:58,2
DA:59,2
DA:60,2
DA:61,2
DA:64,117
DA:65,76
DA:66,41
DA:67,41
DA:68,4
DA:69,37
DA:70,41
DA:72,8
DA:73,86
BRF:0
BRH:0
LF:51
LH:37
end_of_record
SF:/var/home/jack/Code/koan/src/builtins/catch.rs
FN:39,_RNCNvNtNtCscUx3zdyuqfq_4koan8builtins5catch4body0B7_
FN:18,_RNvNtNtCscUx3zdyuqfq_4koan8builtins5catch4body
FN:60,_RNvNtNtCscUx3zdyuqfq_4koan8builtins5catch8register
FN:18,_RNvNtNtCseriWsCb5ev6_4koan8builtins5catch4body
FN:60,_RNvNtNtCseriWsCb5ev6_4koan8builtins5catch8register
FN:39,_RNCNvNtNtCseriWsCb5ev6_4koan8builtins5catch4body0B7_
FNDA:0,_RNCNvNtNtCscUx3zdyuqfq_4koan8builtins5catch4body0B7_
FNDA:0,_RNvNtNtCscUx3zdyuqfq_4koan8builtins5catch4body
FNDA:40,_RNvNtNtCscUx3zdyuqfq_4koan8builtins5catch8register
FNDA:8,_RNvNtNtCseriWsCb5ev6_4koan8builtins5catch4body
FNDA:461,_RNvNtNtCseriWsCb5ev6_4koan8builtins5catch8register
FNDA:8,_RNCNvNtNtCseriWsCb5ev6_4koan8builtins5catch4body0B7_
FNF:3
FNH:3
DA:18,8
DA:19,8
DA:20,8
DA:21,8
DA:22,8
DA:23,8
DA:24,8
DA:26,0
DA:27,0
DA:28,0
DA:34,8
DA:35,8
DA:36,0
DA:38,8
DA:39,8
DA:40,8
DA:41,4
DA:42,4
DA:44,8
DA:45,8
DA:46,8
DA:47,8
DA:48,8
DA:49,8
DA:50,8
DA:51,8
DA:52,8
DA:53,8
DA:54,8
DA:55,8
DA:56,8
DA:57,8
DA:58,8
DA:60,501
DA:61,501
DA:62,501
DA:63,501
DA:64,501
DA:65,501
DA:66,501
DA:68,501
DA:70,501
BRF:0
BRH:0
LF:43
LH:39
end_of_record
SF:/var/home/jack/Code/koan/src/builtins/eval.rs
FN:14,_RNvNtNtCscUx3zdyuqfq_4koan8builtins4eval4body
FN:45,_RNvNtNtCscUx3zdyuqfq_4koan8builtins4eval8register
FN:14,_RNvNtNtCseriWsCb5ev6_4koan8builtins4eval4body
FN:45,_RNvNtNtCseriWsCb5ev6_4koan8builtins4eval8register
FN:59,_RNvNtNtNtCseriWsCb5ev6_4koan8builtins4eval5tests11run_program
FN:118,_RNvNtNtNtCseriWsCb5ev6_4koan8builtins4eval5testss_21recursive_eval_no_uaf
FN:68,_RNvNtNtNtCseriWsCb5ev6_4koan8builtins4eval5testss_22eval_of_quoted_literal
FN:102,_RNvNtNtNtCseriWsCb5ev6_4koan8builtins4eval5testss_34multiline_sigil_collapse_roundtrip
FN:110,_RNvNtNtNtCseriWsCb5ev6_4koan8builtins4eval5testss_35eval_returns_inner_expression_value
FN:96,_RNvNtNtNtCseriWsCb5ev6_4koan8builtins4eval5testss_37eval_runs_side_effects_in_quoted_body
FN:74,_RNvNtNtNtCseriWsCb5ev6_4koan8builtins4eval5testss_38eval_of_function_returning_kexpression
FN:83,_RNvNtNtNtCseriWsCb5ev6_4koan8builtins4eval5testss_49eval_of_non_kexpression_errors_with_type_mismatch
FNDA:0,_RNvNtNtCscUx3zdyuqfq_4koan8builtins4eval4body
FNDA:40,_RNvNtNtCscUx3zdyuqfq_4koan8builtins4eval8register
FNDA:9,_RNvNtNtCseriWsCb5ev6_4koan8builtins4eval4body
FNDA:461,_RNvNtNtCseriWsCb5ev6_4koan8builtins4eval8register
FNDA:6,_RNvNtNtNtCseriWsCb5ev6_4koan8builtins4eval5tests11run_program
FNDA:1,_RNvNtNtNtCseriWsCb5ev6_4koan8builtins4eval5testss_21recursive_eval_no_uaf
FNDA:1,_RNvNtNtNtCseriWsCb5ev6_4koan8builtins4eval5testss_22eval_of_quoted_literal
FNDA:1,_RNvNtNtNtCseriWsCb5ev6_4koan8builtins4eval5testss_34multiline_sigil_collapse_roundtrip
FNDA:1,_RNvNtNtNtCseriWsCb5ev6_4koan8builtins4eval5testss_35eval_returns_inner_expression_value
FNDA:1,_RNvNtNtNtCseriWsCb5ev6_4koan8builtins4eval5testss_37eval_runs_side_effects_in_quoted_body
FNDA:1,_RNvNtNtNtCseriWsCb5ev6_4koan8builtins4eval5testss_38eval_of_function_returning_kexpression
FNDA:1,_RNvNtNtNtCseriWsCb5ev6_4koan8builtins4eval5testss_49eval_of_non_kexpression_errors_with_type_mismatch
FNF:10
FNH:10
DA:14,9
DA:15,9
DA:16,9
DA:17,9
DA:18,9
DA:19,9
DA:20,9
DA:21,0
DA:23,9
DA:24,8
DA:25,1
DA:26,1
DA:27,1
DA:28,1
DA:29,1
DA:30,1
DA:35,8
DA:36,8
DA:37,8
DA:38,8
DA:39,8
DA:40,8
DA:41,8
DA:42,8
DA:43,9
DA:45,501
DA:46,501
DA:47,501
DA:48,501
DA:49,501
DA:50,501
DA:52,501
DA:59,6
DA:60,6
DA:61,6
DA:62,6
DA:63,6
DA:64,6
DA:65,6
DA:68,1
DA:69,1
DA:70,1
DA:71,1
DA:74,1
DA:75,1
DA:76,1
DA:77,1
DA:79,1
DA:80,1
DA:83,1
DA:84,1
DA:85,1
DA:86,1
DA:87,1
DA:88,1
DA:89,1
DA:90,1
DA:93,1
DA:96,1
DA:97,1
DA:98,1
DA:99,1
DA:102,1
DA:103,1
DA:104,1
DA:106,1
DA:107,1
DA:110,1
DA:113,1
DA:114,1
DA:115,1
DA:118,1
DA:122,1
DA:123,1
DA:124,1
DA:125,1
DA:126,1
DA:127,1
DA:128,1
DA:130,1
DA:131,1
BRF:0
BRH:0
LF:81
LH:80
end_of_record
SF:/var/home/jack/Code/koan/src/builtins/fn_def.rs
FN:79,_RNCNvNtNtCscUx3zdyuqfq_4koan8builtins6fn_def4body0B7_
FN:27,_RNvNtNtCscUx3zdyuqfq_4koan8builtins6fn_def4body
FN:92,_RNvNtNtCscUx3zdyuqfq_4koan8builtins6fn_def8register
FN:79,_RNCNvNtNtCseriWsCb5ev6_4koan8builtins6fn_def4body0B7_
FN:27,_RNvNtNtCseriWsCb5ev6_4koan8builtins6fn_def4body
FN:92,_RNvNtNtCseriWsCb5ev6_4koan8builtins6fn_def8register
FNDA:10,_RNCNvNtNtCscUx3zdyuqfq_4koan8builtins6fn_def4body0B7_
FNDA:10,_RNvNtNtCscUx3zdyuqfq_4koan8builtins6fn_def4body
FNDA:40,_RNvNtNtCscUx3zdyuqfq_4koan8builtins6fn_def8register
FNDA:166,_RNCNvNtNtCseriWsCb5ev6_4koan8builtins6fn_def4body0B7_
FNDA:171,_RNvNtNtCseriWsCb5ev6_4koan8builtins6fn_def4body
FNDA:461,_RNvNtNtCseriWsCb5ev6_4koan8builtins6fn_def8register
FNF:3
FNH:3
DA:27,181
DA:28,181
DA:29,181
DA:30,181
DA:31,181
DA:32,181
DA:33,181
DA:35,0
DA:36,0
DA:37,0
DA:40,181
DA:41,181
DA:42,0
DA:44,181
DA:45,181
DA:47,0
DA:48,0
DA:49,0
DA:55,181
DA:57,181
DA:61,179
DA:62,181
DA:63,179
DA:64,2
DA:67,179
DA:68,133
DA:69,3
DA:70,43
DA:71,43
DA:77,176
DA:78,176
DA:79,176
DA:80,176
DA:82,176
DA:83,129
DA:84,129
DA:86,47
DA:87,47
DA:90,181
DA:92,501
DA:112,501
DA:113,501
DA:114,501
DA:115,501
DA:116,501
DA:117,501
DA:118,501
DA:119,501
DA:120,501
DA:121,501
DA:123,501
DA:124,501
DA:125,501
DA:129,501
DA:130,501
DA:131,501
DA:132,501
DA:133,501
DA:134,501
DA:135,501
DA:136,501
DA:137,501
DA:138,501
DA:140,501
DA:141,501
DA:142,501
DA:146,501
BRF:0
BRH:0
LF:68
LH:61
end_of_record
SF:/var/home/jack/Code/koan/src/builtins/fn_def/finalize.rs
FN:271,_RNCNvNtNtNtCscUx3zdyuqfq_4koan8builtins6fn_def8finalize17defer_via_combine0B9_
FN:194,_RNCNvNtNtNtCscUx3zdyuqfq_4koan8builtins6fn_def8finalize21finalize_fn_with_flag0B9_
FN:151,_RNvNtNtNtCscUx3zdyuqfq_4koan8builtins6fn_def8finalize11finalize_fn
FN:243,_RNvNtNtNtCscUx3zdyuqfq_4koan8builtins6fn_def8finalize17defer_via_combine
FN:169,_RNvNtNtNtCscUx3zdyuqfq_4koan8builtins6fn_def8finalize21finalize_fn_with_flag
FN:68,_RNvNtNtNtCscUx3zdyuqfq_4koan8builtins6fn_def8finalize8classify
FN:271,_RNCNvNtNtNtCseriWsCb5ev6_4koan8builtins6fn_def8finalize17defer_via_combine0B9_
FN:194,_RNCNvNtNtNtCseriWsCb5ev6_4koan8builtins6fn_def8finalize21finalize_fn_with_flag0B9_
FN:151,_RNvNtNtNtCseriWsCb5ev6_4koan8builtins6fn_def8finalize11finalize_fn
FN:243,_RNvNtNtNtCseriWsCb5ev6_4koan8builtins6fn_def8finalize17defer_via_combine
FN:169,_RNvNtNtNtCseriWsCb5ev6_4koan8builtins6fn_def8finalize21finalize_fn_with_flag
FN:68,_RNvNtNtNtCseriWsCb5ev6_4koan8builtins6fn_def8finalize8classify
FNDA:7,_RNCNvNtNtNtCscUx3zdyuqfq_4koan8builtins6fn_def8finalize17defer_via_combine0B9_
FNDA:14,_RNCNvNtNtNtCscUx3zdyuqfq_4koan8builtins6fn_def8finalize21finalize_fn_with_flag0B9_
FNDA:7,_RNvNtNtNtCscUx3zdyuqfq_4koan8builtins6fn_def8finalize11finalize_fn
FNDA:7,_RNvNtNtNtCscUx3zdyuqfq_4koan8builtins6fn_def8finalize17defer_via_combine
FNDA:14,_RNvNtNtNtCscUx3zdyuqfq_4koan8builtins6fn_def8finalize21finalize_fn_with_flag
FNDA:14,_RNvNtNtNtCscUx3zdyuqfq_4koan8builtins6fn_def8finalize8classify
FNDA:48,_RNCNvNtNtNtCseriWsCb5ev6_4koan8builtins6fn_def8finalize17defer_via_combine0B9_
FNDA:181,_RNCNvNtNtNtCseriWsCb5ev6_4koan8builtins6fn_def8finalize21finalize_fn_with_flag0B9_
FNDA:122,_RNvNtNtNtCseriWsCb5ev6_4koan8builtins6fn_def8finalize11finalize_fn
FNDA:49,_RNvNtNtNtCseriWsCb5ev6_4koan8builtins6fn_def8finalize17defer_via_combine
FNDA:175,_RNvNtNtNtCseriWsCb5ev6_4koan8builtins6fn_def8finalize21finalize_fn_with_flag
FNDA:178,_RNvNtNtNtCseriWsCb5ev6_4koan8builtins6fn_def8finalize8classify
FNF:6
FNH:6
DA:68,192
DA:69,192
DA:70,192
DA:71,192
DA:72,192
DA:73,127
DA:74,127
DA:75,127
DA:76,127
DA:77,9
DA:78,9
DA:79,9
DA:80,9
DA:81,4
DA:83,4
DA:84,4
DA:85,4
DA:86,4
DA:87,4
DA:88,4
DA:91,50
DA:92,50
DA:93,50
DA:94,50
DA:95,50
DA:96,50
DA:97,50
DA:98,50
DA:100,1
DA:101,1
DA:102,1
DA:103,1
DA:104,1
DA:105,1
DA:106,1
DA:107,1
DA:108,1
DA:109,1
DA:111,1
DA:112,1
DA:116,1
DA:117,1
DA:118,1
DA:119,1
DA:120,1
DA:121,1
DA:122,1
DA:124,0
DA:127,0
DA:128,0
DA:129,0
DA:130,0
DA:131,0
DA:132,0
DA:135,0
DA:136,0
DA:138,0
DA:139,0
DA:140,0
DA:141,0
DA:142,0
DA:143,0
DA:144,0
DA:147,192
DA:151,129
DA:152,129
DA:153,129
DA:154,129
DA:155,129
DA:156,129
DA:157,129
DA:158,129
DA:159,129
DA:169,189
DA:170,189
DA:171,189
DA:172,189
DA:173,189
DA:174,189
DA:175,189
DA:176,189
DA:179,189
DA:180,16
DA:181,14
DA:182,0
DA:183,0
DA:184,0
DA:185,0
DA:186,0
DA:187,14
DA:188,2
DA:189,173
DA:194,195
DA:195,188
DA:196,7
DA:197,195
DA:198,189
DA:199,188
DA:201,1
DA:202,1
DA:203,1
DA:204,1
DA:208,188
DA:210,188
DA:214,188
DA:215,188
DA:216,188
DA:217,188
DA:218,188
DA:219,188
DA:220,188
DA:221,188
DA:222,188
DA:225,188
DA:226,188
DA:227,1
DA:228,187
DA:231,187
DA:232,189
DA:243,56
DA:244,56
DA:245,56
DA:246,56
DA:247,56
DA:248,56
DA:249,56
DA:250,56
DA:251,56
DA:252,56
DA:258,56
DA:259,56
DA:260,56
DA:261,56
DA:262,5
DA:263,51
DA:264,56
DA:265,56
DA:266,36
DA:267,36
DA:268,36
DA:269,36
DA:271,56
DA:272,55
DA:273,55
DA:274,35
DA:278,35
DA:279,1
DA:280,1
DA:281,1
DA:282,1
DA:283,1
DA:284,34
DA:285,34
DA:287,54
DA:293,54
DA:294,54
DA:295,53
DA:296,1
DA:298,53
DA:299,53
DA:300,0
DA:301,0
DA:304,0
DA:305,0
DA:306,0
DA:309,53
DA:310,53
DA:311,53
DA:312,53
DA:313,53
DA:314,53
DA:315,53
DA:317,55
DA:318,56
DA:319,56
DA:320,56
BRF:0
BRH:0
LF:178
LH:151
end_of_record
SF:/var/home/jack/Code/koan/src/builtins/fn_def/param_refs.rs
FN:34,_RNCNvNtNtNtCscUx3zdyuqfq_4koan8builtins6fn_def10param_refs19part_references_any0B9_
FN:41,_RNCNvNtNtNtCscUx3zdyuqfq_4koan8builtins6fn_def10param_refs19part_references_anys0_0B9_
FN:39,_RNCNvNtNtNtCscUx3zdyuqfq_4koan8builtins6fn_def10param_refs19part_references_anys_0B9_
FN:12,_RNCNvNtNtNtCscUx3zdyuqfq_4koan8builtins6fn_def10param_refs24type_expr_references_any0B9_
FN:19,_RNCNvNtNtNtCscUx3zdyuqfq_4koan8builtins6fn_def10param_refs24type_expr_references_anys0_0B9_
FN:17,_RNCNvNtNtNtCscUx3zdyuqfq_4koan8builtins6fn_def10param_refs24type_expr_references_anys_0B9_
FN:29,_RNCNvNtNtNtCscUx3zdyuqfq_4koan8builtins6fn_def10param_refs26kexpression_references_any0B9_
FN:32,_RNvNtNtNtCscUx3zdyuqfq_4koan8builtins6fn_def10param_refs19part_references_any
FN:11,_RNvNtNtNtCscUx3zdyuqfq_4koan8builtins6fn_def10param_refs24type_expr_references_any
FN:25,_RNvNtNtNtCscUx3zdyuqfq_4koan8builtins6fn_def10param_refs26kexpression_references_any
FN:32,_RNvNtNtNtCseriWsCb5ev6_4koan8builtins6fn_def10param_refs19part_references_any
FN:11,_RNvNtNtNtCseriWsCb5ev6_4koan8builtins6fn_def10param_refs24type_expr_references_any
FN:25,_RNvNtNtNtCseriWsCb5ev6_4koan8builtins6fn_def10param_refs26kexpression_references_any
FN:34,_RNCNvNtNtNtCseriWsCb5ev6_4koan8builtins6fn_def10param_refs19part_references_any0B9_
FN:41,_RNCNvNtNtNtCseriWsCb5ev6_4koan8builtins6fn_def10param_refs19part_references_anys0_0B9_
FN:39,_RNCNvNtNtNtCseriWsCb5ev6_4koan8builtins6fn_def10param_refs19part_references_anys_0B9_
FN:12,_RNCNvNtNtNtCseriWsCb5ev6_4koan8builtins6fn_def10param_refs24type_expr_references_any0B9_
FN:19,_RNCNvNtNtNtCseriWsCb5ev6_4koan8builtins6fn_def10param_refs24type_expr_references_anys0_0B9_
FN:17,_RNCNvNtNtNtCseriWsCb5ev6_4koan8builtins6fn_def10param_refs24type_expr_references_anys_0B9_
FN:29,_RNCNvNtNtNtCseriWsCb5ev6_4koan8builtins6fn_def10param_refs26kexpression_references_any0B9_
FNDA:0,_RNCNvNtNtNtCscUx3zdyuqfq_4koan8builtins6fn_def10param_refs19part_references_any0B9_
FNDA:0,_RNCNvNtNtNtCscUx3zdyuqfq_4koan8builtins6fn_def10param_refs19part_references_anys0_0B9_
FNDA:0,_RNCNvNtNtNtCscUx3zdyuqfq_4koan8builtins6fn_def10param_refs19part_references_anys_0B9_
FNDA:1,_RNCNvNtNtNtCscUx3zdyuqfq_4koan8builtins6fn_def10param_refs24type_expr_references_any0B9_
FNDA:0,_RNCNvNtNtNtCscUx3zdyuqfq_4koan8builtins6fn_def10param_refs24type_expr_references_anys0_0B9_
FNDA:0,_RNCNvNtNtNtCscUx3zdyuqfq_4koan8builtins6fn_def10param_refs24type_expr_references_anys_0B9_
FNDA:0,_RNCNvNtNtNtCscUx3zdyuqfq_4koan8builtins6fn_def10param_refs26kexpression_references_any0B9_
FNDA:0,_RNvNtNtNtCscUx3zdyuqfq_4koan8builtins6fn_def10param_refs19part_references_any
FNDA:1,_RNvNtNtNtCscUx3zdyuqfq_4koan8builtins6fn_def10param_refs24type_expr_references_any
FNDA:0,_RNvNtNtNtCscUx3zdyuqfq_4koan8builtins6fn_def10param_refs26kexpression_references_any
FNDA:42,_RNvNtNtNtCseriWsCb5ev6_4koan8builtins6fn_def10param_refs19part_references_any
FNDA:28,_RNvNtNtNtCseriWsCb5ev6_4koan8builtins6fn_def10param_refs24type_expr_references_any
FNDA:19,_RNvNtNtNtCseriWsCb5ev6_4koan8builtins6fn_def10param_refs26kexpression_references_any
FNDA:4,_RNCNvNtNtNtCseriWsCb5ev6_4koan8builtins6fn_def10param_refs19part_references_any0B9_
FNDA:1,_RNCNvNtNtNtCseriWsCb5ev6_4koan8builtins6fn_def10param_refs19part_references_anys0_0B9_
FNDA:1,_RNCNvNtNtNtCseriWsCb5ev6_4koan8builtins6fn_def10param_refs19part_references_anys_0B9_
FNDA:26,_RNCNvNtNtNtCseriWsCb5ev6_4koan8builtins6fn_def10param_refs24type_expr_references_any0B9_
FNDA:0,_RNCNvNtNtNtCseriWsCb5ev6_4koan8builtins6fn_def10param_refs24type_expr_references_anys0_0B9_
FNDA:0,_RNCNvNtNtNtCseriWsCb5ev6_4koan8builtins6fn_def10param_refs24type_expr_references_anys_0B9_
FNDA:39,_RNCNvNtNtNtCseriWsCb5ev6_4koan8builtins6fn_def10param_refs26kexpression_references_any0B9_
FNF:10
FNH:8
DA:11,29
DA:12,29
DA:13,8
DA:14,21
DA:15,21
DA:16,21
DA:17,0
DA:18,0
DA:19,0
DA:20,0
DA:23,29
DA:25,19
DA:26,19
DA:27,19
DA:28,19
DA:29,39
DA:30,19
DA:32,42
DA:33,42
DA:34,4
DA:35,18
DA:36,7
DA:37,0
DA:38,1
DA:39,1
DA:41,1
DA:42,1
DA:43,1
DA:44,11
DA:46,42
BRF:0
BRH:0
LF:37
LH:30
end_of_record
SF:/var/home/jack/Code/koan/src/builtins/fn_def/return_type.rs
FN:204,_RNCNvNtNtNtCscUx3zdyuqfq_4koan8builtins6fn_def11return_type31verdict_for_deferred_expression0B9_
FN:227,_RNvNtNtNtCscUx3zdyuqfq_4koan8builtins6fn_def11return_type12make_capture
FN:95,_RNvNtNtNtCscUx3zdyuqfq_4koan8builtins6fn_def11return_type20classify_return_type
FN:152,_RNvNtNtNtCscUx3zdyuqfq_4koan8builtins6fn_def11return_type20verdict_for_resolved
FN:52,_RNvNtNtNtCscUx3zdyuqfq_4koan8builtins6fn_def11return_type23extract_return_type_raw
FN:237,_RNvNtNtNtCscUx3zdyuqfq_4koan8builtins6fn_def11return_type25resolve_capture_at_finish
FN:167,_RNvNtNtNtCscUx3zdyuqfq_4koan8builtins6fn_def11return_type30verdict_for_deferred_type_expr
FN:203,_RNvNtNtNtCscUx3zdyuqfq_4koan8builtins6fn_def11return_type31verdict_for_deferred_expression
FN:204,_RNCNvNtNtNtCseriWsCb5ev6_4koan8builtins6fn_def11return_type31verdict_for_deferred_expression0B9_
FN:227,_RNvNtNtNtCseriWsCb5ev6_4koan8builtins6fn_def11return_type12make_capture
FN:95,_RNvNtNtNtCseriWsCb5ev6_4koan8builtins6fn_def11return_type20classify_return_type
FN:152,_RNvNtNtNtCseriWsCb5ev6_4koan8builtins6fn_def11return_type20verdict_for_resolved
FN:52,_RNvNtNtNtCseriWsCb5ev6_4koan8builtins6fn_def11return_type23extract_return_type_raw
FN:237,_RNvNtNtNtCseriWsCb5ev6_4koan8builtins6fn_def11return_type25resolve_capture_at_finish
FN:167,_RNvNtNtNtCseriWsCb5ev6_4koan8builtins6fn_def11return_type30verdict_for_deferred_type_expr
FN:203,_RNvNtNtNtCseriWsCb5ev6_4koan8builtins6fn_def11return_type31verdict_for_deferred_expression
FNDA:0,_RNCNvNtNtNtCscUx3zdyuqfq_4koan8builtins6fn_def11return_type31verdict_for_deferred_expression0B9_
FNDA:0,_RNvNtNtNtCscUx3zdyuqfq_4koan8builtins6fn_def11return_type12make_capture
FNDA:14,_RNvNtNtNtCscUx3zdyuqfq_4koan8builtins6fn_def11return_type20classify_return_type
FNDA:14,_RNvNtNtNtCscUx3zdyuqfq_4koan8builtins6fn_def11return_type20verdict_for_resolved
FNDA:14,_RNvNtNtNtCscUx3zdyuqfq_4koan8builtins6fn_def11return_type23extract_return_type_raw
FNDA:7,_RNvNtNtNtCscUx3zdyuqfq_4koan8builtins6fn_def11return_type25resolve_capture_at_finish
FNDA:0,_RNvNtNtNtCscUx3zdyuqfq_4koan8builtins6fn_def11return_type30verdict_for_deferred_type_expr
FNDA:0,_RNvNtNtNtCscUx3zdyuqfq_4koan8builtins6fn_def11return_type31verdict_for_deferred_expression
FNDA:1,_RNCNvNtNtNtCseriWsCb5ev6_4koan8builtins6fn_def11return_type31verdict_for_deferred_expression0B9_
FNDA:0,_RNvNtNtNtCseriWsCb5ev6_4koan8builtins6fn_def11return_type12make_capture
FNDA:186,_RNvNtNtNtCseriWsCb5ev6_4koan8builtins6fn_def11return_type20classify_return_type
FNDA:168,_RNvNtNtNtCseriWsCb5ev6_4koan8builtins6fn_def11return_type20verdict_for_resolved
FNDA:186,_RNvNtNtNtCseriWsCb5ev6_4koan8builtins6fn_def11return_type23extract_return_type_raw
FNDA:47,_RNvNtNtNtCseriWsCb5ev6_4koan8builtins6fn_def11return_type25resolve_capture_at_finish
FNDA:2,_RNvNtNtNtCseriWsCb5ev6_4koan8builtins6fn_def11return_type30verdict_for_deferred_type_expr
FNDA:1,_RNvNtNtNtCseriWsCb5ev6_4koan8builtins6fn_def11return_type31verdict_for_deferred_expression
FNF:8
FNH:7
DA:52,200
DA:53,200
DA:54,200
DA:55,200
DA:56,177
DA:57,177
DA:58,0
DA:60,11
DA:61,11
DA:62,0
DA:64,12
DA:65,12
DA:66,0
DA:68,0
DA:69,0
DA:70,0
DA:71,0
DA:73,200
DA:95,200
DA:96,200
DA:97,200
DA:98,200
DA:99,200
DA:100,200
DA:101,200
DA:102,177
DA:103,177
DA:104,177
DA:106,11
DA:107,11
DA:108,4
DA:109,2
DA:110,2
DA:112,4
DA:113,7
DA:114,7
DA:115,7
DA:116,5
DA:117,0
DA:118,0
DA:120,2
DA:121,0
DA:123,2
DA:124,2
DA:125,2
DA:129,5
DA:130,5
DA:131,5
DA:133,0
DA:135,5
DA:137,12
DA:138,12
DA:139,7
DA:140,1
DA:141,6
DA:143,7
DA:145,5
DA:149,200
DA:152,182
DA:153,182
DA:154,180
DA:156,2
DA:157,2
DA:158,2
DA:159,2
DA:161,182
DA:167,2
DA:168,2
DA:169,2
DA:170,2
DA:171,0
DA:175,2
DA:176,2
DA:177,2
DA:179,0
DA:180,0
DA:181,0
DA:182,0
DA:183,0
DA:184,0
DA:187,0
DA:190,0
DA:192,0
DA:193,0
DA:194,0
DA:195,0
DA:198,2
DA:203,1
DA:204,1
DA:205,1
DA:206,0
DA:207,1
DA:208,1
DA:209,1
DA:210,1
DA:211,1
DA:212,1
DA:213,1
DA:214,1
DA:215,0
DA:216,0
DA:217,0
DA:218,0
DA:219,0
DA:220,0
DA:221,0
DA:222,0
DA:223,0
DA:225,1
DA:227,0
DA:228,0
DA:229,0
DA:230,0
DA:232,0
DA:237,54
DA:238,54
DA:239,54
DA:240,54
DA:241,54
DA:242,54
DA:243,48
DA:244,0
DA:245,0
DA:246,0
DA:247,0
DA:248,0
DA:249,0
DA:250,0
DA:251,0
DA:252,0
DA:253,0
DA:254,0
DA:255,0
DA:259,0
DA:260,0
DA:261,0
DA:262,0
DA:263,0
DA:264,0
DA:265,0
DA:266,0
DA:268,1
DA:269,5
DA:270,5
DA:271,5
DA:272,4
DA:273,1
DA:274,1
DA:275,1
DA:276,1
DA:277,1
DA:281,54
BRF:0
BRH:0
LF:153
LH:94
end_of_record
SF:/var/home/jack/Code/koan/src/builtins/fn_def/signature.rs
FN:192,_RNvNtNtNtCscUx3zdyuqfq_4koan8builtins6fn_def9signature13binder_bucket
FN:62,_RNvNtNtNtCscUx3zdyuqfq_4koan8builtins6fn_def9signature19parse_fn_param_list
FN:248,_RNvNtNtNtCscUx3zdyuqfq_4koan8builtins6fn_def9signature19signature_expr_part
FN:11,_RNvNtNtNtCscUx3zdyuqfq_4koan8builtins6fn_def9signature34collect_param_names_from_signature
FN:174,_RNvNtNtNtCscUx3zdyuqfq_4koan8builtins6fn_def9signature11binder_name
FN:207,_RNCNvNtNtNtCscUx3zdyuqfq_4koan8builtins6fn_def9signature13binder_bucket0B9_
FN:224,_RNCNvNtNtNtCscUx3zdyuqfq_4koan8builtins6fn_def9signature13binder_buckets_0B9_
FN:174,_RNvNtNtNtCseriWsCb5ev6_4koan8builtins6fn_def9signature11binder_name
FN:192,_RNvNtNtNtCseriWsCb5ev6_4koan8builtins6fn_def9signature13binder_bucket
FN:62,_RNvNtNtNtCseriWsCb5ev6_4koan8builtins6fn_def9signature19parse_fn_param_list
FN:248,_RNvNtNtNtCseriWsCb5ev6_4koan8builtins6fn_def9signature19signature_expr_part
FN:11,_RNvNtNtNtCseriWsCb5ev6_4koan8builtins6fn_def9signature34collect_param_names_from_signature
FN:207,_RNCNvNtNtNtCseriWsCb5ev6_4koan8builtins6fn_def9signature13binder_bucket0B9_
FN:224,_RNCNvNtNtNtCseriWsCb5ev6_4koan8builtins6fn_def9signature13binder_buckets_0B9_
FNDA:31,_RNvNtNtNtCscUx3zdyuqfq_4koan8builtins6fn_def9signature13binder_bucket
FNDA:21,_RNvNtNtNtCscUx3zdyuqfq_4koan8builtins6fn_def9signature19parse_fn_param_list
FNDA:31,_RNvNtNtNtCscUx3zdyuqfq_4koan8builtins6fn_def9signature19signature_expr_part
FNDA:14,_RNvNtNtNtCscUx3zdyuqfq_4koan8builtins6fn_def9signature34collect_param_names_from_signature
FNDA:0,_RNvNtNtNtCscUx3zdyuqfq_4koan8builtins6fn_def9signature11binder_name
FNDA:23,_RNCNvNtNtNtCscUx3zdyuqfq_4koan8builtins6fn_def9signature13binder_bucket0B9_
FNDA:12,_RNCNvNtNtNtCscUx3zdyuqfq_4koan8builtins6fn_def9signature13binder_buckets_0B9_
FNDA:1,_RNvNtNtNtCseriWsCb5ev6_4koan8builtins6fn_def9signature11binder_name
FNDA:387,_RNvNtNtNtCseriWsCb5ev6_4koan8builtins6fn_def9signature13binder_bucket
FNDA:227,_RNvNtNtNtCseriWsCb5ev6_4koan8builtins6fn_def9signature19parse_fn_param_list
FNDA:388,_RNvNtNtNtCseriWsCb5ev6_4koan8builtins6fn_def9signature19signature_expr_part
FNDA:186,_RNvNtNtNtCseriWsCb5ev6_4koan8builtins6fn_def9signature34collect_param_names_from_signature
FNDA:255,_RNCNvNtNtNtCseriWsCb5ev6_4koan8builtins6fn_def9signature13binder_bucket0B9_
FNDA:48,_RNCNvNtNtNtCseriWsCb5ev6_4koan8builtins6fn_def9signature13binder_buckets_0B9_
FNF:7
FNH:7
DA:11,200
DA:12,200
DA:13,200
DA:14,200
DA:15,568
DA:16,368
DA:17,138
DA:18,28
DA:19,28
DA:21,202
DA:23,368
DA:24,166
DA:25,166
DA:26,164
DA:32,166
DA:33,164
DA:34,164
DA:35,164
DA:36,2
DA:37,202
DA:38,204
DA:40,200
DA:41,200
DA:62,248
DA:63,248
DA:64,248
DA:65,248
DA:66,248
DA:67,248
DA:68,248
DA:69,248
DA:70,248
DA:71,248
DA:72,711
DA:75,465
DA:76,177
DA:77,38
DA:78,38
DA:80,250
DA:82,465
DA:83,250
DA:84,250
DA:85,250
DA:86,250
DA:87,215
DA:88,215
DA:89,34
DA:90,143
DA:91,143
DA:92,126
DA:93,126
DA:94,126
DA:95,126
DA:96,126
DA:97,126
DA:98,16
DA:99,16
DA:100,16
DA:101,1
DA:102,1
DA:103,1
DA:104,1
DA:105,1
DA:106,0
DA:108,143
DA:110,4
DA:111,4
DA:112,4
DA:113,4
DA:114,32
DA:115,32
DA:116,32
DA:117,32
DA:118,32
DA:119,32
DA:120,32
DA:121,32
DA:122,32
DA:123,32
DA:124,34
DA:125,34
DA:126,34
DA:127,34
DA:128,34
DA:129,34
DA:130,34
DA:131,0
DA:132,0
DA:133,0
DA:134,0
DA:135,0
DA:136,0
DA:139,2
DA:140,2
DA:141,2
DA:142,2
DA:146,0
DA:147,0
DA:148,0
DA:149,0
DA:150,0
DA:152,0
DA:153,0
DA:154,0
DA:155,0
DA:156,0
DA:160,246
DA:161,1
DA:162,245
DA:163,245
DA:164,52
DA:165,52
DA:166,52
DA:167,52
DA:168,193
DA:169,193
DA:170,248
DA:174,1
DA:175,1
DA:176,1
DA:177,1
DA:178,1
DA:179,0
DA:181,0
DA:182,1
DA:192,418
DA:193,418
DA:194,418
DA:196,418
DA:197,418
DA:198,418
DA:199,418
DA:200,1182
DA:201,764
DA:202,422
DA:203,422
DA:204,422
DA:205,422
DA:207,282
DA:208,0
DA:209,278
DA:215,278
DA:216,282
DA:217,278
DA:218,278
DA:219,278
DA:220,4
DA:221,4
DA:223,60
DA:224,60
DA:225,0
DA:226,60
DA:232,60
DA:233,60
DA:234,60
DA:235,60
DA:236,60
DA:237,0
DA:238,0
DA:240,0
DA:241,0
DA:242,0
DA:245,418
DA:246,418
DA:248,419
DA:249,419
DA:250,419
DA:251,419
DA:252,0
DA:254,419
BRF:0
BRH:0
LF:172
LH:145
end_of_record
SF:/var/home/jack/Code/koan/src/builtins/functor_def.rs
FN:122,_RNvNtNtCscUx3zdyuqfq_4koan8builtins11functor_def19collect_param_types
FN:40,_RNvNtNtCscUx3zdyuqfq_4koan8builtins11functor_def4body
FN:155,_RNvNtNtCscUx3zdyuqfq_4koan8builtins11functor_def8register
FN:96,_RNCNvNtNtCscUx3zdyuqfq_4koan8builtins11functor_def4body0B7_
FN:96,_RNCNvNtNtCseriWsCb5ev6_4koan8builtins11functor_def4body0B7_
FN:122,_RNvNtNtCseriWsCb5ev6_4koan8builtins11functor_def19collect_param_types
FN:40,_RNvNtNtCseriWsCb5ev6_4koan8builtins11functor_def4body
FN:155,_RNvNtNtCseriWsCb5ev6_4koan8builtins11functor_def8register
FNDA:4,_RNvNtNtCscUx3zdyuqfq_4koan8builtins11functor_def19collect_param_types
FNDA:4,_RNvNtNtCscUx3zdyuqfq_4koan8builtins11functor_def4body
FNDA:40,_RNvNtNtCscUx3zdyuqfq_4koan8builtins11functor_def8register
FNDA:4,_RNCNvNtNtCscUx3zdyuqfq_4koan8builtins11functor_def4body0B7_
FNDA:12,_RNCNvNtNtCseriWsCb5ev6_4koan8builtins11functor_def4body0B7_
FNDA:15,_RNvNtNtCseriWsCb5ev6_4koan8builtins11functor_def19collect_param_types
FNDA:15,_RNvNtNtCseriWsCb5ev6_4koan8builtins11functor_def4body
FNDA:461,_RNvNtNtCseriWsCb5ev6_4koan8builtins11functor_def8register
FNF:4
FNH:4
DA:40,19
DA:41,19
DA:42,19
DA:43,19
DA:44,19
DA:45,19
DA:46,19
DA:48,0
DA:49,0
DA:50,0
DA:53,19
DA:54,19
DA:55,0
DA:57,19
DA:58,19
DA:60,0
DA:61,0
DA:62,0
DA:65,19
DA:70,19
DA:72,19
DA:76,19
DA:77,19
DA:78,19
DA:79,0
DA:81,19
DA:82,3
DA:83,16
DA:85,16
DA:86,7
DA:87,0
DA:88,9
DA:89,9
DA:94,16
DA:95,16
DA:96,16
DA:97,16
DA:99,16
DA:100,7
DA:101,7
DA:103,9
DA:106,9
DA:107,9
DA:108,9
DA:109,9
DA:110,9
DA:111,9
DA:113,9
DA:117,19
DA:122,19
DA:123,19
DA:124,19
DA:125,19
DA:127,19
DA:128,19
DA:129,19
DA:130,19
DA:131,57
DA:132,38
DA:133,2
DA:134,17
DA:135,17
DA:137,19
DA:139,38
DA:140,19
DA:141,19
DA:142,19
DA:143,10
DA:144,10
DA:145,0
DA:146,0
DA:147,19
DA:148,19
DA:149,19
DA:150,19
DA:152,19
DA:153,19
DA:155,501
DA:162,501
DA:163,501
DA:164,501
DA:165,501
DA:166,501
DA:167,501
DA:168,501
DA:169,501
DA:170,501
DA:171,501
DA:173,501
DA:174,501
DA:175,501
DA:180,501
DA:181,501
DA:182,501
DA:183,501
DA:184,501
DA:185,501
DA:186,501
DA:187,501
DA:188,501
DA:189,501
DA:191,501
DA:192,501
DA:193,501
DA:198,501
BRF:0
BRH:0
LF:106
LH:95
end_of_record
SF:/var/home/jack/Code/koan/src/builtins/let_binding.rs
FN:193,_RNvNtNtCscUx3zdyuqfq_4koan8builtins11let_binding11binder_name
FN:178,_RNvNtNtCscUx3zdyuqfq_4koan8builtins11let_binding21capitalize_identifier
FN:164,_RNvNtNtCscUx3zdyuqfq_4koan8builtins11let_binding28is_admissible_type_class_rhs
FN:12,_RNvNtNtCscUx3zdyuqfq_4koan8builtins11let_binding4body
FN:201,_RNvNtNtCscUx3zdyuqfq_4koan8builtins11let_binding8register
FN:22,_RNCNvNtNtCscUx3zdyuqfq_4koan8builtins11let_binding4body0B7_
FN:22,_RNCNvNtNtCseriWsCb5ev6_4koan8builtins11let_binding4body0B7_
FN:193,_RNvNtNtCseriWsCb5ev6_4koan8builtins11let_binding11binder_name
FN:178,_RNvNtNtCseriWsCb5ev6_4koan8builtins11let_binding21capitalize_identifier
FN:164,_RNvNtNtCseriWsCb5ev6_4koan8builtins11let_binding28is_admissible_type_class_rhs
FN:12,_RNvNtNtCseriWsCb5ev6_4koan8builtins11let_binding4body
FN:201,_RNvNtNtCseriWsCb5ev6_4koan8builtins11let_binding8register
FNDA:139,_RNvNtNtCscUx3zdyuqfq_4koan8builtins11let_binding11binder_name
FNDA:0,_RNvNtNtCscUx3zdyuqfq_4koan8builtins11let_binding21capitalize_identifier
FNDA:16,_RNvNtNtCscUx3zdyuqfq_4koan8builtins11let_binding28is_admissible_type_class_rhs
FNDA:49,_RNvNtNtCscUx3zdyuqfq_4koan8builtins11let_binding4body
FNDA:40,_RNvNtNtCscUx3zdyuqfq_4koan8builtins11let_binding8register
FNDA:49,_RNCNvNtNtCscUx3zdyuqfq_4koan8builtins11let_binding4body0B7_
FNDA:346,_RNCNvNtNtCseriWsCb5ev6_4koan8builtins11let_binding4body0B7_
FNDA:873,_RNvNtNtCseriWsCb5ev6_4koan8builtins11let_binding11binder_name
FNDA:2,_RNvNtNtCseriWsCb5ev6_4koan8builtins11let_binding21capitalize_identifier
FNDA:109,_RNvNtNtCseriWsCb5ev6_4koan8builtins11let_binding28is_admissible_type_class_rhs
FNDA:347,_RNvNtNtCseriWsCb5ev6_4koan8builtins11let_binding4body
FNDA:461,_RNvNtNtCseriWsCb5ev6_4koan8builtins11let_binding8register
FNF:6
FNH:6
DA:12,396
DA:13,396
DA:14,396
DA:15,396
DA:16,396
DA:20,396
DA:21,396
DA:22,396
DA:23,396
DA:24,396
DA:25,396
DA:26,0
DA:32,396
DA:33,396
DA:34,270
DA:38,270
DA:39,1
DA:40,1
DA:41,268
DA:43,270
DA:44,2
DA:45,2
DA:46,2
DA:47,2
DA:48,2
DA:49,2
DA:50,2
DA:51,2
DA:52,268
DA:53,268
DA:55,96
DA:57,0
DA:58,0
DA:59,0
DA:60,0
DA:63,96
DA:64,96
DA:65,3
DA:66,3
DA:67,3
DA:68,3
DA:69,93
DA:74,93
DA:75,91
DA:76,91
DA:77,93
DA:81,30
DA:88,1
DA:89,1
DA:90,1
DA:91,1
DA:94,29
DA:95,29
DA:96,0
DA:97,0
DA:98,0
DA:99,0
DA:100,29
DA:105,29
DA:106,29
DA:107,29
DA:108,29
DA:111,0
DA:112,0
DA:113,0
DA:114,0
DA:115,0
DA:116,0
DA:118,0
DA:123,390
DA:124,2
DA:125,2
DA:126,2
DA:127,2
DA:128,388
DA:129,388
DA:130,388
DA:131,388
DA:132,388
DA:133,120
DA:134,120
DA:135,120
DA:136,120
DA:137,120
DA:138,120
DA:139,120
DA:143,268
DA:144,2
DA:145,2
DA:146,2
DA:147,2
DA:148,2
DA:149,266
DA:150,266
DA:151,1
DA:152,265
DA:154,385
DA:155,396
DA:164,125
DA:165,125
DA:166,120
DA:167,5
DA:168,5
DA:169,3
DA:170,2
DA:171,2
DA:172,125
DA:178,2
DA:179,2
DA:180,2
DA:181,2
DA:182,2
DA:183,2
DA:184,2
DA:185,2
DA:187,0
DA:189,2
DA:193,1012
DA:194,1012
DA:195,683
DA:196,326
DA:197,3
DA:199,1012
DA:201,501
DA:202,501
DA:203,501
DA:204,501
DA:205,501
DA:206,501
DA:207,501
DA:208,501
DA:209,501
DA:211,501
DA:212,501
DA:214,501
DA:215,501
DA:216,501
DA:217,501
DA:218,501
DA:219,501
DA:220,501
DA:221,501
DA:223,501
DA:224,501
DA:226,501
BRF:0
BRH:0
LF:146
LH:129
end_of_record
SF:/var/home/jack/Code/koan/src/builtins/match_case.rs
FN:95,_RNCNvNtNtCscUx3zdyuqfq_4koan8builtins10match_case4body0B7_
FN:24,_RNvNtNtCscUx3zdyuqfq_4koan8builtins10match_case4body
FN:106,_RNvNtNtCscUx3zdyuqfq_4koan8builtins10match_case8register
FN:95,_RNCNvNtNtCseriWsCb5ev6_4koan8builtins10match_case4body0B7_
FN:24,_RNvNtNtCseriWsCb5ev6_4koan8builtins10match_case4body
FN:106,_RNvNtNtCseriWsCb5ev6_4koan8builtins10match_case8register
FN:125,_RNvNtNtNtCseriWsCb5ev6_4koan8builtins10match_case5tests11run_program
FN:164,_RNvNtNtNtCseriWsCb5ev6_4koan8builtins10match_case5testss_25match_inexhaustive_errors
FN:144,_RNvNtNtNtCseriWsCb5ev6_4koan8builtins10match_case5testss_29match_binds_inner_value_to_it
FN:205,_RNvNtNtNtCseriWsCb5ev6_4koan8builtins10match_case5testss_29recursive_tagged_match_no_uaf
FN:220,_RNvNtNtNtCseriWsCb5ev6_4koan8builtins10match_case5testss_33match_on_bool_inexhaustive_errors
FN:189,_RNvNtNtNtCseriWsCb5ev6_4koan8builtins10match_case5testss_36match_on_bool_true_takes_true_branch
FN:154,_RNvNtNtNtCseriWsCb5ev6_4koan8builtins10match_case5testss_37match_does_not_run_unmatched_branches
FN:197,_RNvNtNtNtCseriWsCb5ev6_4koan8builtins10match_case5testss_38match_on_bool_false_takes_false_branch
FN:134,_RNvNtNtNtCseriWsCb5ev6_4koan8builtins10match_case5testss_40match_dispatches_branch_for_matching_tag
FN:179,_RNvNtNtNtCseriWsCb5ev6_4koan8builtins10match_case5testss_40match_other_branch_runs_when_tag_matches
FN:231,_RNvNtNtNtCseriWsCb5ev6_4koan8builtins10match_case5testss_47multi_statement_match_branch_returns_last_value
FN:246,_RNvNtNtNtCseriWsCb5ev6_4koan8builtins10match_case5testss_59fn_recursion_with_multi_statement_body_via_match_terminates
FNDA:0,_RNCNvNtNtCscUx3zdyuqfq_4koan8builtins10match_case4body0B7_
FNDA:0,_RNvNtNtCscUx3zdyuqfq_4koan8builtins10match_case4body
FNDA:40,_RNvNtNtCscUx3zdyuqfq_4koan8builtins10match_case8register
FNDA:1,_RNCNvNtNtCseriWsCb5ev6_4koan8builtins10match_case4body0B7_
FNDA:69,_RNvNtNtCseriWsCb5ev6_4koan8builtins10match_case4body
FNDA:461,_RNvNtNtCseriWsCb5ev6_4koan8builtins10match_case8register
FNDA:9,_RNvNtNtNtCseriWsCb5ev6_4koan8builtins10match_case5tests11run_program
FNDA:1,_RNvNtNtNtCseriWsCb5ev6_4koan8builtins10match_case5testss_25match_inexhaustive_errors
FNDA:1,_RNvNtNtNtCseriWsCb5ev6_4koan8builtins10match_case5testss_29match_binds_inner_value_to_it
FNDA:1,_RNvNtNtNtCseriWsCb5ev6_4koan8builtins10match_case5testss_29recursive_tagged_match_no_uaf
FNDA:1,_RNvNtNtNtCseriWsCb5ev6_4koan8builtins10match_case5testss_33match_on_bool_inexhaustive_errors
FNDA:1,_RNvNtNtNtCseriWsCb5ev6_4koan8builtins10match_case5testss_36match_on_bool_true_takes_true_branch
FNDA:1,_RNvNtNtNtCseriWsCb5ev6_4koan8builtins10match_case5testss_37match_does_not_run_unmatched_branches
FNDA:1,_RNvNtNtNtCseriWsCb5ev6_4koan8builtins10match_case5testss_38match_on_bool_false_takes_false_branch
FNDA:1,_RNvNtNtNtCseriWsCb5ev6_4koan8builtins10match_case5testss_40match_dispatches_branch_for_matching_tag
FNDA:1,_RNvNtNtNtCseriWsCb5ev6_4koan8builtins10match_case5testss_40match_other_branch_runs_when_tag_matches
FNDA:1,_RNvNtNtNtCseriWsCb5ev6_4koan8builtins10match_case5testss_47multi_statement_match_branch_returns_last_value
FNDA:1,_RNvNtNtNtCseriWsCb5ev6_4koan8builtins10match_case5testss_59fn_recursion_with_multi_statement_body_via_match_terminates
FNF:15
FNH:15
DA:24,69
DA:25,69
DA:26,69
DA:27,69
DA:28,69
DA:29,69
DA:30,62
DA:31,7
DA:32,7
DA:33,7
DA:35,0
DA:36,0
DA:37,0
DA:38,0
DA:39,0
DA:40,0
DA:42,0
DA:44,69
DA:45,69
DA:47,0
DA:48,0
DA:49,0
DA:52,69
DA:53,66
DA:55,3
DA:56,3
DA:57,3
DA:58,3
DA:60,0
DA:63,66
DA:64,66
DA:65,66
DA:68,66
DA:69,66
DA:70,66
DA:73,66
DA:74,66
DA:75,66
DA:76,66
DA:77,66
DA:80,66
DA:81,66
DA:82,66
DA:83,66
DA:84,1
DA:85,1
DA:86,1
DA:87,1
DA:88,1
DA:89,1
DA:90,1
DA:91,1
DA:92,1
DA:93,1
DA:95,1
DA:96,1
DA:97,1
DA:99,1
DA:101,65
DA:102,65
DA:104,69
DA:106,501
DA:107,501
DA:108,501
DA:109,501
DA:110,501
DA:111,501
DA:112,501
DA:113,501
DA:114,501
DA:116,501
DA:118,501
DA:125,9
DA:126,9
DA:127,9
DA:128,9
DA:129,9
DA:130,9
DA:131,9
DA:134,1
DA:135,1
DA:136,1
DA:137,1
DA:138,1
DA:140,1
DA:141,1
DA:144,1
DA:145,1
DA:146,1
DA:147,1
DA:148,1
DA:150,1
DA:151,1
DA:154,1
DA:155,1
DA:156,1
DA:157,1
DA:158,1
DA:160,1
DA:161,1
DA:164,1
DA:165,1
DA:166,1
DA:167,1
DA:168,1
DA:169,1
DA:171,1
DA:172,1
DA:173,1
DA:176,1
DA:179,1
DA:180,1
DA:181,1
DA:182,1
DA:183,1
DA:185,1
DA:186,1
DA:189,1
DA:190,1
DA:191,1
DA:193,1
DA:194,1
DA:197,1
DA:198,1
DA:199,1
DA:201,1
DA:202,1
DA:205,1
DA:208,1
DA:209,1
DA:210,1
DA:211,1
DA:212,1
DA:213,1
DA:214,1
DA:216,1
DA:217,1
DA:220,1
DA:221,1
DA:222,1
DA:223,1
DA:224,1
DA:225,1
DA:228,1
DA:231,1
DA:232,1
DA:233,1
DA:234,1
DA:235,1
DA:236,1
DA:237,1
DA:238,1
DA:240,1
DA:241,1
DA:242,1
DA:243,1
DA:246,1
DA:247,1
DA:248,1
DA:249,1
DA:250,1
DA:251,1
DA:252,1
DA:253,1
DA:254,1
DA:255,1
DA:256,1
DA:258,1
DA:259,1
DA:260,1
BRF:0
BRH:0
LF:171
LH:160
end_of_record
SF:/var/home/jack/Code/koan/src/builtins/module_def.rs
FN:110,_RNvNtNtCscUx3zdyuqfq_4koan8builtins10module_def11binder_name
FN:23,_RNvNtNtCscUx3zdyuqfq_4koan8builtins10module_def4body
FN:114,_RNvNtNtCscUx3zdyuqfq_4koan8builtins10module_def8register
FN:53,_RNCNvNtNtCscUx3zdyuqfq_4koan8builtins10module_def4body0B7_
FN:56,_RNCNvNtNtCscUx3zdyuqfq_4koan8builtins10module_def4bodys_0B7_
FN:138,_RNvNtNtNtCseriWsCb5ev6_4koan8builtins10module_def5tests14resolve_module
FN:200,_RNvNtNtNtCseriWsCb5ev6_4koan8builtins10module_def5testss_28module_unknown_member_errors
FN:165,_RNvNtNtNtCseriWsCb5ev6_4koan8builtins10module_def5testss_29module_member_access_via_attr
FN:146,_RNvNtNtNtCseriWsCb5ev6_4koan8builtins10module_def5testss_32binder_name_extracts_module_name
FN:153,_RNvNtNtNtCseriWsCb5ev6_4koan8builtins10module_def5testss_32module_binds_under_name_in_scope
FN:186,_RNvNtNtNtCseriWsCb5ev6_4koan8builtins10module_def5testss_33module_member_function_via_let_fn
FN:272,_RNvNtNtNtCseriWsCb5ev6_4koan8builtins10module_def5testss_36module_body_dispatch_does_not_dangle
FN:227,_RNvNtNtNtCseriWsCb5ev6_4koan8builtins10module_def5testss_38module_body_parks_on_outer_placeholder
FN:237,_RNvNtNtNtCseriWsCb5ev6_4koan8builtins10module_def5testss_41module_body_error_short_circuits_finalize
FN:174,_RNvNtNtNtCseriWsCb5ev6_4koan8builtins10module_def5testss_41module_with_multiple_statements_in_parens
FN:213,_RNvNtNtNtCseriWsCb5ev6_4koan8builtins10module_def5testss_41nested_module_accessible_via_chained_attr
FN:251,_RNvNtNtNtCseriWsCb5ev6_4koan8builtins10module_def5testss_50module_finalize_short_circuits_on_idempotent_state
FN:53,_RNCNvNtNtCseriWsCb5ev6_4koan8builtins10module_def4body0B7_
FN:56,_RNCNvNtNtCseriWsCb5ev6_4koan8builtins10module_def4bodys_0B7_
FN:110,_RNvNtNtCseriWsCb5ev6_4koan8builtins10module_def11binder_name
FN:23,_RNvNtNtCseriWsCb5ev6_4koan8builtins10module_def4body
FN:114,_RNvNtNtCseriWsCb5ev6_4koan8builtins10module_def8register
FNDA:30,_RNvNtNtCscUx3zdyuqfq_4koan8builtins10module_def11binder_name
FNDA:17,_RNvNtNtCscUx3zdyuqfq_4koan8builtins10module_def4body
FNDA:40,_RNvNtNtCscUx3zdyuqfq_4koan8builtins10module_def8register
FNDA:17,_RNCNvNtNtCscUx3zdyuqfq_4koan8builtins10module_def4body0B7_
FNDA:16,_RNCNvNtNtCscUx3zdyuqfq_4koan8builtins10module_def4bodys_0B7_
FNDA:3,_RNvNtNtNtCseriWsCb5ev6_4koan8builtins10module_def5tests14resolve_module
FNDA:1,_RNvNtNtNtCseriWsCb5ev6_4koan8builtins10module_def5testss_28module_unknown_member_errors
FNDA:1,_RNvNtNtNtCseriWsCb5ev6_4koan8builtins10module_def5testss_29module_member_access_via_attr
FNDA:1,_RNvNtNtNtCseriWsCb5ev6_4koan8builtins10module_def5testss_32binder_name_extracts_module_name
FNDA:1,_RNvNtNtNtCseriWsCb5ev6_4koan8builtins10module_def5testss_32module_binds_under_name_in_scope
FNDA:1,_RNvNtNtNtCseriWsCb5ev6_4koan8builtins10module_def5testss_33module_member_function_via_let_fn
FNDA:1,_RNvNtNtNtCseriWsCb5ev6_4koan8builtins10module_def5testss_36module_body_dispatch_does_not_dangle
FNDA:1,_RNvNtNtNtCseriWsCb5ev6_4koan8builtins10module_def5testss_38module_body_parks_on_outer_placeholder
FNDA:1,_RNvNtNtNtCseriWsCb5ev6_4koan8builtins10module_def5testss_41module_body_error_short_circuits_finalize
FNDA:1,_RNvNtNtNtCseriWsCb5ev6_4koan8builtins10module_def5testss_41module_with_multiple_statements_in_parens
FNDA:1,_RNvNtNtNtCseriWsCb5ev6_4koan8builtins10module_def5testss_41nested_module_accessible_via_chained_attr
FNDA:1,_RNvNtNtNtCseriWsCb5ev6_4koan8builtins10module_def5testss_50module_finalize_short_circuits_on_idempotent_state
FNDA:79,_RNCNvNtNtCseriWsCb5ev6_4koan8builtins10module_def4body0B7_
FNDA:77,_RNCNvNtNtCseriWsCb5ev6_4koan8builtins10module_def4bodys_0B7_
FNDA:139,_RNvNtNtCseriWsCb5ev6_4koan8builtins10module_def11binder_name
FNDA:79,_RNvNtNtCseriWsCb5ev6_4koan8builtins10module_def4body
FNDA:461,_RNvNtNtCseriWsCb5ev6_4koan8builtins10module_def8register
FNF:17
FNH:17
DA:23,96
DA:24,96
DA:25,96
DA:26,96
DA:27,96
DA:29,96
DA:30,96
DA:31,0
DA:33,96
DA:34,96
DA:36,0
DA:37,0
DA:38,0
DA:42,96
DA:43,96
DA:45,96
DA:49,96
DA:51,96
DA:52,96
DA:53,96
DA:54,96
DA:55,96
DA:56,96
DA:60,93
DA:61,93
DA:62,1
DA:63,92
DA:64,92
DA:65,92
DA:66,92
DA:74,92
DA:75,92
DA:76,92
DA:77,92
DA:78,92
DA:79,21
DA:80,0
DA:81,21
DA:82,21
DA:85,92
DA:86,92
DA:87,92
DA:88,92
DA:95,92
DA:96,92
DA:97,92
DA:98,92
DA:99,92
DA:100,0
DA:101,0
DA:102,0
DA:104,93
DA:105,96
DA:106,96
DA:107,96
DA:110,169
DA:111,169
DA:112,169
DA:114,501
DA:115,501
DA:116,501
DA:117,501
DA:118,501
DA:119,501
DA:120,501
DA:121,501
DA:122,501
DA:124,501
DA:125,501
DA:127,501
DA:138,3
DA:139,3
DA:140,3
DA:141,0
DA:143,3
DA:146,1
DA:147,1
DA:148,1
DA:149,1
DA:150,1
DA:153,1
DA:154,1
DA:155,1
DA:156,1
DA:157,1
DA:158,1
DA:159,1
DA:162,1
DA:165,1
DA:166,1
DA:167,1
DA:168,1
DA:169,1
DA:170,1
DA:171,1
DA:174,1
DA:175,1
DA:176,1
DA:177,1
DA:178,1
DA:179,1
DA:181,1
DA:182,1
DA:183,1
DA:186,1
DA:189,1
DA:190,1
DA:191,1
DA:192,1
DA:193,1
DA:195,1
DA:196,1
DA:197,1
DA:200,1
DA:201,1
DA:202,1
DA:203,1
DA:204,1
DA:205,1
DA:206,1
DA:207,1
DA:210,1
DA:213,1
DA:214,1
DA:215,1
DA:216,1
DA:217,1
DA:218,1
DA:220,1
DA:221,1
DA:222,1
DA:227,1
DA:228,1
DA:229,1
DA:230,1
DA:231,1
DA:232,1
DA:233,1
DA:237,1
DA:238,1
DA:239,1
DA:240,1
DA:241,1
DA:242,1
DA:245,1
DA:251,1
DA:252,1
DA:253,1
DA:254,1
DA:255,1
DA:256,1
DA:258,1
DA:259,1
DA:263,1
DA:264,1
DA:265,1
DA:266,1
DA:267,1
DA:272,1
DA:273,1
DA:274,1
DA:275,1
DA:276,1
DA:277,1
DA:278,1
DA:279,1
DA:280,1
BRF:0
BRH:0
LF:169
LH:160
end_of_record
SF:/var/home/jack/Code/koan/src/builtins/newtype_def.rs
FN:129,_RNCNvNtNtCscUx3zdyuqfq_4koan8builtins11newtype_def17newtype_construct0B7_
FN:87,_RNCNvNtNtCscUx3zdyuqfq_4koan8builtins11newtype_def4body0B7_
FN:105,_RNvNtNtCscUx3zdyuqfq_4koan8builtins11newtype_def11binder_name
FN:118,_RNvNtNtCscUx3zdyuqfq_4koan8builtins11newtype_def17newtype_construct
FN:27,_RNvNtNtCscUx3zdyuqfq_4koan8builtins11newtype_def4body
FN:156,_RNvNtNtCscUx3zdyuqfq_4koan8builtins11newtype_def8register
FN:105,_RNvNtNtCseriWsCb5ev6_4koan8builtins11newtype_def11binder_name
FN:118,_RNvNtNtCseriWsCb5ev6_4koan8builtins11newtype_def17newtype_construct
FN:27,_RNvNtNtCseriWsCb5ev6_4koan8builtins11newtype_def4body
FN:156,_RNvNtNtCseriWsCb5ev6_4koan8builtins11newtype_def8register
FN:129,_RNCNvNtNtCseriWsCb5ev6_4koan8builtins11newtype_def17newtype_construct0B7_
FN:87,_RNCNvNtNtCseriWsCb5ev6_4koan8builtins11newtype_def4body0B7_
FN:344,_RNvNtNtNtCseriWsCb5ev6_4koan8builtins11newtype_def5testss_28construct_arity_zero_rejects
FN:359,_RNvNtNtNtCseriWsCb5ev6_4koan8builtins11newtype_def5testss_29construct_with_operator_value
FN:186,_RNvNtNtNtCseriWsCb5ev6_4koan8builtins11newtype_def5testss_30declare_mints_newtype_identity
FN:254,_RNvNtNtNtCseriWsCb5ev6_4koan8builtins11newtype_def5testss_30newtype_over_newtype_collapses
FN:325,_RNvNtNtNtCseriWsCb5ev6_4koan8builtins11newtype_def5testss_31construct_with_identifier_value
FN:239,_RNvNtNtNtCseriWsCb5ev6_4koan8builtins11newtype_def5testss_35construct_rejects_non_matching_repr
FN:216,_RNvNtNtNtCseriWsCb5ev6_4koan8builtins11newtype_def5testss_35construct_wraps_repr_matching_value
FN:283,_RNvNtNtNtCseriWsCb5ev6_4koan8builtins11newtype_def5testss_43dispatch_distinguishes_distance_from_number
FNDA:0,_RNCNvNtNtCscUx3zdyuqfq_4koan8builtins11newtype_def17newtype_construct0B7_
FNDA:0,_RNCNvNtNtCscUx3zdyuqfq_4koan8builtins11newtype_def4body0B7_
FNDA:0,_RNvNtNtCscUx3zdyuqfq_4koan8builtins11newtype_def11binder_name
FNDA:0,_RNvNtNtCscUx3zdyuqfq_4koan8builtins11newtype_def17newtype_construct
FNDA:0,_RNvNtNtCscUx3zdyuqfq_4koan8builtins11newtype_def4body
FNDA:40,_RNvNtNtCscUx3zdyuqfq_4koan8builtins11newtype_def8register
FNDA:24,_RNvNtNtCseriWsCb5ev6_4koan8builtins11newtype_def11binder_name
FNDA:12,_RNvNtNtCseriWsCb5ev6_4koan8builtins11newtype_def17newtype_construct
FNDA:12,_RNvNtNtCseriWsCb5ev6_4koan8builtins11newtype_def4body
FNDA:461,_RNvNtNtCseriWsCb5ev6_4koan8builtins11newtype_def8register
FNDA:11,_RNCNvNtNtCseriWsCb5ev6_4koan8builtins11newtype_def17newtype_construct0B7_
FNDA:12,_RNCNvNtNtCseriWsCb5ev6_4koan8builtins11newtype_def4body0B7_
FNDA:1,_RNvNtNtNtCseriWsCb5ev6_4koan8builtins11newtype_def5testss_28construct_arity_zero_rejects
FNDA:1,_RNvNtNtNtCseriWsCb5ev6_4koan8builtins11newtype_def5testss_29construct_with_operator_value
FNDA:1,_RNvNtNtNtCseriWsCb5ev6_4koan8builtins11newtype_def5testss_30declare_mints_newtype_identity
FNDA:1,_RNvNtNtNtCseriWsCb5ev6_4koan8builtins11newtype_def5testss_30newtype_over_newtype_collapses
FNDA:1,_RNvNtNtNtCseriWsCb5ev6_4koan8builtins11newtype_def5testss_31construct_with_identifier_value
FNDA:1,_RNvNtNtNtCseriWsCb5ev6_4koan8builtins11newtype_def5testss_35construct_rejects_non_matching_repr
FNDA:1,_RNvNtNtNtCseriWsCb5ev6_4koan8builtins11newtype_def5testss_35construct_wraps_repr_matching_value
FNDA:1,_RNvNtNtNtCseriWsCb5ev6_4koan8builtins11newtype_def5testss_43dispatch_distinguishes_distance_from_number
FNF:14
FNH:14
DA:27,12
DA:28,12
DA:29,12
DA:30,12
DA:31,12
DA:32,12
DA:33,12
DA:34,0
DA:39,12
DA:40,9
DA:41,9
DA:42,0
DA:48,3
DA:49,3
DA:50,0
DA:52,3
DA:53,0
DA:54,0
DA:55,0
DA:56,0
DA:57,3
DA:58,3
DA:59,3
DA:61,0
DA:62,0
DA:63,0
DA:64,0
DA:69,0
DA:70,0
DA:71,0
DA:77,12
DA:78,12
DA:79,12
DA:80,12
DA:81,12
DA:82,12
DA:83,12
DA:84,12
DA:85,12
DA:86,12
DA:87,12
DA:88,12
DA:89,12
DA:91,12
DA:92,12
DA:97,0
DA:98,0
DA:99,0
DA:100,0
DA:102,12
DA:105,24
DA:106,24
DA:107,24
DA:118,12
DA:119,12
DA:120,12
DA:121,12
DA:122,12
DA:123,12
DA:124,12
DA:125,1
DA:126,11
DA:127,11
DA:128,11
DA:129,11
DA:130,11
DA:131,11
DA:133,11
DA:134,11
DA:135,0
DA:137,11
DA:138,1
DA:139,1
DA:140,1
DA:141,1
DA:142,1
DA:143,10
DA:146,10
DA:147,10
DA:148,10
DA:149,10
DA:150,10
DA:151,11
DA:152,11
DA:153,11
DA:154,12
DA:156,501
DA:159,501
DA:160,501
DA:161,501
DA:162,501
DA:163,501
DA:164,501
DA:165,501
DA:166,501
DA:168,501
DA:169,501
DA:171,501
DA:186,1
DA:187,1
DA:188,1
DA:189,1
DA:190,1
DA:191,1
DA:192,1
DA:193,1
DA:194,1
DA:196,1
DA:197,1
DA:200,1
DA:201,1
DA:203,0
DA:205,1
DA:206,1
DA:207,1
DA:208,1
DA:211,1
DA:216,1
DA:217,1
DA:218,1
DA:219,1
DA:220,1
DA:221,1
DA:222,1
DA:223,1
DA:226,1
DA:228,1
DA:229,0
DA:231,1
DA:233,0
DA:235,1
DA:239,1
DA:240,1
DA:241,1
DA:242,1
DA:243,1
DA:244,1
DA:245,1
DA:246,1
DA:249,1
DA:254,1
DA:255,1
DA:256,1
DA:257,1
DA:258,1
DA:259,1
DA:260,1
DA:261,1
DA:262,1
DA:263,0
DA:266,1
DA:267,1
DA:269,0
DA:272,0
DA:274,1
DA:283,1
DA:284,1
DA:285,1
DA:286,1
DA:287,1
DA:288,1
DA:289,1
DA:290,1
DA:292,1
DA:293,1
DA:294,1
DA:295,0
DA:297,1
DA:298,1
DA:299,1
DA:300,0
DA:302,1
DA:303,1
DA:304,1
DA:305,1
DA:306,1
DA:307,1
DA:308,1
DA:311,1
DA:312,1
DA:313,1
DA:314,1
DA:315,1
DA:316,1
DA:317,1
DA:320,1
DA:325,1
DA:326,1
DA:327,1
DA:328,1
DA:329,1
DA:330,1
DA:331,1
DA:332,1
DA:333,1
DA:334,0
DA:336,1
DA:338,0
DA:340,1
DA:344,1
DA:345,1
DA:346,1
DA:347,1
DA:348,1
DA:349,1
DA:350,1
DA:353,1
DA:359,1
DA:360,1
DA:361,1
DA:362,1
DA:363,1
DA:364,1
DA:365,1
DA:367,1
DA:368,1
DA:369,1
DA:370,1
DA:371,1
DA:372,0
DA:374,1
DA:376,0
DA:378,1
BRF:0
BRH:0
LF:225
LH:194
end_of_record
SF:/var/home/jack/Code/koan/src/builtins/print.rs
FN:10,_RNvNtNtCscUx3zdyuqfq_4koan8builtins5print4body
FN:24,_RNvNtNtCscUx3zdyuqfq_4koan8builtins5print8register
FN:10,_RNvNtNtCseriWsCb5ev6_4koan8builtins5print4body
FN:24,_RNvNtNtCseriWsCb5ev6_4koan8builtins5print8register
FNDA:6,_RNvNtNtCscUx3zdyuqfq_4koan8builtins5print4body
FNDA:40,_RNvNtNtCscUx3zdyuqfq_4koan8builtins5print8register
FNDA:126,_RNvNtNtCseriWsCb5ev6_4koan8builtins5print4body
FNDA:461,_RNvNtNtCseriWsCb5ev6_4koan8builtins5print8register
FNF:2
FNH:2
DA:10,132
DA:11,132
DA:12,132
DA:13,132
DA:14,132
DA:15,132
DA:16,132
DA:17,0
DA:19,132
DA:20,132
DA:21,132
DA:22,132
DA:24,501
DA:25,501
DA:26,501
DA:27,501
DA:28,501
DA:29,501
DA:31,501
BRF:0
BRH:0
LF:19
LH:18
end_of_record
SF:/var/home/jack/Code/koan/src/builtins/quote.rs
FN:12,_RNvNtNtCscUx3zdyuqfq_4koan8builtins5quote4body
FN:29,_RNvNtNtCscUx3zdyuqfq_4koan8builtins5quote8register
FN:43,_RNvNtNtNtCseriWsCb5ev6_4koan8builtins5quote5tests11run_program
FN:52,_RNvNtNtNtCseriWsCb5ev6_4koan8builtins5quote5testss_26quote_then_eval_round_trip
FN:61,_RNvNtNtNtCseriWsCb5ev6_4koan8builtins5quote5testss_27quote_captures_ast_as_value
FN:12,_RNvNtNtCseriWsCb5ev6_4koan8builtins5quote4body
FN:29,_RNvNtNtCseriWsCb5ev6_4koan8builtins5quote8register
FNDA:0,_RNvNtNtCscUx3zdyuqfq_4koan8builtins5quote4body
FNDA:40,_RNvNtNtCscUx3zdyuqfq_4koan8builtins5quote8register
FNDA:2,_RNvNtNtNtCseriWsCb5ev6_4koan8builtins5quote5tests11run_program
FNDA:1,_RNvNtNtNtCseriWsCb5ev6_4koan8builtins5quote5testss_26quote_then_eval_round_trip
FNDA:1,_RNvNtNtNtCseriWsCb5ev6_4koan8builtins5quote5testss_27quote_captures_ast_as_value
FNDA:9,_RNvNtNtCseriWsCb5ev6_4koan8builtins5quote4body
FNDA:461,_RNvNtNtCseriWsCb5ev6_4koan8builtins5quote8register
FNF:5
FNH:5
DA:12,9
DA:13,9
DA:14,9
DA:15,9
DA:16,9
DA:17,9
DA:18,9
DA:20,0
DA:21,0
DA:22,0
DA:25,9
DA:26,9
DA:27,9
DA:29,501
DA:30,501
DA:31,501
DA:32,501
DA:33,501
DA:34,501
DA:36,501
DA:43,2
DA:44,2
DA:45,2
DA:46,2
DA:47,2
DA:48,2
DA:49,2
DA:52,1
DA:53,1
DA:54,1
DA:55,1
DA:57,1
DA:58,1
DA:61,1
DA:62,1
DA:63,1
DA:64,1
BRF:0
BRH:0
LF:37
LH:34
end_of_record
SF:/var/home/jack/Code/koan/src/builtins/result.rs
FN:20,_RNvNtNtCscUx3zdyuqfq_4koan8builtins6result8register
FN:20,_RNvNtNtCseriWsCb5ev6_4koan8builtins6result8register
FNDA:40,_RNvNtNtCscUx3zdyuqfq_4koan8builtins6result8register
FNDA:461,_RNvNtNtCseriWsCb5ev6_4koan8builtins6result8register
FNF:1
FNH:1
DA:20,501
DA:21,501
DA:22,501
DA:23,501
DA:24,501
DA:25,501
DA:26,501
DA:27,501
DA:28,501
DA:29,501
DA:30,501
DA:31,501
DA:32,501
DA:36,501
DA:37,501
BRF:0
BRH:0
LF:15
LH:15
end_of_record
SF:/var/home/jack/Code/koan/src/builtins/sig_def.rs
FN:50,_RNCNvNtNtCscUx3zdyuqfq_4koan8builtins7sig_def4body0B7_
FN:53,_RNCNvNtNtCscUx3zdyuqfq_4koan8builtins7sig_def4bodys_0B7_
FN:78,_RNvNtNtCscUx3zdyuqfq_4koan8builtins7sig_def11binder_name
FN:25,_RNvNtNtCscUx3zdyuqfq_4koan8builtins7sig_def4body
FN:82,_RNvNtNtCscUx3zdyuqfq_4koan8builtins7sig_def8register
FN:50,_RNCNvNtNtCseriWsCb5ev6_4koan8builtins7sig_def4body0B7_
FN:53,_RNCNvNtNtCseriWsCb5ev6_4koan8builtins7sig_def4bodys_0B7_
FN:127,_RNvNtNtNtCseriWsCb5ev6_4koan8builtins7sig_def5testss_21sig_path_records_name
FN:105,_RNvNtNtNtCseriWsCb5ev6_4koan8builtins7sig_def5testss_29binder_name_extracts_sig_name
FN:113,_RNvNtNtNtCseriWsCb5ev6_4koan8builtins7sig_def5testss_29sig_binds_under_name_in_scope
FN:142,_RNvNtNtNtCseriWsCb5ev6_4koan8builtins7sig_def5testss_35sig_body_parks_on_outer_placeholder
FN:163,_RNvNtNtNtCseriWsCb5ev6_4koan8builtins7sig_def5testss_38sig_body_error_short_circuits_finalize
FN:78,_RNvNtNtCseriWsCb5ev6_4koan8builtins7sig_def11binder_name
FN:25,_RNvNtNtCseriWsCb5ev6_4koan8builtins7sig_def4body
FN:82,_RNvNtNtCseriWsCb5ev6_4koan8builtins7sig_def8register
FNDA:13,_RNCNvNtNtCscUx3zdyuqfq_4koan8builtins7sig_def4body0B7_
FNDA:13,_RNCNvNtNtCscUx3zdyuqfq_4koan8builtins7sig_def4bodys_0B7_
FNDA:26,_RNvNtNtCscUx3zdyuqfq_4koan8builtins7sig_def11binder_name
FNDA:13,_RNvNtNtCscUx3zdyuqfq_4koan8builtins7sig_def4body
FNDA:40,_RNvNtNtCscUx3zdyuqfq_4koan8builtins7sig_def8register
FNDA:65,_RNCNvNtNtCseriWsCb5ev6_4koan8builtins7sig_def4body0B7_
FNDA:63,_RNCNvNtNtCseriWsCb5ev6_4koan8builtins7sig_def4bodys_0B7_
FNDA:1,_RNvNtNtNtCseriWsCb5ev6_4koan8builtins7sig_def5testss_21sig_path_records_name
FNDA:1,_RNvNtNtNtCseriWsCb5ev6_4koan8builtins7sig_def5testss_29binder_name_extracts_sig_name
FNDA:1,_RNvNtNtNtCseriWsCb5ev6_4koan8builtins7sig_def5testss_29sig_binds_under_name_in_scope
FNDA:1,_RNvNtNtNtCseriWsCb5ev6_4koan8builtins7sig_def5testss_35sig_body_parks_on_outer_placeholder
FNDA:1,_RNvNtNtNtCseriWsCb5ev6_4koan8builtins7sig_def5testss_38sig_body_error_short_circuits_finalize
FNDA:131,_RNvNtNtCseriWsCb5ev6_4koan8builtins7sig_def11binder_name
FNDA:65,_RNvNtNtCseriWsCb5ev6_4koan8builtins7sig_def4body
FNDA:461,_RNvNtNtCseriWsCb5ev6_4koan8builtins7sig_def8register
FNF:10
FNH:10
DA:25,78
DA:26,78
DA:27,78
DA:28,78
DA:29,78
DA:30,78
DA:31,78
DA:32,0
DA:34,78
DA:35,78
DA:37,0
DA:38,0
DA:39,0
DA:43,78
DA:44,78
DA:46,78
DA:48,78
DA:49,78
DA:50,78
DA:51,78
DA:52,78
DA:53,78
DA:54,76
DA:55,76
DA:56,76
DA:64,76
DA:65,76
DA:66,76
DA:67,0
DA:68,0
DA:69,0
DA:71,76
DA:72,78
DA:73,78
DA:74,78
DA:78,157
DA:79,157
DA:80,157
DA:82,501
DA:83,501
DA:84,501
DA:85,501
DA:86,501
DA:87,501
DA:88,501
DA:89,501
DA:90,501
DA:92,501
DA:93,501
DA:95,501
DA:105,1
DA:106,1
DA:107,1
DA:108,1
DA:109,1
DA:110,1
DA:113,1
DA:115,1
DA:116,1
DA:117,1
DA:119,1
DA:120,1
DA:121,1
DA:124,1
DA:127,1
DA:129,1
DA:130,1
DA:131,1
DA:132,1
DA:133,1
DA:134,0
DA:136,1
DA:137,1
DA:142,1
DA:143,1
DA:144,1
DA:145,1
DA:147,1
DA:148,1
DA:149,0
DA:151,1
DA:152,1
DA:153,1
DA:154,1
DA:156,0
DA:158,1
DA:163,1
DA:164,1
DA:165,1
DA:166,1
DA:167,1
DA:168,1
DA:171,1
BRF:0
BRH:0
LF:95
LH:85
end_of_record
SF:/var/home/jack/Code/koan/src/builtins/struct_def.rs
FN:164,_RNCNvNtNtCscUx3zdyuqfq_4koan8builtins10struct_def24defer_struct_via_combine0B7_
FN:72,_RNCNvNtNtCscUx3zdyuqfq_4koan8builtins10struct_def4body0B7_
FN:209,_RNvNtNtCscUx3zdyuqfq_4koan8builtins10struct_def11binder_name
FN:94,_RNvNtNtCscUx3zdyuqfq_4koan8builtins10struct_def15finalize_struct
FN:142,_RNvNtNtCscUx3zdyuqfq_4koan8builtins10struct_def24defer_struct_via_combine
FN:25,_RNvNtNtCscUx3zdyuqfq_4koan8builtins10struct_def4body
FN:213,_RNvNtNtCscUx3zdyuqfq_4koan8builtins10struct_def8register
FN:164,_RNCNvNtNtCseriWsCb5ev6_4koan8builtins10struct_def24defer_struct_via_combine0B7_
FN:72,_RNCNvNtNtCseriWsCb5ev6_4koan8builtins10struct_def4body0B7_
FN:209,_RNvNtNtCseriWsCb5ev6_4koan8builtins10struct_def11binder_name
FN:94,_RNvNtNtCseriWsCb5ev6_4koan8builtins10struct_def15finalize_struct
FN:142,_RNvNtNtCseriWsCb5ev6_4koan8builtins10struct_def24defer_struct_via_combine
FN:25,_RNvNtNtCseriWsCb5ev6_4koan8builtins10struct_def4body
FN:213,_RNvNtNtCseriWsCb5ev6_4koan8builtins10struct_def8register
FNDA:1,_RNCNvNtNtCscUx3zdyuqfq_4koan8builtins10struct_def24defer_struct_via_combine0B7_
FNDA:4,_RNCNvNtNtCscUx3zdyuqfq_4koan8builtins10struct_def4body0B7_
FNDA:8,_RNvNtNtCscUx3zdyuqfq_4koan8builtins10struct_def11binder_name
FNDA:4,_RNvNtNtCscUx3zdyuqfq_4koan8builtins10struct_def15finalize_struct
FNDA:1,_RNvNtNtCscUx3zdyuqfq_4koan8builtins10struct_def24defer_struct_via_combine
FNDA:4,_RNvNtNtCscUx3zdyuqfq_4koan8builtins10struct_def4body
FNDA:40,_RNvNtNtCscUx3zdyuqfq_4koan8builtins10struct_def8register
FNDA:6,_RNCNvNtNtCseriWsCb5ev6_4koan8builtins10struct_def24defer_struct_via_combine0B7_
FNDA:52,_RNCNvNtNtCseriWsCb5ev6_4koan8builtins10struct_def4body0B7_
FNDA:105,_RNvNtNtCseriWsCb5ev6_4koan8builtins10struct_def11binder_name
FNDA:50,_RNvNtNtCseriWsCb5ev6_4koan8builtins10struct_def15finalize_struct
FNDA:6,_RNvNtNtCseriWsCb5ev6_4koan8builtins10struct_def24defer_struct_via_combine
FNDA:52,_RNvNtNtCseriWsCb5ev6_4koan8builtins10struct_def4body
FNDA:461,_RNvNtNtCseriWsCb5ev6_4koan8builtins10struct_def8register
FNF:7
FNH:7
DA:25,56
DA:26,56
DA:27,56
DA:28,56
DA:29,56
DA:30,56
DA:31,56
DA:32,0
DA:34,56
DA:35,56
DA:37,0
DA:38,0
DA:39,0
DA:46,56
DA:47,56
DA:48,56
DA:49,56
DA:50,56
DA:51,56
DA:52,56
DA:53,56
DA:54,56
DA:59,56
DA:60,56
DA:61,56
DA:62,56
DA:63,56
DA:64,56
DA:65,56
DA:70,56
DA:71,56
DA:72,56
DA:73,56
DA:74,56
DA:75,45
DA:76,4
DA:77,7
DA:78,7
DA:79,7
DA:80,7
DA:81,7
DA:82,7
DA:83,7
DA:84,7
DA:85,7
DA:88,56
DA:94,54
DA:95,54
DA:96,54
DA:97,54
DA:98,54
DA:99,54
DA:104,54
DA:105,10
DA:106,54
DA:108,10
DA:109,1
DA:110,1
DA:111,1
DA:112,1
DA:113,1
DA:114,9
DA:115,44
DA:116,53
DA:117,1
DA:118,1
DA:119,1
DA:120,52
DA:121,52
DA:122,52
DA:123,52
DA:124,52
DA:125,52
DA:126,52
DA:127,52
DA:128,52
DA:129,0
DA:131,54
DA:142,7
DA:143,7
DA:144,7
DA:145,7
DA:146,7
DA:147,7
DA:148,7
DA:149,7
DA:150,7
DA:151,7
DA:153,7
DA:156,7
DA:157,7
DA:158,7
DA:159,7
DA:160,2
DA:161,2
DA:162,2
DA:163,2
DA:164,7
DA:166,7
DA:169,7
DA:170,7
DA:171,2
DA:172,2
DA:173,0
DA:174,0
DA:175,0
DA:176,0
DA:177,0
DA:178,2
DA:179,2
DA:181,7
DA:184,7
DA:185,7
DA:186,7
DA:187,7
DA:188,7
DA:189,7
DA:190,7
DA:191,7
DA:193,0
DA:194,0
DA:195,0
DA:196,0
DA:197,0
DA:198,0
DA:199,0
DA:201,7
DA:202,7
DA:203,7
DA:204,7
DA:209,113
DA:210,113
DA:211,113
DA:213,501
DA:214,501
DA:215,501
DA:216,501
DA:217,501
DA:218,501
DA:219,501
DA:220,501
DA:221,501
DA:223,501
DA:224,501
DA:226,501
BRF:0
BRH:0
LF:147
LH:130
end_of_record
SF:/var/home/jack/Code/koan/src/builtins/test_support.rs
FN:114,_RNCNCNCNvNtNtCseriWsCb5ev6_4koan8builtins12test_support16fn_is_registered000Bb_
FN:113,_RNCNCNvNtNtCseriWsCb5ev6_4koan8builtins12test_support16fn_is_registered00B9_
FN:112,_RNCNvNtNtCseriWsCb5ev6_4koan8builtins12test_support16fn_is_registered0B7_
FN:96,_RNCNvNtNtCseriWsCb5ev6_4koan8builtins12test_support9lookup_fn0B7_
FN:106,_RNCNvNtNtCseriWsCb5ev6_4koan8builtins12test_support9lookup_fns_0B7_
FN:68,_RNvNtNtCseriWsCb5ev6_4koan8builtins12test_support11run_one_err
FN:129,_RNvNtNtCseriWsCb5ev6_4koan8builtins12test_support12one_slot_sig
FN:46,_RNvNtNtCseriWsCb5ev6_4koan8builtins12test_support13run_root_bare
FN:40,_RNvNtNtCseriWsCb5ev6_4koan8builtins12test_support15run_root_silent
FN:111,_RNvNtNtCseriWsCb5ev6_4koan8builtins12test_support16fn_is_registered
FN:32,_RNvNtNtCseriWsCb5ev6_4koan8builtins12test_support17run_root_with_buf
FN:81,_RNvNtNtCseriWsCb5ev6_4koan8builtins12test_support3run
FN:124,_RNvNtNtCseriWsCb5ev6_4koan8builtins12test_support6marker
FN:60,_RNvNtNtCseriWsCb5ev6_4koan8builtins12test_support7run_one
FN:92,_RNvNtNtCseriWsCb5ev6_4koan8builtins12test_support9lookup_fn
FN:51,_RNvNtNtCseriWsCb5ev6_4koan8builtins12test_support9parse_one
FN:27,_RNvXNtNtCseriWsCb5ev6_4koan8builtins12test_supportNtB2_9SharedBufNtNtCs75vJTIYSa2J_3std2io5Write5flush
FN:23,_RNvXNtNtCseriWsCb5ev6_4koan8builtins12test_supportNtB2_9SharedBufNtNtCs75vJTIYSa2J_3std2io5Write5write
FNDA:285,_RNCNCNCNvNtNtCseriWsCb5ev6_4koan8builtins12test_support16fn_is_registered000Bb_
FNDA:271,_RNCNCNvNtNtCseriWsCb5ev6_4koan8builtins12test_support16fn_is_registered00B9_
FNDA:207,_RNCNvNtNtCseriWsCb5ev6_4koan8builtins12test_support16fn_is_registered0B7_
FNDA:779,_RNCNvNtNtCseriWsCb5ev6_4koan8builtins12test_support9lookup_fn0B7_
FNDA:0,_RNCNvNtNtCseriWsCb5ev6_4koan8builtins12test_support9lookup_fns_0B7_
FNDA:44,_RNvNtNtCseriWsCb5ev6_4koan8builtins12test_support11run_one_err
FNDA:4,_RNvNtNtCseriWsCb5ev6_4koan8builtins12test_support12one_slot_sig
FNDA:63,_RNvNtNtCseriWsCb5ev6_4koan8builtins12test_support13run_root_bare
FNDA:229,_RNvNtNtCseriWsCb5ev6_4koan8builtins12test_support15run_root_silent
FNDA:8,_RNvNtNtCseriWsCb5ev6_4koan8builtins12test_support16fn_is_registered
FNDA:69,_RNvNtNtCseriWsCb5ev6_4koan8builtins12test_support17run_root_with_buf
FNDA:276,_RNvNtNtCseriWsCb5ev6_4koan8builtins12test_support3run
FNDA:2,_RNvNtNtCseriWsCb5ev6_4koan8builtins12test_support6marker
FNDA:228,_RNvNtNtCseriWsCb5ev6_4koan8builtins12test_support7run_one
FNDA:19,_RNvNtNtCseriWsCb5ev6_4koan8builtins12test_support9lookup_fn
FNDA:351,_RNvNtNtCseriWsCb5ev6_4koan8builtins12test_support9parse_one
FNDA:0,_RNvXNtNtCseriWsCb5ev6_4koan8builtins12test_supportNtB2_9SharedBufNtNtCs75vJTIYSa2J_3std2io5Write5flush
FNDA:110,_RNvXNtNtCseriWsCb5ev6_4koan8builtins12test_supportNtB2_9SharedBufNtNtCs75vJTIYSa2J_3std2io5Write5write
FNF:18
FNH:16
DA:23,110
DA:24,110
DA:25,110
DA:26,110
DA:27,0
DA:28,0
DA:29,0
DA:32,69
DA:33,69
DA:34,69
DA:35,69
DA:36,69
DA:37,69
DA:38,69
DA:40,229
DA:41,229
DA:42,229
DA:46,63
DA:47,63
DA:48,63
DA:51,351
DA:52,351
DA:53,351
DA:54,351
DA:55,351
DA:60,228
DA:61,228
DA:62,228
DA:63,228
DA:64,228
DA:65,228
DA:68,44
DA:69,44
DA:70,44
DA:71,44
DA:72,44
DA:73,0
DA:74,44
DA:76,44
DA:81,276
DA:82,276
DA:83,276
DA:84,481
DA:85,481
DA:86,481
DA:87,276
DA:88,276
DA:92,19
DA:93,19
DA:94,570
DA:95,741
DA:96,779
DA:97,741
DA:98,38
DA:99,779
DA:100,741
DA:101,19
DA:102,19
DA:103,722
DA:106,19
DA:107,19
DA:111,8
DA:112,207
DA:113,271
DA:114,285
DA:115,271
DA:116,14
DA:117,285
DA:118,271
DA:119,207
DA:120,8
DA:124,2
DA:125,2
DA:126,2
DA:129,4
DA:130,4
DA:131,4
DA:132,4
DA:133,4
DA:134,4
DA:135,4
DA:136,4
DA:137,4
BRF:0
BRH:0
LF:89
LH:84
end_of_record
SF:/var/home/jack/Code/koan/src/builtins/try_with.rs
FN:131,_RNCNvNtNtCscUx3zdyuqfq_4koan8builtins8try_with15dispatch_branch0B7_
FN:55,_RNCNvNtNtCscUx3zdyuqfq_4koan8builtins8try_with4body0B7_
FN:64,_RNvNtNtCscUx3zdyuqfq_4koan8builtins8try_with15dispatch_branch
FN:27,_RNvNtNtCscUx3zdyuqfq_4koan8builtins8try_with4body
FN:142,_RNvNtNtCscUx3zdyuqfq_4koan8builtins8try_with8register
FN:64,_RNvNtNtCseriWsCb5ev6_4koan8builtins8try_with15dispatch_branch
FN:27,_RNvNtNtCseriWsCb5ev6_4koan8builtins8try_with4body
FN:142,_RNvNtNtCseriWsCb5ev6_4koan8builtins8try_with8register
FN:131,_RNCNvNtNtCseriWsCb5ev6_4koan8builtins8try_with15dispatch_branch0B7_
FN:55,_RNCNvNtNtCseriWsCb5ev6_4koan8builtins8try_with4body0B7_
FNDA:0,_RNCNvNtNtCscUx3zdyuqfq_4koan8builtins8try_with15dispatch_branch0B7_
FNDA:0,_RNCNvNtNtCscUx3zdyuqfq_4koan8builtins8try_with4body0B7_
FNDA:0,_RNvNtNtCscUx3zdyuqfq_4koan8builtins8try_with15dispatch_branch
FNDA:0,_RNvNtNtCscUx3zdyuqfq_4koan8builtins8try_with4body
FNDA:40,_RNvNtNtCscUx3zdyuqfq_4koan8builtins8try_with8register
FNDA:17,_RNvNtNtCseriWsCb5ev6_4koan8builtins8try_with15dispatch_branch
FNDA:17,_RNvNtNtCseriWsCb5ev6_4koan8builtins8try_with4body
FNDA:461,_RNvNtNtCseriWsCb5ev6_4koan8builtins8try_with8register
FNDA:0,_RNCNvNtNtCseriWsCb5ev6_4koan8builtins8try_with15dispatch_branch0B7_
FNDA:17,_RNCNvNtNtCseriWsCb5ev6_4koan8builtins8try_with4body0B7_
FNF:5
FNH:4
DA:27,17
DA:28,17
DA:29,17
DA:30,17
DA:31,17
DA:32,17
DA:33,17
DA:35,0
DA:36,0
DA:37,0
DA:40,17
DA:41,17
DA:43,0
DA:44,0
DA:45,0
DA:51,17
DA:52,17
DA:53,17
DA:54,17
DA:55,17
DA:56,17
DA:57,17
DA:58,17
DA:59,17
DA:60,17
DA:64,17
DA:65,17
DA:66,17
DA:67,17
DA:68,17
DA:69,17
DA:70,17
DA:73,17
DA:74,8
DA:75,9
DA:76,9
DA:77,9
DA:78,9
DA:79,0
DA:81,9
DA:85,17
DA:86,13
DA:88,2
DA:89,1
DA:90,1
DA:91,1
DA:92,1
DA:95,2
DA:99,13
DA:100,13
DA:101,13
DA:104,13
DA:105,13
DA:106,13
DA:109,13
DA:110,13
DA:111,13
DA:112,13
DA:113,13
DA:116,13
DA:117,13
DA:118,13
DA:119,13
DA:120,0
DA:121,0
DA:122,0
DA:123,0
DA:124,0
DA:125,0
DA:126,0
DA:127,0
DA:128,0
DA:129,0
DA:131,0
DA:132,0
DA:133,0
DA:135,0
DA:137,13
DA:138,13
DA:140,17
DA:142,501
DA:143,501
DA:144,501
DA:145,501
DA:146,501
DA:147,501
DA:148,501
DA:149,501
DA:150,501
DA:152,501
DA:154,501
BRF:0
BRH:0
LF:93
LH:71
end_of_record
SF:/var/home/jack/Code/koan/src/builtins/type_constructors.rs
FN:78,_RNvNtNtCscUx3zdyuqfq_4koan8builtins17type_constructors12body_functor
FN:22,_RNvNtNtCscUx3zdyuqfq_4koan8builtins17type_constructors12body_list_of
FN:111,_RNvNtNtCscUx3zdyuqfq_4koan8builtins17type_constructors16finalize_carrier
FN:128,_RNvNtNtCscUx3zdyuqfq_4koan8builtins17type_constructors17defer_via_combine
FN:165,_RNvNtNtCscUx3zdyuqfq_4koan8builtins17type_constructors19extract_param_types
FN:94,_RNvNtNtCscUx3zdyuqfq_4koan8builtins17type_constructors23build_kfunction_carrier
FN:62,_RNvNtNtCscUx3zdyuqfq_4koan8builtins17type_constructors7body_fn
FN:38,_RNvNtNtCscUx3zdyuqfq_4koan8builtins17type_constructors8body_map
FN:233,_RNvNtNtCscUx3zdyuqfq_4koan8builtins17type_constructors8register
FN:137,_RNCNvNtNtCscUx3zdyuqfq_4koan8builtins17type_constructors17defer_via_combine0B7_
FN:137,_RNCNvNtNtCseriWsCb5ev6_4koan8builtins17type_constructors17defer_via_combine0B7_
FN:312,_RNvNtNtNtCseriWsCb5ev6_4koan8builtins17type_constructors5testss_22fn_lowers_to_kfunction
FN:351,_RNvNtNtNtCseriWsCb5ev6_4koan8builtins17type_constructors5testss_26functor_lowers_to_kfunctor
FN:299,_RNvNtNtNtCseriWsCb5ev6_4koan8builtins17type_constructors5testss_29map_str_number_lowers_to_dict
FN:331,_RNvNtNtNtCseriWsCb5ev6_4koan8builtins17type_constructors5testss_30fn_nullary_lowers_to_kfunction
FN:286,_RNvNtNtNtCseriWsCb5ev6_4koan8builtins17type_constructors5testss_36list_of_number_lowers_to_list_number
FN:78,_RNvNtNtCseriWsCb5ev6_4koan8builtins17type_constructors12body_functor
FN:22,_RNvNtNtCseriWsCb5ev6_4koan8builtins17type_constructors12body_list_of
FN:111,_RNvNtNtCseriWsCb5ev6_4koan8builtins17type_constructors16finalize_carrier
FN:128,_RNvNtNtCseriWsCb5ev6_4koan8builtins17type_constructors17defer_via_combine
FN:165,_RNvNtNtCseriWsCb5ev6_4koan8builtins17type_constructors19extract_param_types
FN:94,_RNvNtNtCseriWsCb5ev6_4koan8builtins17type_constructors23build_kfunction_carrier
FN:62,_RNvNtNtCseriWsCb5ev6_4koan8builtins17type_constructors7body_fn
FN:38,_RNvNtNtCseriWsCb5ev6_4koan8builtins17type_constructors8body_map
FN:233,_RNvNtNtCseriWsCb5ev6_4koan8builtins17type_constructors8register
FNDA:3,_RNvNtNtCscUx3zdyuqfq_4koan8builtins17type_constructors12body_functor
FNDA:2,_RNvNtNtCscUx3zdyuqfq_4koan8builtins17type_constructors12body_list_of
FNDA:5,_RNvNtNtCscUx3zdyuqfq_4koan8builtins17type_constructors16finalize_carrier
FNDA:1,_RNvNtNtCscUx3zdyuqfq_4koan8builtins17type_constructors17defer_via_combine
FNDA:6,_RNvNtNtCscUx3zdyuqfq_4koan8builtins17type_constructors19extract_param_types
FNDA:5,_RNvNtNtCscUx3zdyuqfq_4koan8builtins17type_constructors23build_kfunction_carrier
FNDA:2,_RNvNtNtCscUx3zdyuqfq_4koan8builtins17type_constructors7body_fn
FNDA:2,_RNvNtNtCscUx3zdyuqfq_4koan8builtins17type_constructors8body_map
FNDA:40,_RNvNtNtCscUx3zdyuqfq_4koan8builtins17type_constructors8register
FNDA:1,_RNCNvNtNtCscUx3zdyuqfq_4koan8builtins17type_constructors17defer_via_combine0B7_
FNDA:0,_RNCNvNtNtCseriWsCb5ev6_4koan8builtins17type_constructors17defer_via_combine0B7_
FNDA:1,_RNvNtNtNtCseriWsCb5ev6_4koan8builtins17type_constructors5testss_22fn_lowers_to_kfunction
FNDA:1,_RNvNtNtNtCseriWsCb5ev6_4koan8builtins17type_constructors5testss_26functor_lowers_to_kfunctor
FNDA:1,_RNvNtNtNtCseriWsCb5ev6_4koan8builtins17type_constructors5testss_29map_str_number_lowers_to_dict
FNDA:1,_RNvNtNtNtCseriWsCb5ev6_4koan8builtins17type_constructors5testss_30fn_nullary_lowers_to_kfunction
FNDA:1,_RNvNtNtNtCseriWsCb5ev6_4koan8builtins17type_constructors5testss_36list_of_number_lowers_to_list_number
FNDA:2,_RNvNtNtCseriWsCb5ev6_4koan8builtins17type_constructors12body_functor
FNDA:41,_RNvNtNtCseriWsCb5ev6_4koan8builtins17type_constructors12body_list_of
FNDA:9,_RNvNtNtCseriWsCb5ev6_4koan8builtins17type_constructors16finalize_carrier
FNDA:0,_RNvNtNtCseriWsCb5ev6_4koan8builtins17type_constructors17defer_via_combine
FNDA:9,_RNvNtNtCseriWsCb5ev6_4koan8builtins17type_constructors19extract_param_types
FNDA:9,_RNvNtNtCseriWsCb5ev6_4koan8builtins17type_constructors23build_kfunction_carrier
FNDA:7,_RNvNtNtCseriWsCb5ev6_4koan8builtins17type_constructors7body_fn
FNDA:2,_RNvNtNtCseriWsCb5ev6_4koan8builtins17type_constructors8body_map
FNDA:461,_RNvNtNtCseriWsCb5ev6_4koan8builtins17type_constructors8register
FNF:15
FNH:15
DA:22,43
DA:23,43
DA:24,43
DA:25,43
DA:26,43
DA:27,43
DA:28,43
DA:29,0
DA:31,43
DA:32,43
DA:33,43
DA:34,43
DA:35,43
DA:36,43
DA:38,4
DA:39,4
DA:40,4
DA:41,4
DA:42,4
DA:43,4
DA:44,4
DA:45,0
DA:47,4
DA:48,4
DA:49,0
DA:51,4
DA:52,4
DA:53,4
DA:54,4
DA:55,4
DA:56,4
DA:62,9
DA:63,9
DA:64,9
DA:65,9
DA:66,9
DA:67,9
DA:68,9
DA:69,0
DA:71,9
DA:72,9
DA:73,0
DA:75,9
DA:76,9
DA:78,5
DA:79,5
DA:80,5
DA:81,5
DA:82,5
DA:83,5
DA:84,5
DA:85,0
DA:87,5
DA:88,5
DA:89,0
DA:91,5
DA:92,5
DA:94,14
DA:95,14
DA:96,14
DA:97,14
DA:98,14
DA:99,14
DA:100,14
DA:101,14
DA:102,14
DA:103,13
DA:104,0
DA:105,1
DA:106,1
DA:109,14
DA:111,14
DA:112,14
DA:113,14
DA:114,14
DA:115,14
DA:116,14
DA:117,14
DA:118,5
DA:120,9
DA:122,14
DA:123,14
DA:128,1
DA:129,1
DA:130,1
DA:131,1
DA:132,1
DA:133,1
DA:134,1
DA:135,1
DA:136,1
DA:137,1
DA:138,1
DA:139,1
DA:140,1
DA:142,0
DA:143,0
DA:144,0
DA:145,0
DA:146,0
DA:147,0
DA:149,1
DA:150,1
DA:151,1
DA:152,1
DA:165,15
DA:166,15
DA:167,15
DA:168,15
DA:169,15
DA:172,15
DA:173,15
DA:174,15
DA:175,15
DA:176,30
DA:179,15
DA:180,15
DA:187,15
DA:188,0
DA:189,0
DA:190,0
DA:191,0
DA:192,0
DA:193,15
DA:194,15
DA:195,0
DA:196,0
DA:197,0
DA:198,0
DA:200,0
DA:201,15
DA:202,14
DA:203,0
DA:204,0
DA:205,0
DA:206,0
DA:208,1
DA:209,1
DA:210,1
DA:211,1
DA:212,1
DA:213,1
DA:217,0
DA:218,0
DA:219,0
DA:220,0
DA:221,0
DA:222,0
DA:225,15
DA:227,15
DA:228,1
DA:229,14
DA:230,14
DA:231,15
DA:233,501
DA:234,501
DA:235,501
DA:236,501
DA:237,501
DA:238,501
DA:239,501
DA:240,501
DA:242,501
DA:244,501
DA:245,501
DA:246,501
DA:247,501
DA:248,501
DA:249,501
DA:250,501
DA:251,501
DA:253,501
DA:255,501
DA:256,501
DA:257,501
DA:258,501
DA:259,501
DA:260,501
DA:261,501
DA:262,501
DA:264,501
DA:266,501
DA:267,501
DA:268,501
DA:269,501
DA:270,501
DA:271,501
DA:272,501
DA:273,501
DA:275,501
DA:277,501
DA:286,1
DA:287,1
DA:288,1
DA:289,1
DA:290,1
DA:291,1
DA:292,1
DA:294,0
DA:296,1
DA:299,1
DA:300,1
DA:301,1
DA:302,1
DA:303,1
DA:304,1
DA:305,1
DA:307,0
DA:309,1
DA:312,1
DA:313,1
DA:314,1
DA:315,1
DA:316,1
DA:317,1
DA:318,1
DA:320,1
DA:321,1
DA:322,1
DA:323,1
DA:326,0
DA:328,1
DA:331,1
DA:332,1
DA:333,1
DA:334,1
DA:335,1
DA:336,1
DA:337,1
DA:339,1
DA:340,1
DA:341,1
DA:342,1
DA:345,0
DA:347,1
DA:351,1
DA:352,1
DA:353,1
DA:354,1
DA:355,1
DA:356,1
DA:357,1
DA:359,1
DA:360,1
DA:361,1
DA:362,1
DA:365,0
DA:367,1
BRF:0
BRH:0
LF:249
LH:210
end_of_record
SF:/var/home/jack/Code/koan/src/builtins/type_ops.rs
FN:21,_RNvNtNtCscUx3zdyuqfq_4koan8builtins8type_ops8register
FN:21,_RNvNtNtCseriWsCb5ev6_4koan8builtins8type_ops8register
FNDA:40,_RNvNtNtCscUx3zdyuqfq_4koan8builtins8type_ops8register
FNDA:461,_RNvNtNtCseriWsCb5ev6_4koan8builtins8type_ops8register
FNF:1
FNH:1
DA:21,501
DA:22,501
DA:23,501
DA:24,501
DA:25,501
DA:26,501
DA:28,501
DA:29,501
DA:30,501
DA:31,501
DA:32,501
DA:33,501
DA:34,501
DA:36,501
DA:38,501
DA:39,501
DA:40,501
DA:41,501
DA:42,501
DA:43,501
DA:44,501
DA:45,501
DA:47,501
DA:49,501
DA:50,501
DA:51,501
DA:52,501
DA:53,501
DA:54,501
DA:55,501
DA:57,501
DA:59,501
DA:60,501
DA:61,501
DA:62,501
DA:63,501
DA:64,501
DA:66,501
DA:70,501
DA:71,501
DA:72,501
DA:73,501
DA:74,501
DA:75,501
DA:76,501
DA:78,501
DA:80,501
BRF:0
BRH:0
LF:47
LH:47
end_of_record
SF:/var/home/jack/Code/koan/src/builtins/type_ops/dict_of.rs
FN:8,_RNvNtNtNtCscUx3zdyuqfq_4koan8builtins8type_ops7dict_of4body
FN:8,_RNvNtNtNtCseriWsCb5ev6_4koan8builtins8type_ops7dict_of4body
FN:36,_RNvNtNtNtNtCseriWsCb5ev6_4koan8builtins8type_ops7dict_of5testss_33dict_of_str_number_lowers_to_dict
FNDA:0,_RNvNtNtNtCscUx3zdyuqfq_4koan8builtins8type_ops7dict_of4body
FNDA:2,_RNvNtNtNtCseriWsCb5ev6_4koan8builtins8type_ops7dict_of4body
FNDA:1,_RNvNtNtNtNtCseriWsCb5ev6_4koan8builtins8type_ops7dict_of5testss_33dict_of_str_number_lowers_to_dict
FNF:2
FNH:2
DA:8,2
DA:9,2
DA:10,2
DA:11,2
DA:12,2
DA:13,2
DA:14,2
DA:15,0
DA:17,2
DA:18,2
DA:19,0
DA:21,2
DA:22,2
DA:23,2
DA:24,2
DA:25,2
DA:26,2
DA:36,1
DA:37,1
DA:38,1
DA:39,1
DA:40,1
DA:41,1
DA:42,1
DA:44,1
DA:47,0
DA:49,1
BRF:0
BRH:0
LF:27
LH:24
end_of_record
SF:/var/home/jack/Code/koan/src/builtins/type_ops/function_of.rs
FN:11,_RNvNtNtNtCscUx3zdyuqfq_4koan8builtins8type_ops11function_of4body
FN:59,_RNvNtNtNtNtCseriWsCb5ev6_4koan8builtins8type_ops11function_of5testss_37function_of_unary_lowers_to_kfunction
FN:78,_RNvNtNtNtNtCseriWsCb5ev6_4koan8builtins8type_ops11function_of5testss_39function_of_nullary_lowers_to_kfunction
FN:97,_RNvNtNtNtNtCseriWsCb5ev6_4koan8builtins8type_ops11function_of5testss_41function_of_multi_arg_lowers_to_kfunction
FN:11,_RNvNtNtNtCseriWsCb5ev6_4koan8builtins8type_ops11function_of4body
FNDA:0,_RNvNtNtNtCscUx3zdyuqfq_4koan8builtins8type_ops11function_of4body
FNDA:1,_RNvNtNtNtNtCseriWsCb5ev6_4koan8builtins8type_ops11function_of5testss_37function_of_unary_lowers_to_kfunction
FNDA:1,_RNvNtNtNtNtCseriWsCb5ev6_4koan8builtins8type_ops11function_of5testss_39function_of_nullary_lowers_to_kfunction
FNDA:1,_RNvNtNtNtNtCseriWsCb5ev6_4koan8builtins8type_ops11function_of5testss_41function_of_multi_arg_lowers_to_kfunction
FNDA:3,_RNvNtNtNtCseriWsCb5ev6_4koan8builtins8type_ops11function_of4body
FNF:4
FNH:4
DA:11,3
DA:12,3
DA:13,3
DA:14,3
DA:15,3
DA:16,3
DA:17,3
DA:18,0
DA:20,3
DA:21,3
DA:22,0
DA:24,3
DA:25,3
DA:26,0
DA:27,3
DA:28,3
DA:29,0
DA:30,0
DA:31,0
DA:32,0
DA:35,0
DA:36,0
DA:37,0
DA:38,0
DA:39,0
DA:40,0
DA:44,3
DA:45,3
DA:46,3
DA:47,3
DA:48,3
DA:49,3
DA:50,3
DA:59,1
DA:60,1
DA:61,1
DA:62,1
DA:63,1
DA:64,1
DA:65,1
DA:67,1
DA:68,1
DA:69,1
DA:70,1
DA:73,0
DA:75,1
DA:78,1
DA:79,1
DA:80,1
DA:81,1
DA:82,1
DA:83,1
DA:84,1
DA:86,1
DA:87,1
DA:88,1
DA:89,1
DA:92,0
DA:94,1
DA:97,1
DA:98,1
DA:99,1
DA:100,1
DA:101,1
DA:102,1
DA:103,1
DA:105,1
DA:106,1
DA:107,1
DA:108,1
DA:111,0
DA:113,1
BRF:0
BRH:0
LF:72
LH:56
end_of_record
SF:/var/home/jack/Code/koan/src/builtins/type_ops/list_of.rs
FN:7,_RNvNtNtNtCscUx3zdyuqfq_4koan8builtins8type_ops7list_of4body
FN:7,_RNvNtNtNtCseriWsCb5ev6_4koan8builtins8type_ops7list_of4body
FN:30,_RNvNtNtNtNtCseriWsCb5ev6_4koan8builtins8type_ops7list_of5testss_36list_of_number_lowers_to_list_number
FN:45,_RNvNtNtNtNtCseriWsCb5ev6_4koan8builtins8type_ops7list_of5testss_43nested_list_of_dispatches_through_scheduler
FNDA:1,_RNvNtNtNtCscUx3zdyuqfq_4koan8builtins8type_ops7list_of4body
FNDA:10,_RNvNtNtNtCseriWsCb5ev6_4koan8builtins8type_ops7list_of4body
FNDA:1,_RNvNtNtNtNtCseriWsCb5ev6_4koan8builtins8type_ops7list_of5testss_36list_of_number_lowers_to_list_number
FNDA:1,_RNvNtNtNtNtCseriWsCb5ev6_4koan8builtins8type_ops7list_of5testss_43nested_list_of_dispatches_through_scheduler
FNF:3
FNH:3
DA:7,11
DA:8,11
DA:9,11
DA:10,11
DA:11,11
DA:12,11
DA:13,11
DA:14,0
DA:16,11
DA:17,11
DA:18,11
DA:19,11
DA:20,11
DA:21,11
DA:30,1
DA:31,1
DA:32,1
DA:33,1
DA:34,1
DA:35,1
DA:36,1
DA:38,0
DA:40,1
DA:45,1
DA:46,1
DA:47,1
DA:48,1
DA:49,1
DA:50,1
DA:51,1
DA:53,1
DA:56,0
DA:58,1
BRF:0
BRH:0
LF:33
LH:30
end_of_record
SF:/var/home/jack/Code/koan/src/builtins/type_ops/module_type_of.rs
FN:9,_RNvNtNtNtCscUx3zdyuqfq_4koan8builtins8type_ops14module_type_of4body
FN:78,_RNvNtNtNtNtCseriWsCb5ev6_4koan8builtins8type_ops14module_type_of5testss_32type_op_dispatch_does_not_dangle
FN:62,_RNvNtNtNtNtCseriWsCb5ev6_4koan8builtins8type_ops14module_type_of5testss_36module_type_of_unknown_member_errors
FN:42,_RNvNtNtNtNtCseriWsCb5ev6_4koan8builtins8type_ops14module_type_of5testss_41module_type_of_resolves_via_module_member
FN:9,_RNvNtNtNtCseriWsCb5ev6_4koan8builtins8type_ops14module_type_of4body
FNDA:0,_RNvNtNtNtCscUx3zdyuqfq_4koan8builtins8type_ops14module_type_of4body
FNDA:1,_RNvNtNtNtNtCseriWsCb5ev6_4koan8builtins8type_ops14module_type_of5testss_32type_op_dispatch_does_not_dangle
FNDA:1,_RNvNtNtNtNtCseriWsCb5ev6_4koan8builtins8type_ops14module_type_of5testss_36module_type_of_unknown_member_errors
FNDA:1,_RNvNtNtNtNtCseriWsCb5ev6_4koan8builtins8type_ops14module_type_of5testss_41module_type_of_resolves_via_module_member
FNDA:8,_RNvNtNtNtCseriWsCb5ev6_4koan8builtins8type_ops14module_type_of4body
FNF:4
FNH:4
DA:9,8
DA:10,8
DA:11,8
DA:12,8
DA:13,8
DA:14,8
DA:15,8
DA:16,0
DA:18,8
DA:19,7
DA:20,1
DA:22,7
DA:23,7
DA:25,0
DA:26,0
DA:27,0
DA:28,0
DA:31,7
DA:32,8
DA:42,1
DA:43,1
DA:44,1
DA:45,1
DA:46,1
DA:47,1
DA:48,1
DA:49,1
DA:51,1
DA:52,1
DA:53,1
DA:54,1
DA:55,1
DA:57,0
DA:59,1
DA:62,1
DA:63,1
DA:64,1
DA:65,1
DA:66,1
DA:67,1
DA:68,1
DA:69,1
DA:70,1
DA:71,1
DA:78,1
DA:79,1
DA:80,1
DA:81,1
DA:82,1
DA:83,1
DA:84,1
DA:85,1
DA:87,1
DA:88,1
DA:89,1
DA:90,1
DA:92,1
DA:95,1
DA:96,20
DA:97,20
DA:98,20
DA:99,1
DA:101,1
DA:102,1
DA:103,0
DA:105,1
DA:106,1
DA:107,1
DA:110,1
DA:111,1
DA:112,1
DA:116,1
DA:117,1
BRF:0
BRH:0
LF:73
LH:66
end_of_record
SF:/var/home/jack/Code/koan/src/builtins/type_ops/sig_with.rs
FN:20,_RNvNtNtNtCscUx3zdyuqfq_4koan8builtins8type_ops8sig_with4body
FN:37,_RNvNvNtNtNtCscUx3zdyuqfq_4koan8builtins8type_ops8sig_with4body10parse_pair
FN:77,_RNCNvNtNtNtCscUx3zdyuqfq_4koan8builtins8type_ops8sig_with4body0B9_
FN:185,_RNCNvNtNtNtCscUx3zdyuqfq_4koan8builtins8type_ops8sig_with4bodys0_0B9_
FN:90,_RNCNvNtNtNtCscUx3zdyuqfq_4koan8builtins8type_ops8sig_with4bodys_0B9_
FN:305,_RNvNtNtNtNtCseriWsCb5ev6_4koan8builtins8type_ops8sig_with5testss_29sig_with_rejects_unknown_slot
FN:326,_RNvNtNtNtNtCseriWsCb5ev6_4koan8builtins8type_ops8sig_with5testss_37sig_with_rejects_identifier_slot_name
FN:348,_RNvNtNtNtNtCseriWsCb5ev6_4koan8builtins8type_ops8sig_with5testss_41sig_with_rejects_non_parens_bindings_form
FN:248,_RNvNtNtNtNtCseriWsCb5ev6_4koan8builtins8type_ops8sig_with5testss_41sig_with_two_slots_preserves_source_order
FN:271,_RNvNtNtNtNtCseriWsCb5ev6_4koan8builtins8type_ops8sig_with5testss_42sig_with_inner_module_attr_path_elaborates
FN:221,_RNvNtNtNtNtCseriWsCb5ev6_4koan8builtins8type_ops8sig_with5testss_58sig_with_one_slot_returns_signature_bound_with_pinned_slot
FN:20,_RNvNtNtNtCseriWsCb5ev6_4koan8builtins8type_ops8sig_with4body
FN:37,_RNvNvNtNtNtCseriWsCb5ev6_4koan8builtins8type_ops8sig_with4body10parse_pair
FN:77,_RNCNvNtNtNtCseriWsCb5ev6_4koan8builtins8type_ops8sig_with4body0B9_
FN:185,_RNCNvNtNtNtCseriWsCb5ev6_4koan8builtins8type_ops8sig_with4bodys0_0B9_
FN:90,_RNCNvNtNtNtCseriWsCb5ev6_4koan8builtins8type_ops8sig_with4bodys_0B9_
FNDA:0,_RNvNtNtNtCscUx3zdyuqfq_4koan8builtins8type_ops8sig_with4body
FNDA:0,_RNvNvNtNtNtCscUx3zdyuqfq_4koan8builtins8type_ops8sig_with4body10parse_pair
FNDA:0,_RNCNvNtNtNtCscUx3zdyuqfq_4koan8builtins8type_ops8sig_with4body0B9_
FNDA:0,_RNCNvNtNtNtCscUx3zdyuqfq_4koan8builtins8type_ops8sig_with4bodys0_0B9_
FNDA:0,_RNCNvNtNtNtCscUx3zdyuqfq_4koan8builtins8type_ops8sig_with4bodys_0B9_
FNDA:1,_RNvNtNtNtNtCseriWsCb5ev6_4koan8builtins8type_ops8sig_with5testss_29sig_with_rejects_unknown_slot
FNDA:1,_RNvNtNtNtNtCseriWsCb5ev6_4koan8builtins8type_ops8sig_with5testss_37sig_with_rejects_identifier_slot_name
FNDA:1,_RNvNtNtNtNtCseriWsCb5ev6_4koan8builtins8type_ops8sig_with5testss_41sig_with_rejects_non_parens_bindings_form
FNDA:1,_RNvNtNtNtNtCseriWsCb5ev6_4koan8builtins8type_ops8sig_with5testss_41sig_with_two_slots_preserves_source_order
FNDA:1,_RNvNtNtNtNtCseriWsCb5ev6_4koan8builtins8type_ops8sig_with5testss_42sig_with_inner_module_attr_path_elaborates
FNDA:1,_RNvNtNtNtNtCseriWsCb5ev6_4koan8builtins8type_ops8sig_with5testss_58sig_with_one_slot_returns_signature_bound_with_pinned_slot
FNDA:9,_RNvNtNtNtCseriWsCb5ev6_4koan8builtins8type_ops8sig_with4body
FNDA:10,_RNvNvNtNtNtCseriWsCb5ev6_4koan8builtins8type_ops8sig_with4body10parse_pair
FNDA:2,_RNCNvNtNtNtCseriWsCb5ev6_4koan8builtins8type_ops8sig_with4body0B9_
FNDA:1,_RNCNvNtNtNtCseriWsCb5ev6_4koan8builtins8type_ops8sig_with4bodys0_0B9_
FNDA:3,_RNCNvNtNtNtCseriWsCb5ev6_4koan8builtins8type_ops8sig_with4bodys_0B9_
FNF:11
FNH:11
DA:20,9
DA:21,9
DA:22,9
DA:23,9
DA:24,9
DA:25,9
DA:26,9
DA:27,0
DA:29,9
DA:30,9
DA:31,0
DA:37,10
DA:38,10
DA:39,10
DA:40,10
DA:41,10
DA:42,10
DA:43,0
DA:44,0
DA:45,0
DA:46,0
DA:47,10
DA:48,10
DA:49,9
DA:50,9
DA:52,0
DA:53,0
DA:54,0
DA:55,0
DA:56,0
DA:58,1
DA:59,1
DA:60,1
DA:61,1
DA:62,1
DA:64,0
DA:65,0
DA:66,0
DA:67,0
DA:68,0
DA:71,9
DA:72,9
DA:73,10
DA:75,9
DA:76,9
DA:77,9
DA:78,9
DA:79,9
DA:80,6
DA:81,1
DA:82,5
DA:83,3
DA:84,4
DA:85,4
DA:86,0
DA:87,4
DA:90,3
DA:91,1
DA:92,1
DA:93,1
DA:94,1
DA:95,1
DA:99,7
DA:100,7
DA:101,9
DA:102,9
DA:103,0
DA:104,0
DA:105,0
DA:106,0
DA:107,9
DA:108,9
DA:109,1
DA:110,1
DA:111,1
DA:112,1
DA:113,8
DA:118,6
DA:119,6
DA:120,6
DA:121,8
DA:122,0
DA:123,7
DA:124,7
DA:125,7
DA:126,7
DA:128,0
DA:129,0
DA:130,0
DA:131,0
DA:132,0
DA:134,0
DA:135,0
DA:136,0
DA:137,0
DA:141,0
DA:142,0
DA:143,0
DA:144,0
DA:145,0
DA:146,0
DA:147,0
DA:148,0
DA:150,1
DA:151,1
DA:152,1
DA:153,1
DA:154,1
DA:155,1
DA:156,1
DA:157,0
DA:158,0
DA:159,0
DA:160,0
DA:161,0
DA:162,0
DA:163,0
DA:168,6
DA:169,5
DA:170,5
DA:171,5
DA:172,5
DA:173,5
DA:174,5
DA:175,1
DA:178,1
DA:179,1
DA:180,1
DA:181,1
DA:182,1
DA:183,1
DA:185,1
DA:186,1
DA:187,1
DA:188,1
DA:189,1
DA:190,1
DA:191,1
DA:192,1
DA:193,0
DA:194,0
DA:195,0
DA:196,0
DA:197,0
DA:198,0
DA:202,1
DA:203,1
DA:204,1
DA:205,1
DA:206,1
DA:207,1
DA:208,1
DA:209,1
DA:210,1
DA:211,9
DA:221,1
DA:222,1
DA:223,1
DA:224,1
DA:226,1
DA:227,1
DA:228,0
DA:230,1
DA:231,1
DA:232,1
DA:233,1
DA:234,1
DA:235,1
DA:236,1
DA:237,1
DA:238,1
DA:240,0
DA:242,0
DA:244,1
DA:248,1
DA:249,1
DA:250,1
DA:251,1
DA:252,1
DA:253,1
DA:255,1
DA:256,1
DA:257,1
DA:258,1
DA:259,1
DA:260,1
DA:261,1
DA:262,1
DA:264,0
DA:266,1
DA:271,1
DA:272,1
DA:273,1
DA:274,1
DA:275,1
DA:276,1
DA:277,1
DA:278,1
DA:279,1
DA:281,1
DA:282,1
DA:283,1
DA:285,1
DA:286,1
DA:287,1
DA:288,1
DA:289,1
DA:290,1
DA:291,1
DA:292,1
DA:294,0
DA:300,0
DA:302,1
DA:305,1
DA:306,1
DA:307,1
DA:308,1
DA:309,1
DA:310,1
DA:311,1
DA:312,1
DA:313,0
DA:314,1
DA:316,1
DA:317,1
DA:318,1
DA:321,1
DA:326,1
DA:327,1
DA:328,1
DA:329,1
DA:330,1
DA:331,1
DA:332,1
DA:333,1
DA:334,0
DA:335,1
DA:337,1
DA:338,1
DA:339,1
DA:342,1
DA:348,1
DA:349,1
DA:350,1
DA:351,1
DA:352,1
DA:353,1
DA:354,1
DA:355,1
DA:356,0
DA:357,1
DA:359,1
DA:360,1
DA:361,1
DA:364,1
BRF:0
BRH:0
LF:258
LH:197
end_of_record
SF:/var/home/jack/Code/koan/src/builtins/type_ops/type_constructor.rs
FN:12,_RNvNtNtNtCscUx3zdyuqfq_4koan8builtins8type_ops16type_constructor4body
FN:12,_RNvNtNtNtCseriWsCb5ev6_4koan8builtins8type_ops16type_constructor4body
FN:132,_RNvNtNtNtNtCseriWsCb5ev6_4koan8builtins8type_ops16type_constructor5testss_21monad_signature_smoke
FN:65,_RNvNtNtNtNtCseriWsCb5ev6_4koan8builtins8type_ops16type_constructor5testss_31sig_declares_higher_kinded_slot
FN:88,_RNvNtNtNtNtCseriWsCb5ev6_4koan8builtins8type_ops16type_constructor5testss_43fn_return_type_constructor_apply_root_scope
FN:191,_RNvNtNtNtNtCseriWsCb5ev6_4koan8builtins8type_ops16type_constructor5testss_43module_attr_access_returns_type_constructor
FN:46,_RNvNtNtNtNtCseriWsCb5ev6_4koan8builtins8type_ops16type_constructor5testss_44type_constructor_builtin_returns_ktype_value
FNDA:0,_RNvNtNtNtCscUx3zdyuqfq_4koan8builtins8type_ops16type_constructor4body
FNDA:4,_RNvNtNtNtCseriWsCb5ev6_4koan8builtins8type_ops16type_constructor4body
FNDA:0,_RNvNtNtNtNtCseriWsCb5ev6_4koan8builtins8type_ops16type_constructor5testss_21monad_signature_smoke
FNDA:1,_RNvNtNtNtNtCseriWsCb5ev6_4koan8builtins8type_ops16type_constructor5testss_31sig_declares_higher_kinded_slot
FNDA:0,_RNvNtNtNtNtCseriWsCb5ev6_4koan8builtins8type_ops16type_constructor5testss_43fn_return_type_constructor_apply_root_scope
FNDA:1,_RNvNtNtNtNtCseriWsCb5ev6_4koan8builtins8type_ops16type_constructor5testss_43module_attr_access_returns_type_constructor
FNDA:1,_RNvNtNtNtNtCseriWsCb5ev6_4koan8builtins8type_ops16type_constructor5testss_44type_constructor_builtin_returns_ktype_value
FNF:6
FNH:4
DA:12,4
DA:13,4
DA:14,4
DA:15,4
DA:16,4
DA:17,4
DA:18,4
DA:19,0
DA:21,4
DA:22,4
DA:23,4
DA:24,4
DA:25,4
DA:26,4
DA:27,4
DA:28,4
DA:29,4
DA:30,4
DA:31,4
DA:32,4
DA:33,4
DA:34,4
DA:46,1
DA:47,1
DA:48,1
DA:49,1
DA:50,1
DA:51,1
DA:52,1
DA:53,1
DA:54,1
DA:55,1
DA:57,0
DA:59,0
DA:61,1
DA:65,1
DA:66,1
DA:67,1
DA:68,1
DA:69,1
DA:70,1
DA:71,0
DA:73,1
DA:74,1
DA:75,1
DA:76,1
DA:78,0
DA:80,1
DA:88,0
DA:89,0
DA:90,0
DA:91,0
DA:92,0
DA:93,0
DA:94,0
DA:95,0
DA:96,0
DA:97,0
DA:98,0
DA:99,0
DA:100,0
DA:103,0
DA:104,0
DA:105,0
DA:106,0
DA:108,0
DA:109,0
DA:110,0
DA:111,0
DA:113,0
DA:114,0
DA:115,0
DA:116,0
DA:119,0
DA:120,0
DA:121,0
DA:123,0
DA:125,0
DA:132,0
DA:134,0
DA:135,0
DA:136,0
DA:137,0
DA:138,0
DA:139,0
DA:140,0
DA:141,0
DA:142,0
DA:143,0
DA:144,0
DA:145,0
DA:146,0
DA:148,0
DA:149,0
DA:150,0
DA:151,0
DA:153,0
DA:154,0
DA:155,0
DA:157,0
DA:158,0
DA:159,0
DA:162,0
DA:163,0
DA:164,0
DA:165,0
DA:167,0
DA:168,0
DA:169,0
DA:170,0
DA:171,0
DA:172,0
DA:173,0
DA:176,0
DA:178,0
DA:184,0
DA:186,0
DA:191,1
DA:192,1
DA:193,1
DA:194,1
DA:195,1
DA:196,1
DA:197,1
DA:198,1
DA:200,1
DA:201,1
DA:202,0
DA:204,1
DA:205,1
DA:206,1
DA:207,1
DA:208,1
DA:210,0
DA:215,1
BRF:0
BRH:0
LF:135
LH:59
end_of_record
SF:/var/home/jack/Code/koan/src/builtins/union.rs
FN:188,_RNvNtNtCscUx3zdyuqfq_4koan8builtins5union11binder_name
FN:88,_RNvNtNtCscUx3zdyuqfq_4koan8builtins5union14finalize_union
FN:129,_RNvNtNtCscUx3zdyuqfq_4koan8builtins5union23defer_union_via_combine
FN:27,_RNvNtNtCscUx3zdyuqfq_4koan8builtins5union4body
FN:192,_RNvNtNtCscUx3zdyuqfq_4koan8builtins5union8register
FN:149,_RNCNvNtNtCscUx3zdyuqfq_4koan8builtins5union23defer_union_via_combine0B7_
FN:67,_RNCNvNtNtCscUx3zdyuqfq_4koan8builtins5union4body0B7_
FN:149,_RNCNvNtNtCseriWsCb5ev6_4koan8builtins5union23defer_union_via_combine0B7_
FN:67,_RNCNvNtNtCseriWsCb5ev6_4koan8builtins5union4body0B7_
FN:275,_RNvNtNtNtCseriWsCb5ev6_4koan8builtins5union5testss_26union_rejects_empty_schema
FN:286,_RNvNtNtNtCseriWsCb5ev6_4koan8builtins5union5testss_27union_rejects_duplicate_tag
FN:383,_RNvNtNtNtCseriWsCb5ev6_4koan8builtins5union5testss_28union_rejects_odd_part_count
FN:346,_RNvNtNtNtCseriWsCb5ev6_4koan8builtins5union5testss_29struct_union_mutual_recursion
FN:252,_RNvNtNtNtCseriWsCb5ev6_4koan8builtins5union5testss_30anonymous_union_fails_dispatch
FN:264,_RNvNtNtNtCseriWsCb5ev6_4koan8builtins5union5testss_31union_rejects_unknown_type_name
FN:221,_RNvNtNtNtCseriWsCb5ev6_4koan8builtins5union5testss_35union_named_registers_type_in_scope
FN:214,_RNvNtNtNtCseriWsCb5ev6_4koan8builtins5union5testss_37binder_name_extracts_named_union_name
FN:300,_RNvNtNtNtCseriWsCb5ev6_4koan8builtins5union5testss_55finalize_union_idempotent_after_cycle_close_pre_install
FN:188,_RNvNtNtCseriWsCb5ev6_4koan8builtins5union11binder_name
FN:88,_RNvNtNtCseriWsCb5ev6_4koan8builtins5union14finalize_union
FN:129,_RNvNtNtCseriWsCb5ev6_4koan8builtins5union23defer_union_via_combine
FN:27,_RNvNtNtCseriWsCb5ev6_4koan8builtins5union4body
FN:192,_RNvNtNtCseriWsCb5ev6_4koan8builtins5union8register
FNDA:2,_RNvNtNtCscUx3zdyuqfq_4koan8builtins5union11binder_name
FNDA:1,_RNvNtNtCscUx3zdyuqfq_4koan8builtins5union14finalize_union
FNDA:1,_RNvNtNtCscUx3zdyuqfq_4koan8builtins5union23defer_union_via_combine
FNDA:1,_RNvNtNtCscUx3zdyuqfq_4koan8builtins5union4body
FNDA:40,_RNvNtNtCscUx3zdyuqfq_4koan8builtins5union8register
FNDA:1,_RNCNvNtNtCscUx3zdyuqfq_4koan8builtins5union23defer_union_via_combine0B7_
FNDA:1,_RNCNvNtNtCscUx3zdyuqfq_4koan8builtins5union4body0B7_
FNDA:0,_RNCNvNtNtCseriWsCb5ev6_4koan8builtins5union23defer_union_via_combine0B7_
FNDA:30,_RNCNvNtNtCseriWsCb5ev6_4koan8builtins5union4body0B7_
FNDA:1,_RNvNtNtNtCseriWsCb5ev6_4koan8builtins5union5testss_26union_rejects_empty_schema
FNDA:1,_RNvNtNtNtCseriWsCb5ev6_4koan8builtins5union5testss_27union_rejects_duplicate_tag
FNDA:1,_RNvNtNtNtCseriWsCb5ev6_4koan8builtins5union5testss_28union_rejects_odd_part_count
FNDA:1,_RNvNtNtNtCseriWsCb5ev6_4koan8builtins5union5testss_29struct_union_mutual_recursion
FNDA:1,_RNvNtNtNtCseriWsCb5ev6_4koan8builtins5union5testss_30anonymous_union_fails_dispatch
FNDA:1,_RNvNtNtNtCseriWsCb5ev6_4koan8builtins5union5testss_31union_rejects_unknown_type_name
FNDA:1,_RNvNtNtNtCseriWsCb5ev6_4koan8builtins5union5testss_35union_named_registers_type_in_scope
FNDA:1,_RNvNtNtNtCseriWsCb5ev6_4koan8builtins5union5testss_37binder_name_extracts_named_union_name
FNDA:1,_RNvNtNtNtCseriWsCb5ev6_4koan8builtins5union5testss_55finalize_union_idempotent_after_cycle_close_pre_install
FNDA:61,_RNvNtNtCseriWsCb5ev6_4koan8builtins5union11binder_name
FNDA:29,_RNvNtNtCseriWsCb5ev6_4koan8builtins5union14finalize_union
FNDA:0,_RNvNtNtCseriWsCb5ev6_4koan8builtins5union23defer_union_via_combine
FNDA:30,_RNvNtNtCseriWsCb5ev6_4koan8builtins5union4body
FNDA:461,_RNvNtNtCseriWsCb5ev6_4koan8builtins5union8register
FNF:16
FNH:16
DA:27,31
DA:28,31
DA:29,31
DA:30,31
DA:31,31
DA:32,31
DA:33,31
DA:34,0
DA:36,31
DA:37,31
DA:39,0
DA:40,0
DA:41,0
DA:47,31
DA:48,31
DA:49,31
DA:50,31
DA:51,31
DA:52,31
DA:53,31
DA:54,31
DA:55,31
DA:60,31
DA:61,31
DA:62,31
DA:63,31
DA:64,31
DA:65,31
DA:66,31
DA:67,31
DA:68,31
DA:69,31
DA:70,27
DA:71,3
DA:72,1
DA:73,1
DA:74,1
DA:75,1
DA:76,1
DA:77,1
DA:78,1
DA:79,1
DA:80,1
DA:83,31
DA:88,30
DA:89,30
DA:90,30
DA:91,30
DA:92,30
DA:93,30
DA:96,30
DA:97,3
DA:98,30
DA:100,3
DA:101,1
DA:102,1
DA:103,1
DA:104,1
DA:105,1
DA:106,2
DA:107,27
DA:108,29
DA:109,1
DA:110,1
DA:111,1
DA:112,28
DA:115,28
DA:116,28
DA:117,28
DA:118,28
DA:119,28
DA:120,28
DA:121,28
DA:122,28
DA:123,27
DA:124,1
DA:126,30
DA:129,1
DA:130,1
DA:131,1
DA:132,1
DA:133,1
DA:134,1
DA:135,1
DA:136,1
DA:137,1
DA:138,1
DA:140,1
DA:141,1
DA:142,1
DA:143,1
DA:144,1
DA:145,1
DA:146,1
DA:147,1
DA:148,1
DA:149,1
DA:150,1
DA:151,1
DA:152,1
DA:153,1
DA:154,1
DA:155,0
DA:156,0
DA:157,0
DA:158,0
DA:159,0
DA:160,1
DA:161,1
DA:163,1
DA:164,1
DA:165,1
DA:166,1
DA:167,1
DA:168,1
DA:169,1
DA:170,1
DA:171,1
DA:173,0
DA:174,0
DA:175,0
DA:176,0
DA:177,0
DA:178,0
DA:179,0
DA:181,1
DA:182,1
DA:183,1
DA:184,1
DA:188,63
DA:189,63
DA:190,63
DA:192,501
DA:193,501
DA:194,501
DA:195,501
DA:196,501
DA:197,501
DA:198,501
DA:199,501
DA:200,501
DA:202,501
DA:203,501
DA:205,501
DA:214,1
DA:215,1
DA:216,1
DA:217,1
DA:218,1
DA:221,1
DA:223,1
DA:224,1
DA:227,1
DA:228,1
DA:229,1
DA:231,1
DA:232,1
DA:235,1
DA:236,1
DA:237,1
DA:238,1
DA:240,0
DA:242,1
DA:243,1
DA:246,1
DA:252,1
DA:253,1
DA:254,1
DA:255,1
DA:256,1
DA:257,1
DA:261,1
DA:264,1
DA:265,1
DA:266,1
DA:267,1
DA:268,1
DA:269,1
DA:272,1
DA:275,1
DA:276,1
DA:277,1
DA:278,1
DA:279,1
DA:280,1
DA:283,1
DA:286,1
DA:287,1
DA:288,1
DA:289,1
DA:290,1
DA:291,1
DA:294,1
DA:300,1
DA:302,1
DA:303,1
DA:304,1
DA:305,1
DA:306,1
DA:307,1
DA:308,1
DA:309,1
DA:310,1
DA:311,1
DA:312,1
DA:313,1
DA:314,1
DA:315,1
DA:317,1
DA:318,1
DA:319,1
DA:320,1
DA:322,0
DA:324,1
DA:325,1
DA:326,1
DA:327,1
DA:328,1
DA:330,1
DA:331,1
DA:332,1
DA:334,0
DA:336,1
DA:337,1
DA:340,1
DA:346,1
DA:348,1
DA:349,1
DA:352,1
DA:353,2
DA:354,1
DA:356,1
DA:357,2
DA:358,2
DA:359,2
DA:360,1
DA:362,1
DA:363,1
DA:364,0
DA:366,1
DA:367,1
DA:369,0
DA:371,1
DA:372,1
DA:373,0
DA:375,1
DA:376,1
DA:377,1
DA:380,1
DA:383,1
DA:386,1
DA:387,1
DA:388,1
DA:389,1
DA:390,1
DA:393,1
BRF:0
BRH:0
LF:258
LH:234
end_of_record
SF:/var/home/jack/Code/koan/src/builtins/using_scope.rs
FN:29,_RNvNtNtCscUx3zdyuqfq_4koan8builtins11using_scope4body
FN:74,_RNvNtNtCscUx3zdyuqfq_4koan8builtins11using_scope8register
FN:29,_RNvNtNtCseriWsCb5ev6_4koan8builtins11using_scope4body
FN:74,_RNvNtNtCseriWsCb5ev6_4koan8builtins11using_scope8register
FNDA:1,_RNvNtNtCscUx3zdyuqfq_4koan8builtins11using_scope4body
FNDA:40,_RNvNtNtCscUx3zdyuqfq_4koan8builtins11using_scope8register
FNDA:9,_RNvNtNtCseriWsCb5ev6_4koan8builtins11using_scope4body
FNDA:461,_RNvNtNtCseriWsCb5ev6_4koan8builtins11using_scope8register
FNF:2
FNH:2
DA:29,10
DA:30,10
DA:31,10
DA:32,10
DA:33,10
DA:34,10
DA:35,10
DA:36,10
DA:38,0
DA:39,0
DA:40,0
DA:41,0
DA:42,0
DA:43,0
DA:45,0
DA:47,10
DA:48,10
DA:50,0
DA:51,0
DA:52,0
DA:58,10
DA:59,2
DA:60,2
DA:61,2
DA:62,2
DA:63,8
DA:67,10
DA:68,10
DA:69,10
DA:70,10
DA:71,10
DA:72,10
DA:74,501
DA:75,501
DA:76,501
DA:77,501
DA:78,501
DA:79,501
DA:80,501
DA:81,501
DA:82,501
DA:84,501
DA:86,501
BRF:0
BRH:0
LF:43
LH:33
end_of_record
SF:/var/home/jack/Code/koan/src/builtins/val_decl.rs
FN:267,_RNvNtNtCscUx3zdyuqfq_4koan8builtins8val_decl11binder_name
FN:190,_RNvNtNtCscUx3zdyuqfq_4koan8builtins8val_decl12finalize_val
FN:153,_RNvNtNtCscUx3zdyuqfq_4koan8builtins8val_decl18collect_leaf_names
FN:205,_RNvNtNtCscUx3zdyuqfq_4koan8builtins8val_decl21defer_val_via_combine
FN:26,_RNvNtNtCscUx3zdyuqfq_4koan8builtins8val_decl21schedule_type_resolve
FN:35,_RNvNtNtCscUx3zdyuqfq_4koan8builtins8val_decl21typeexpr_from_carrier
FN:238,_RNvNtNtCscUx3zdyuqfq_4koan8builtins8val_decl32defer_val_structural_via_combine
FN:69,_RNvNtNtCscUx3zdyuqfq_4koan8builtins8val_decl4body
FN:274,_RNvNtNtCscUx3zdyuqfq_4koan8builtins8val_decl8register
FN:156,_RNvNvNtNtCscUx3zdyuqfq_4koan8builtins8val_decl18collect_leaf_names4walk
FN:215,_RNCNvNtNtCscUx3zdyuqfq_4koan8builtins8val_decl21defer_val_via_combine0B7_
FN:248,_RNCNvNtNtCscUx3zdyuqfq_4koan8builtins8val_decl32defer_val_structural_via_combine0B7_
FN:114,_RNCNvNtNtCscUx3zdyuqfq_4koan8builtins8val_decl4body0B7_
FN:215,_RNCNvNtNtCseriWsCb5ev6_4koan8builtins8val_decl21defer_val_via_combine0B7_
FN:248,_RNCNvNtNtCseriWsCb5ev6_4koan8builtins8val_decl32defer_val_structural_via_combine0B7_
FN:114,_RNCNvNtNtCseriWsCb5ev6_4koan8builtins8val_decl4body0B7_
FN:267,_RNvNtNtCseriWsCb5ev6_4koan8builtins8val_decl11binder_name
FN:190,_RNvNtNtCseriWsCb5ev6_4koan8builtins8val_decl12finalize_val
FN:153,_RNvNtNtCseriWsCb5ev6_4koan8builtins8val_decl18collect_leaf_names
FN:205,_RNvNtNtCseriWsCb5ev6_4koan8builtins8val_decl21defer_val_via_combine
FN:26,_RNvNtNtCseriWsCb5ev6_4koan8builtins8val_decl21schedule_type_resolve
FN:35,_RNvNtNtCseriWsCb5ev6_4koan8builtins8val_decl21typeexpr_from_carrier
FN:238,_RNvNtNtCseriWsCb5ev6_4koan8builtins8val_decl32defer_val_structural_via_combine
FN:69,_RNvNtNtCseriWsCb5ev6_4koan8builtins8val_decl4body
FN:274,_RNvNtNtCseriWsCb5ev6_4koan8builtins8val_decl8register
FN:156,_RNvNvNtNtCseriWsCb5ev6_4koan8builtins8val_decl18collect_leaf_names4walk
FNDA:32,_RNvNtNtCscUx3zdyuqfq_4koan8builtins8val_decl11binder_name
FNDA:13,_RNvNtNtCscUx3zdyuqfq_4koan8builtins8val_decl12finalize_val
FNDA:0,_RNvNtNtCscUx3zdyuqfq_4koan8builtins8val_decl18collect_leaf_names
FNDA:7,_RNvNtNtCscUx3zdyuqfq_4koan8builtins8val_decl21defer_val_via_combine
FNDA:7,_RNvNtNtCscUx3zdyuqfq_4koan8builtins8val_decl21schedule_type_resolve
FNDA:13,_RNvNtNtCscUx3zdyuqfq_4koan8builtins8val_decl21typeexpr_from_carrier
FNDA:0,_RNvNtNtCscUx3zdyuqfq_4koan8builtins8val_decl32defer_val_structural_via_combine
FNDA:13,_RNvNtNtCscUx3zdyuqfq_4koan8builtins8val_decl4body
FNDA:40,_RNvNtNtCscUx3zdyuqfq_4koan8builtins8val_decl8register
FNDA:0,_RNvNvNtNtCscUx3zdyuqfq_4koan8builtins8val_decl18collect_leaf_names4walk
FNDA:7,_RNCNvNtNtCscUx3zdyuqfq_4koan8builtins8val_decl21defer_val_via_combine0B7_
FNDA:0,_RNCNvNtNtCscUx3zdyuqfq_4koan8builtins8val_decl32defer_val_structural_via_combine0B7_
FNDA:13,_RNCNvNtNtCscUx3zdyuqfq_4koan8builtins8val_decl4body0B7_
FNDA:59,_RNCNvNtNtCseriWsCb5ev6_4koan8builtins8val_decl21defer_val_via_combine0B7_
FNDA:0,_RNCNvNtNtCseriWsCb5ev6_4koan8builtins8val_decl32defer_val_structural_via_combine0B7_
FNDA:61,_RNCNvNtNtCseriWsCb5ev6_4koan8builtins8val_decl4body0B7_
FNDA:127,_RNvNtNtCseriWsCb5ev6_4koan8builtins8val_decl11binder_name
FNDA:60,_RNvNtNtCseriWsCb5ev6_4koan8builtins8val_decl12finalize_val
FNDA:0,_RNvNtNtCseriWsCb5ev6_4koan8builtins8val_decl18collect_leaf_names
FNDA:60,_RNvNtNtCseriWsCb5ev6_4koan8builtins8val_decl21defer_val_via_combine
FNDA:60,_RNvNtNtCseriWsCb5ev6_4koan8builtins8val_decl21schedule_type_resolve
FNDA:61,_RNvNtNtCseriWsCb5ev6_4koan8builtins8val_decl21typeexpr_from_carrier
FNDA:0,_RNvNtNtCseriWsCb5ev6_4koan8builtins8val_decl32defer_val_structural_via_combine
FNDA:63,_RNvNtNtCseriWsCb5ev6_4koan8builtins8val_decl4body
FNDA:461,_RNvNtNtCseriWsCb5ev6_4koan8builtins8val_decl8register
FNDA:0,_RNvNvNtNtCseriWsCb5ev6_4koan8builtins8val_decl18collect_leaf_names4walk
FNF:13
FNH:9
DA:26,67
DA:27,67
DA:28,67
DA:29,67
DA:30,67
DA:31,67
DA:32,67
DA:33,67
DA:35,74
DA:36,74
DA:37,72
DA:48,65
DA:49,7
DA:51,2
DA:52,0
DA:53,0
DA:54,0
DA:55,0
DA:56,0
DA:58,74
DA:69,76
DA:70,76
DA:71,76
DA:72,76
DA:73,76
DA:74,76
DA:75,2
DA:76,2
DA:77,2
DA:78,2
DA:79,2
DA:80,74
DA:82,74
DA:83,74
DA:84,0
DA:85,0
DA:86,0
DA:87,0
DA:88,0
DA:89,0
DA:91,0
DA:95,74
DA:96,0
DA:97,0
DA:98,0
DA:99,0
DA:100,74
DA:102,74
DA:103,74
DA:104,0
DA:106,74
DA:107,74
DA:108,0
DA:112,74
DA:113,74
DA:114,74
DA:115,74
DA:117,74
DA:118,7
DA:119,65
DA:120,65
DA:121,65
DA:123,2
DA:124,2
DA:125,2
DA:126,2
DA:127,0
DA:128,0
DA:129,0
DA:130,0
DA:133,0
DA:134,0
DA:135,0
DA:136,0
DA:137,0
DA:138,0
DA:139,0
DA:140,0
DA:143,0
DA:144,0
DA:149,76
DA:153,0
DA:154,0
DA:155,0
DA:156,0
DA:157,0
DA:158,0
DA:159,0
DA:160,0
DA:161,0
DA:163,0
DA:164,0
DA:165,0
DA:167,0
DA:169,0
DA:170,0
DA:171,0
DA:172,0
DA:173,0
DA:174,0
DA:176,0
DA:179,0
DA:180,0
DA:181,0
DA:182,0
DA:185,0
DA:186,0
DA:187,0
DA:188,0
DA:190,73
DA:191,73
DA:192,73
DA:193,73
DA:194,73
DA:195,73
DA:196,73
DA:197,73
DA:198,73
DA:199,0
DA:200,73
DA:201,73
DA:202,73
DA:205,67
DA:206,67
DA:207,67
DA:208,67
DA:209,67
DA:210,67
DA:211,67
DA:212,67
DA:213,67
DA:214,67
DA:215,67
DA:216,66
DA:217,66
DA:218,66
DA:219,66
DA:221,0
DA:222,0
DA:223,0
DA:224,0
DA:225,0
DA:226,0
DA:229,66
DA:230,66
DA:231,67
DA:232,67
DA:233,67
DA:238,0
DA:239,0
DA:240,0
DA:241,0
DA:242,0
DA:243,0
DA:244,0
DA:245,0
DA:246,0
DA:247,0
DA:248,0
DA:249,0
DA:250,0
DA:251,0
DA:253,0
DA:254,0
DA:255,0
DA:256,0
DA:257,0
DA:258,0
DA:259,0
DA:262,0
DA:263,0
DA:264,0
DA:265,0
DA:267,159
DA:268,159
DA:269,159
DA:270,0
DA:272,159
DA:274,501
DA:276,501
DA:277,501
DA:278,501
DA:279,501
DA:280,501
DA:281,501
DA:282,501
DA:284,501
DA:285,501
DA:287,501
BRF:0
BRH:0
LF:192
LH:98
end_of_record
SF:/var/home/jack/Code/koan/src/machine/core/arena.rs
FN:268,_RNvNtNtNtCscUx3zdyuqfq_4koan7machine4core5arena14null_singleton
FN:270,_RNvNtNtNtCscUx3zdyuqfq_4koan7machine4core5arena14true_singleton
FN:272,_RNvNtNtNtCscUx3zdyuqfq_4koan7machine4core5arena15false_singleton
FN:253,_RNvNtNtNtCscUx3zdyuqfq_4koan7machine4core5arena7project
FN:170,_RNvXs0_NtNtNtCscUx3zdyuqfq_4koan7machine4core5arenaNtNtNtNtB9_5model6values7kobject7KObjectNtB5_10CycleGated10anchors_to
FN:173,_RNvXs0_NtNtNtCscUx3zdyuqfq_4koan7machine4core5arenaNtNtNtNtB9_5model6values7kobject7KObjectNtB5_10CycleGated11alloc_local
FN:186,_RNvXs1_NtNtNtCscUx3zdyuqfq_4koan7machine4core5arenaNtNtNtNtB9_5model5types5ktype5KTypeNtB5_10CycleGated10anchors_to
FN:189,_RNvXs1_NtNtNtCscUx3zdyuqfq_4koan7machine4core5arenaNtNtNtNtB9_5model5types5ktype5KTypeNtB5_10CycleGated11alloc_local
FN:93,_RNvMNtNtNtCscUx3zdyuqfq_4koan7machine4core5arenaNtB2_12RuntimeArena11alloc_scope
FN:66,_RNvMNtNtNtCscUx3zdyuqfq_4koan7machine4core5arenaNtB2_12RuntimeArena11owns_object
FN:51,_RNvMNtNtNtCscUx3zdyuqfq_4koan7machine4core5arenaNtB2_12RuntimeArena11with_escape
FN:101,_RNvMNtNtNtCscUx3zdyuqfq_4koan7machine4core5arenaNtB2_12RuntimeArena12alloc_module
FN:80,_RNvMNtNtNtCscUx3zdyuqfq_4koan7machine4core5arenaNtB2_12RuntimeArena14alloc_function
FN:109,_RNvMNtNtNtCscUx3zdyuqfq_4koan7machine4core5arenaNtB2_12RuntimeArena15alloc_signature
FN:120,_RNvMNtNtNtCscUx3zdyuqfq_4koan7machine4core5arenaNtB2_12RuntimeArena18functions_is_empty
FN:37,_RNvMNtNtNtCscUx3zdyuqfq_4koan7machine4core5arenaNtB2_12RuntimeArena3new
FN:332,_RNvMs3_NtNtNtCscUx3zdyuqfq_4koan7machine4core5arenaNtB5_9CallArena14scope_for_bind
FN:345,_RNvMs3_NtNtNtCscUx3zdyuqfq_4koan7machine4core5arenaNtB5_9CallArena18try_reset_for_tail
FN:292,_RNvMs3_NtNtNtCscUx3zdyuqfq_4koan7machine4core5arenaNtB5_9CallArena3new
FN:338,_RNvMs3_NtNtNtCscUx3zdyuqfq_4koan7machine4core5arenaNtB5_9CallArena5arena
FN:319,_RNvMs3_NtNtNtCscUx3zdyuqfq_4koan7machine4core5arenaNtB5_9CallArena5scope
FN:130,_RNvNtNtNtCscUx3zdyuqfq_4koan7machine4core5arena10rc_targets
FN:134,_RNvNtNtNtCscUx3zdyuqfq_4koan7machine4core5arena14obj_anchors_to
FN:148,_RNvNtNtNtCscUx3zdyuqfq_4koan7machine4core5arena16ktype_anchors_to
FN:124,_RNvXs_NtNtNtCscUx3zdyuqfq_4koan7machine4core5arenaNtB4_12RuntimeArenaNtNtCs27Vx93FoQ6z_4core7default7Default7default
FN:208,_RINvMs2_NtNtNtCscUx3zdyuqfq_4koan7machine4core5arenaNtB6_12RuntimeArena5allocNtNtNtNtBa_5model5types5ktype5KTypeEBc_
FN:208,_RINvMs2_NtNtNtCscUx3zdyuqfq_4koan7machine4core5arenaNtB6_12RuntimeArena5allocNtNtNtNtBa_5model6values7kobject7KObjectEBc_
FN:140,_RNCNvNtNtNtCscUx3zdyuqfq_4koan7machine4core5arena14obj_anchors_to0B9_
FN:143,_RNCNvNtNtNtCscUx3zdyuqfq_4koan7machine4core5arena14obj_anchors_tos0_0B9_
FN:141,_RNCNvNtNtNtCscUx3zdyuqfq_4koan7machine4core5arena14obj_anchors_tos_0B9_
FN:411,_RNvNtNtNtNtCseriWsCb5ev6_4koan7machine4core5arena5testss_20singletons_aliasable
FN:387,_RNvNtNtNtNtCseriWsCb5ev6_4koan7machine4core5arena5testss_35null_singleton_returns_null_kobject
FN:393,_RNvNtNtNtNtCseriWsCb5ev6_4koan7machine4core5arena5testss_37bool_singletons_return_correct_values
FN:451,_RNvNtNtNtNtCseriWsCb5ev6_4koan7machine4core5arena5testss_37call_arena_scope_repeated_calls_alias
FN:466,_RNvNtNtNtNtCseriWsCb5ev6_4koan7machine4core5arena5testss_39call_arena_chained_outer_frame_walkable
FN:520,_RNvNtNtNtNtCseriWsCb5ev6_4koan7machine4core5arena5testss_40call_arena_try_reset_for_tail_round_trip
FN:498,_RNvNtNtNtNtCseriWsCb5ev6_4koan7machine4core5arena5testss_40runtime_arena_alloc_while_prior_ref_live
FN:422,_RNvNtNtNtNtCseriWsCb5ev6_4koan7machine4core5arena5testss_42call_arena_scope_survives_subsequent_alloc
FN:403,_RNvNtNtNtNtCseriWsCb5ev6_4koan7machine4core5arena5testss_43singleton_ref_independent_of_arena_lifetime
FN:508,_RNvNtNtNtNtCseriWsCb5ev6_4koan7machine4core5arena5testss_49alloc_ktype_returns_arena_lifetime_ref_and_counts
FN:544,_RNvNtNtNtNtCseriWsCb5ev6_4koan7machine4core5arena5testss_50call_arena_try_reset_for_tail_refuses_when_aliased
FN:480,_RNvNtNtNtNtCseriWsCb5ev6_4koan7machine4core5arena5testss_53call_arena_scope_re_anchored_into_struct_alongside_rc
FN:567,_RNvNtNtNtNtCseriWsCb5ev6_4koan7machine4core5arena5testss_58alloc_object_redirects_self_anchored_value_to_escape_arena
FN:435,_RNvNtNtNtNtCseriWsCb5ev6_4koan7machine4core5arena5testss_64call_arena_scope_survives_subsequent_alloc_via_raw_ptr_roundtrip
FN:332,_RNvMs4_NtNtNtCseriWsCb5ev6_4koan7machine4core5arenaNtB5_9CallArena14scope_for_bind
FN:124,_RNvXs_NtNtNtCseriWsCb5ev6_4koan7machine4core5arenaNtB4_12RuntimeArenaNtNtCs27Vx93FoQ6z_4core7default7Default7default
FN:186,_RNvXs1_NtNtNtCseriWsCb5ev6_4koan7machine4core5arenaNtNtNtNtB9_5model5types5ktype5KTypeNtB5_10CycleGated10anchors_to
FN:189,_RNvXs1_NtNtNtCseriWsCb5ev6_4koan7machine4core5arenaNtNtNtNtB9_5model5types5ktype5KTypeNtB5_10CycleGated11alloc_local
FN:208,_RINvMs2_NtNtNtCseriWsCb5ev6_4koan7machine4core5arenaNtB6_12RuntimeArena5allocNtNtNtNtBa_5model5types5ktype5KTypeEBc_
FN:208,_RINvMs2_NtNtNtCseriWsCb5ev6_4koan7machine4core5arenaNtB6_12RuntimeArena5allocNtNtNtNtBa_5model6values7kobject7KObjectEBc_
FN:140,_RNCNvNtNtNtCseriWsCb5ev6_4koan7machine4core5arena14obj_anchors_to0B9_
FN:143,_RNCNvNtNtNtCseriWsCb5ev6_4koan7machine4core5arena14obj_anchors_tos0_0B9_
FN:141,_RNCNvNtNtNtCseriWsCb5ev6_4koan7machine4core5arena14obj_anchors_tos_0B9_
FN:170,_RNvXs0_NtNtNtCseriWsCb5ev6_4koan7machine4core5arenaNtNtNtNtB9_5model6values7kobject7KObjectNtB5_10CycleGated10anchors_to
FN:173,_RNvXs0_NtNtNtCseriWsCb5ev6_4koan7machine4core5arenaNtNtNtNtB9_5model6values7kobject7KObjectNtB5_10CycleGated11alloc_local
FN:581,_RNCNvNtNtNtNtCseriWsCb5ev6_4koan7machine4core5arena5testss_58alloc_object_redirects_self_anchored_value_to_escape_arena0Bb_
FN:93,_RNvMNtNtNtCseriWsCb5ev6_4koan7machine4core5arenaNtB2_12RuntimeArena11alloc_scope
FN:66,_RNvMNtNtNtCseriWsCb5ev6_4koan7machine4core5arenaNtB2_12RuntimeArena11owns_object
FN:51,_RNvMNtNtNtCseriWsCb5ev6_4koan7machine4core5arenaNtB2_12RuntimeArena11with_escape
FN:101,_RNvMNtNtNtCseriWsCb5ev6_4koan7machine4core5arenaNtB2_12RuntimeArena12alloc_module
FN:80,_RNvMNtNtNtCseriWsCb5ev6_4koan7machine4core5arenaNtB2_12RuntimeArena14alloc_function
FN:109,_RNvMNtNtNtCseriWsCb5ev6_4koan7machine4core5arenaNtB2_12RuntimeArena15alloc_signature
FN:120,_RNvMNtNtNtCseriWsCb5ev6_4koan7machine4core5arenaNtB2_12RuntimeArena18functions_is_empty
FN:37,_RNvMNtNtNtCseriWsCb5ev6_4koan7machine4core5arenaNtB2_12RuntimeArena3new
FN:225,_RNvMs3_NtNtNtCseriWsCb5ev6_4koan7machine4core5arenaNtB5_12RuntimeArena11alloc_count
FN:345,_RNvMs4_NtNtNtCseriWsCb5ev6_4koan7machine4core5arenaNtB5_9CallArena18try_reset_for_tail
FN:292,_RNvMs4_NtNtNtCseriWsCb5ev6_4koan7machine4core5arenaNtB5_9CallArena3new
FN:338,_RNvMs4_NtNtNtCseriWsCb5ev6_4koan7machine4core5arenaNtB5_9CallArena5arena
FN:319,_RNvMs4_NtNtNtCseriWsCb5ev6_4koan7machine4core5arenaNtB5_9CallArena5scope
FN:130,_RNvNtNtNtCseriWsCb5ev6_4koan7machine4core5arena10rc_targets
FN:268,_RNvNtNtNtCseriWsCb5ev6_4koan7machine4core5arena14null_singleton
FN:134,_RNvNtNtNtCseriWsCb5ev6_4koan7machine4core5arena14obj_anchors_to
FN:270,_RNvNtNtNtCseriWsCb5ev6_4koan7machine4core5arena14true_singleton
FN:272,_RNvNtNtNtCseriWsCb5ev6_4koan7machine4core5arena15false_singleton
FN:148,_RNvNtNtNtCseriWsCb5ev6_4koan7machine4core5arena16ktype_anchors_to
FN:253,_RNvNtNtNtCseriWsCb5ev6_4koan7machine4core5arena7project
FNDA:0,_RNvNtNtNtCscUx3zdyuqfq_4koan7machine4core5arena14null_singleton
FNDA:0,_RNvNtNtNtCscUx3zdyuqfq_4koan7machine4core5arena14true_singleton
FNDA:0,_RNvNtNtNtCscUx3zdyuqfq_4koan7machine4core5arena15false_singleton
FNDA:0,_RNvNtNtNtCscUx3zdyuqfq_4koan7machine4core5arena7project
FNDA:25,_RNvXs0_NtNtNtCscUx3zdyuqfq_4koan7machine4core5arenaNtNtNtNtB9_5model6values7kobject7KObjectNtB5_10CycleGated10anchors_to
FNDA:1757,_RNvXs0_NtNtNtCscUx3zdyuqfq_4koan7machine4core5arenaNtNtNtNtB9_5model6values7kobject7KObjectNtB5_10CycleGated11alloc_local
FNDA:8,_RNvXs1_NtNtNtCscUx3zdyuqfq_4koan7machine4core5arenaNtNtNtNtB9_5model5types5ktype5KTypeNtB5_10CycleGated10anchors_to
FNDA:620,_RNvXs1_NtNtNtCscUx3zdyuqfq_4koan7machine4core5arenaNtNtNtNtB9_5model5types5ktype5KTypeNtB5_10CycleGated11alloc_local
FNDA:79,_RNvMNtNtNtCscUx3zdyuqfq_4koan7machine4core5arenaNtB2_12RuntimeArena11alloc_scope
FNDA:0,_RNvMNtNtNtCscUx3zdyuqfq_4koan7machine4core5arenaNtB2_12RuntimeArena11owns_object
FNDA:7,_RNvMNtNtNtCscUx3zdyuqfq_4koan7machine4core5arenaNtB2_12RuntimeArena11with_escape
FNDA:20,_RNvMNtNtNtCscUx3zdyuqfq_4koan7machine4core5arenaNtB2_12RuntimeArena12alloc_module
FNDA:1534,_RNvMNtNtNtCscUx3zdyuqfq_4koan7machine4core5arenaNtB2_12RuntimeArena14alloc_function
FNDA:13,_RNvMNtNtNtCscUx3zdyuqfq_4koan7machine4core5arenaNtB2_12RuntimeArena15alloc_signature
FNDA:15,_RNvMNtNtNtCscUx3zdyuqfq_4koan7machine4core5arenaNtB2_12RuntimeArena18functions_is_empty
FNDA:40,_RNvMNtNtNtCscUx3zdyuqfq_4koan7machine4core5arenaNtB2_12RuntimeArena3new
FNDA:0,_RNvMs3_NtNtNtCscUx3zdyuqfq_4koan7machine4core5arenaNtB5_9CallArena14scope_for_bind
FNDA:0,_RNvMs3_NtNtNtCscUx3zdyuqfq_4koan7machine4core5arenaNtB5_9CallArena18try_reset_for_tail
FNDA:7,_RNvMs3_NtNtNtCscUx3zdyuqfq_4koan7machine4core5arenaNtB5_9CallArena3new
FNDA:30,_RNvMs3_NtNtNtCscUx3zdyuqfq_4koan7machine4core5arenaNtB5_9CallArena5arena
FNDA:28,_RNvMs3_NtNtNtCscUx3zdyuqfq_4koan7machine4core5arenaNtB5_9CallArena5scope
FNDA:8,_RNvNtNtNtCscUx3zdyuqfq_4koan7machine4core5arena10rc_targets
FNDA:26,_RNvNtNtNtCscUx3zdyuqfq_4koan7machine4core5arena14obj_anchors_to
FNDA:20,_RNvNtNtNtCscUx3zdyuqfq_4koan7machine4core5arena16ktype_anchors_to
FNDA:0,_RNvXs_NtNtNtCscUx3zdyuqfq_4koan7machine4core5arenaNtB4_12RuntimeArenaNtNtCs27Vx93FoQ6z_4core7default7Default7default
FNDA:624,_RINvMs2_NtNtNtCscUx3zdyuqfq_4koan7machine4core5arenaNtB6_12RuntimeArena5allocNtNtNtNtBa_5model5types5ktype5KTypeEBc_
FNDA:1761,_RINvMs2_NtNtNtCscUx3zdyuqfq_4koan7machine4core5arenaNtB6_12RuntimeArena5allocNtNtNtNtBa_5model6values7kobject7KObjectEBc_
FNDA:0,_RNCNvNtNtNtCscUx3zdyuqfq_4koan7machine4core5arena14obj_anchors_to0B9_
FNDA:1,_RNCNvNtNtNtCscUx3zdyuqfq_4koan7machine4core5arena14obj_anchors_tos0_0B9_
FNDA:0,_RNCNvNtNtNtCscUx3zdyuqfq_4koan7machine4core5arena14obj_anchors_tos_0B9_
FNDA:1,_RNvNtNtNtNtCseriWsCb5ev6_4koan7machine4core5arena5testss_20singletons_aliasable
FNDA:1,_RNvNtNtNtNtCseriWsCb5ev6_4koan7machine4core5arena5testss_35null_singleton_returns_null_kobject
FNDA:1,_RNvNtNtNtNtCseriWsCb5ev6_4koan7machine4core5arena5testss_37bool_singletons_return_correct_values
FNDA:1,_RNvNtNtNtNtCseriWsCb5ev6_4koan7machine4core5arena5testss_37call_arena_scope_repeated_calls_alias
FNDA:1,_RNvNtNtNtNtCseriWsCb5ev6_4koan7machine4core5arena5testss_39call_arena_chained_outer_frame_walkable
FNDA:1,_RNvNtNtNtNtCseriWsCb5ev6_4koan7machine4core5arena5testss_40call_arena_try_reset_for_tail_round_trip
FNDA:1,_RNvNtNtNtNtCseriWsCb5ev6_4koan7machine4core5arena5testss_40runtime_arena_alloc_while_prior_ref_live
FNDA:1,_RNvNtNtNtNtCseriWsCb5ev6_4koan7machine4core5arena5testss_42call_arena_scope_survives_subsequent_alloc
FNDA:1,_RNvNtNtNtNtCseriWsCb5ev6_4koan7machine4core5arena5testss_43singleton_ref_independent_of_arena_lifetime
FNDA:1,_RNvNtNtNtNtCseriWsCb5ev6_4koan7machine4core5arena5testss_49alloc_ktype_returns_arena_lifetime_ref_and_counts
FNDA:1,_RNvNtNtNtNtCseriWsCb5ev6_4koan7machine4core5arena5testss_50call_arena_try_reset_for_tail_refuses_when_aliased
FNDA:1,_RNvNtNtNtNtCseriWsCb5ev6_4koan7machine4core5arena5testss_53call_arena_scope_re_anchored_into_struct_alongside_rc
FNDA:1,_RNvNtNtNtNtCseriWsCb5ev6_4koan7machine4core5arena5testss_58alloc_object_redirects_self_anchored_value_to_escape_arena
FNDA:1,_RNvNtNtNtNtCseriWsCb5ev6_4koan7machine4core5arena5testss_64call_arena_scope_survives_subsequent_alloc_via_raw_ptr_roundtrip
FNDA:0,_RNvMs4_NtNtNtCseriWsCb5ev6_4koan7machine4core5arenaNtB5_9CallArena14scope_for_bind
FNDA:0,_RNvXs_NtNtNtCseriWsCb5ev6_4koan7machine4core5arenaNtB4_12RuntimeArenaNtNtCs27Vx93FoQ6z_4core7default7Default7default
FNDA:49,_RNvXs1_NtNtNtCseriWsCb5ev6_4koan7machine4core5arenaNtNtNtNtB9_5model5types5ktype5KTypeNtB5_10CycleGated10anchors_to
FNDA:6865,_RNvXs1_NtNtNtCseriWsCb5ev6_4koan7machine4core5arenaNtNtNtNtB9_5model5types5ktype5KTypeNtB5_10CycleGated11alloc_local
FNDA:6885,_RINvMs2_NtNtNtCseriWsCb5ev6_4koan7machine4core5arenaNtB6_12RuntimeArena5allocNtNtNtNtBa_5model5types5ktype5KTypeEBc_
FNDA:20428,_RINvMs2_NtNtNtCseriWsCb5ev6_4koan7machine4core5arenaNtB6_12RuntimeArena5allocNtNtNtNtBa_5model6values7kobject7KObjectEBc_
FNDA:60,_RNCNvNtNtNtCseriWsCb5ev6_4koan7machine4core5arena14obj_anchors_to0B9_
FNDA:32,_RNCNvNtNtNtCseriWsCb5ev6_4koan7machine4core5arena14obj_anchors_tos0_0B9_
FNDA:4,_RNCNvNtNtNtCseriWsCb5ev6_4koan7machine4core5arena14obj_anchors_tos_0B9_
FNDA:692,_RNvXs0_NtNtNtCseriWsCb5ev6_4koan7machine4core5arenaNtNtNtNtB9_5model6values7kobject7KObjectNtB5_10CycleGated10anchors_to
FNDA:20406,_RNvXs0_NtNtNtCseriWsCb5ev6_4koan7machine4core5arenaNtNtNtNtB9_5model6values7kobject7KObjectNtB5_10CycleGated11alloc_local
FNDA:0,_RNCNvNtNtNtNtCseriWsCb5ev6_4koan7machine4core5arena5testss_58alloc_object_redirects_self_anchored_value_to_escape_arena0Bb_
FNDA:1160,_RNvMNtNtNtCseriWsCb5ev6_4koan7machine4core5arenaNtB2_12RuntimeArena11alloc_scope
FNDA:7,_RNvMNtNtNtCseriWsCb5ev6_4koan7machine4core5arenaNtB2_12RuntimeArena11owns_object
FNDA:426,_RNvMNtNtNtCseriWsCb5ev6_4koan7machine4core5arenaNtB2_12RuntimeArena11with_escape
FNDA:129,_RNvMNtNtNtCseriWsCb5ev6_4koan7machine4core5arenaNtB2_12RuntimeArena12alloc_module
FNDA:17768,_RNvMNtNtNtCseriWsCb5ev6_4koan7machine4core5arenaNtB2_12RuntimeArena14alloc_function
FNDA:72,_RNvMNtNtNtCseriWsCb5ev6_4koan7machine4core5arenaNtB2_12RuntimeArena15alloc_signature
FNDA:499,_RNvMNtNtNtCseriWsCb5ev6_4koan7machine4core5arenaNtB2_12RuntimeArena18functions_is_empty
FNDA:539,_RNvMNtNtNtCseriWsCb5ev6_4koan7machine4core5arenaNtB2_12RuntimeArena3new
FNDA:6,_RNvMs3_NtNtNtCseriWsCb5ev6_4koan7machine4core5arenaNtB5_12RuntimeArena11alloc_count
FNDA:8,_RNvMs4_NtNtNtCseriWsCb5ev6_4koan7machine4core5arenaNtB5_9CallArena18try_reset_for_tail
FNDA:419,_RNvMs4_NtNtNtCseriWsCb5ev6_4koan7machine4core5arenaNtB5_9CallArena3new
FNDA:1015,_RNvMs4_NtNtNtCseriWsCb5ev6_4koan7machine4core5arenaNtB5_9CallArena5arena
FNDA:1377,_RNvMs4_NtNtNtCseriWsCb5ev6_4koan7machine4core5arenaNtB5_9CallArena5scope
FNDA:42,_RNvNtNtNtCseriWsCb5ev6_4koan7machine4core5arena10rc_targets
FNDA:4,_RNvNtNtNtCseriWsCb5ev6_4koan7machine4core5arena14null_singleton
FNDA:857,_RNvNtNtNtCseriWsCb5ev6_4koan7machine4core5arena14obj_anchors_to
FNDA:1,_RNvNtNtNtCseriWsCb5ev6_4koan7machine4core5arena14true_singleton
FNDA:1,_RNvNtNtNtCseriWsCb5ev6_4koan7machine4core5arena15false_singleton
FNDA:147,_RNvNtNtNtCseriWsCb5ev6_4koan7machine4core5arena16ktype_anchors_to
FNDA:6,_RNvNtNtNtCseriWsCb5ev6_4koan7machine4core5arena7project
FNF:45
FNH:42
DA:37,579
DA:38,579
DA:39,579
DA:40,579
DA:41,579
DA:42,579
DA:43,579
DA:44,579
DA:45,579
DA:46,579
DA:47,579
DA:48,579
DA:51,433
DA:52,433
DA:53,433
DA:54,433
DA:55,433
DA:56,433
DA:57,433
DA:58,433
DA:59,433
DA:60,433
DA:61,433
DA:62,433
DA:66,7
DA:70,7
DA:71,7
DA:72,7
DA:80,19302
DA:81,19302
DA:82,19302
DA:86,19302
DA:87,19302
DA:89,19302
DA:90,19302
DA:91,19302
DA:93,1239
DA:94,1239
DA:95,1239
DA:97,1239
DA:98,1239
DA:99,1239
DA:101,149
DA:102,149
DA:103,149
DA:105,149
DA:106,149
DA:107,149
DA:109,85
DA:110,85
DA:111,85
DA:113,85
DA:114,85
DA:115,85
DA:120,514
DA:124,0
DA:130,50
DA:131,50
DA:132,50
DA:134,883
DA:135,0
DA:136,2
DA:137,0
DA:139,110
DA:140,60
DA:141,4
DA:142,69
DA:143,33
DA:144,644
DA:146,883
DA:148,167
DA:149,100
DA:150,48
DA:151,119
DA:153,167
DA:170,717
DA:171,717
DA:172,717
DA:173,22163
DA:174,22163
DA:175,22163
DA:177,22163
DA:178,22163
DA:179,22163
DA:180,22163
DA:181,22163
DA:182,22163
DA:186,57
DA:187,57
DA:188,57
DA:189,7485
DA:190,7485
DA:191,7485
DA:193,7485
DA:194,7485
DA:195,7485
DA:208,29698
DA:209,29698
DA:210,774
DA:211,774
DA:212,50
DA:213,50
DA:214,724
DA:215,28924
DA:216,29648
DA:217,29698
DA:225,6
DA:226,6
DA:227,6
DA:228,6
DA:229,6
DA:230,6
DA:231,6
DA:232,6
DA:253,6
DA:257,6
DA:258,4
DA:259,1
DA:260,1
DA:265,6
DA:266,6
DA:268,4
DA:270,1
DA:272,1
DA:292,426
DA:293,426
DA:294,426
DA:295,426
DA:296,426
DA:297,426
DA:298,426
DA:299,426
DA:302,426
DA:303,426
DA:304,426
DA:306,426
DA:308,426
DA:309,426
DA:312,426
DA:313,426
DA:314,426
DA:315,426
DA:316,426
DA:317,426
DA:319,1405
DA:321,1405
DA:323,1405
DA:332,0
DA:334,0
DA:336,0
DA:338,1045
DA:345,8
DA:346,8
DA:347,8
DA:348,8
DA:349,8
DA:350,1
DA:351,7
DA:352,7
DA:355,7
DA:356,7
DA:358,7
DA:359,7
DA:360,7
DA:361,7
DA:362,7
DA:364,7
DA:365,7
DA:366,7
DA:367,7
DA:369,7
DA:370,7
DA:371,7
DA:372,8
DA:387,1
DA:388,1
DA:389,1
DA:390,1
DA:393,1
DA:394,1
DA:395,1
DA:396,1
DA:397,1
DA:398,1
DA:403,1
DA:404,1
DA:405,1
DA:406,1
DA:411,1
DA:412,1
DA:413,1
DA:414,1
DA:415,1
DA:416,1
DA:422,1
DA:423,1
DA:424,1
DA:425,1
DA:426,1
DA:427,1
DA:428,1
DA:429,1
DA:435,1
DA:436,1
DA:437,1
DA:438,1
DA:439,1
DA:440,1
DA:441,1
DA:442,1
DA:443,1
DA:444,1
DA:445,1
DA:446,1
DA:451,1
DA:452,1
DA:453,1
DA:454,1
DA:455,1
DA:456,1
DA:457,1
DA:458,1
DA:459,1
DA:460,1
DA:461,1
DA:466,1
DA:467,1
DA:468,1
DA:469,1
DA:470,1
DA:471,1
DA:472,1
DA:473,1
DA:474,1
DA:475,1
DA:480,1
DA:483,1
DA:484,1
DA:485,1
DA:486,1
DA:487,1
DA:488,1
DA:490,1
DA:492,1
DA:493,1
DA:498,1
DA:499,1
DA:500,1
DA:501,1
DA:502,1
DA:503,1
DA:504,1
DA:508,1
DA:509,1
DA:510,1
DA:511,1
DA:512,1
DA:513,1
DA:514,1
DA:520,1
DA:521,1
DA:522,1
DA:523,1
DA:524,1
DA:525,1
DA:527,1
DA:528,1
DA:531,1
DA:533,1
DA:534,1
DA:535,1
DA:536,1
DA:537,1
DA:544,1
DA:545,1
DA:546,1
DA:547,1
DA:548,1
DA:551,1
DA:553,1
DA:554,1
DA:556,1
DA:557,1
DA:561,1
DA:567,1
DA:568,1
DA:569,1
DA:570,1
DA:574,1
DA:575,1
DA:576,1
DA:577,1
DA:578,1
DA:579,1
DA:581,0
DA:582,1
DA:584,1
DA:586,1
DA:587,1
DA:588,0
DA:590,1
DA:591,1
DA:593,1
DA:594,1
DA:595,1
DA:596,1
DA:599,1
DA:600,1
DA:603,1
BRF:0
BRH:0
LF:312
LH:304
end_of_record
SF:/var/home/jack/Code/koan/src/machine/core/bindings.rs
FN:224,_RNCNvMs_NtNtNtCscUx3zdyuqfq_4koan7machine4core8bindingsNtB6_8Bindings10iter_types0Bc_
FN:235,_RNCNvMs_NtNtNtCscUx3zdyuqfq_4koan7machine4core8bindingsNtB6_8Bindings14iter_functions0Bc_
FN:185,_RNCNvMs_NtNtNtCscUx3zdyuqfq_4koan7machine4core8bindingsNtB6_8Bindings15lookup_function0Bc_
FN:200,_RNCNvMs_NtNtNtCscUx3zdyuqfq_4koan7machine4core8bindingsNtB6_8Bindings15lookup_functions0_0Bc_
FN:487,_RNCNvMs_NtNtNtCscUx3zdyuqfq_4koan7machine4core8bindingsNtB6_8Bindings21try_bulk_install_from0Bc_
FN:626,_RNCNvMs_NtNtNtCscUx3zdyuqfq_4koan7machine4core8bindingsNtB6_8Bindings34clear_pending_overload_best_effort0Bc_
FN:215,_RNCNvMs_NtNtNtCscUx3zdyuqfq_4koan7machine4core8bindingsNtB6_8Bindings9iter_data0Bc_
FN:75,_RNvMNtNtNtCscUx3zdyuqfq_4koan7machine4core8bindingsNtB2_12BindingIndex5value
FN:81,_RNvMNtNtNtCscUx3zdyuqfq_4koan7machine4core8bindingsNtB2_12BindingIndex7nominal
FN:220,_RNvMs_NtNtNtCscUx3zdyuqfq_4koan7machine4core8bindingsNtB4_8Bindings10iter_types
FN:159,_RNvMs_NtNtNtCscUx3zdyuqfq_4koan7machine4core8bindingsNtB4_8Bindings11lookup_type
FN:139,_RNvMs_NtNtNtCscUx3zdyuqfq_4koan7machine4core8bindingsNtB4_8Bindings12lookup_value
FN:314,_RNvMs_NtNtNtCscUx3zdyuqfq_4koan7machine4core8bindingsNtB4_8Bindings13pending_types
FN:231,_RNvMs_NtNtNtCscUx3zdyuqfq_4koan7machine4core8bindingsNtB4_8Bindings14iter_functions
FN:504,_RNvMs_NtNtNtCscUx3zdyuqfq_4koan7machine4core8bindingsNtB4_8Bindings14try_apply_type
FN:341,_RNvMs_NtNtNtCscUx3zdyuqfq_4koan7machine4core8bindingsNtB4_8Bindings14try_bind_value
FN:176,_RNvMs_NtNtNtCscUx3zdyuqfq_4koan7machine4core8bindingsNtB4_8Bindings15lookup_function
FN:244,_RNvMs_NtNtNtCscUx3zdyuqfq_4koan7machine4core8bindingsNtB4_8Bindings17placeholder_index
FN:372,_RNvMs_NtNtNtCscUx3zdyuqfq_4koan7machine4core8bindingsNtB4_8Bindings17try_register_type
FN:130,_RNvMs_NtNtNtCscUx3zdyuqfq_4koan7machine4core8bindingsNtB4_8Bindings18type_expr_memo_get
FN:318,_RNvMs_NtNtNtCscUx3zdyuqfq_4koan7machine4core8bindingsNtB4_8Bindings19insert_pending_type
FN:326,_RNvMs_NtNtNtCscUx3zdyuqfq_4koan7machine4core8bindingsNtB4_8Bindings19record_pending_edge
FN:482,_RNvMs_NtNtNtCscUx3zdyuqfq_4koan7machine4core8bindingsNtB4_8Bindings21try_bulk_install_from
FN:359,_RNvMs_NtNtNtCscUx3zdyuqfq_4koan7machine4core8bindingsNtB4_8Bindings21try_register_function
FN:261,_RNvMs_NtNtNtCscUx3zdyuqfq_4koan7machine4core8bindingsNtB4_8Bindings21type_expr_memo_insert
FN:426,_RNvMs_NtNtNtCscUx3zdyuqfq_4koan7machine4core8bindingsNtB4_8Bindings23try_install_placeholder
FN:390,_RNvMs_NtNtNtCscUx3zdyuqfq_4koan7machine4core8bindingsNtB4_8Bindings24try_register_type_upsert
FN:462,_RNvMs_NtNtNtCscUx3zdyuqfq_4koan7machine4core8bindingsNtB4_8Bindings28try_install_pending_overload
FN:613,_RNvMs_NtNtNtCscUx3zdyuqfq_4koan7machine4core8bindingsNtB4_8Bindings29clear_placeholder_best_effort
FN:623,_RNvMs_NtNtNtCscUx3zdyuqfq_4koan7machine4core8bindingsNtB4_8Bindings34clear_pending_overload_best_effort
FN:118,_RNvMs_NtNtNtCscUx3zdyuqfq_4koan7machine4core8bindingsNtB4_8Bindings3new
FN:251,_RNvMs_NtNtNtCscUx3zdyuqfq_4koan7machine4core8bindingsNtB4_8Bindings7visible
FN:211,_RNvMs_NtNtNtCscUx3zdyuqfq_4koan7machine4core8bindingsNtB4_8Bindings9iter_data
FN:535,_RNvMs_NtNtNtCscUx3zdyuqfq_4koan7machine4core8bindingsNtB4_8Bindings9try_apply
FN:636,_RNvXs0_NtNtNtCscUx3zdyuqfq_4koan7machine4core8bindingsNtB5_8BindingsNtNtCs27Vx93FoQ6z_4core7default7Default7default
FN:224,_RNCNvMs_NtNtNtCseriWsCb5ev6_4koan7machine4core8bindingsNtB6_8Bindings10iter_types0Bc_
FN:308,_RNCNvMs_NtNtNtCseriWsCb5ev6_4koan7machine4core8bindingsNtB6_8Bindings11expect_types_0Bc_
FN:299,_RNCNvMs_NtNtNtCseriWsCb5ev6_4koan7machine4core8bindingsNtB6_8Bindings12expect_values_0Bc_
FN:235,_RNCNvMs_NtNtNtCseriWsCb5ev6_4koan7machine4core8bindingsNtB6_8Bindings14iter_functions0Bc_
FN:185,_RNCNvMs_NtNtNtCseriWsCb5ev6_4koan7machine4core8bindingsNtB6_8Bindings15lookup_function0Bc_
FN:200,_RNCNvMs_NtNtNtCseriWsCb5ev6_4koan7machine4core8bindingsNtB6_8Bindings15lookup_functions0_0Bc_
FN:487,_RNCNvMs_NtNtNtCseriWsCb5ev6_4koan7machine4core8bindingsNtB6_8Bindings21try_bulk_install_from0Bc_
FN:626,_RNCNvMs_NtNtNtCseriWsCb5ev6_4koan7machine4core8bindingsNtB6_8Bindings34clear_pending_overload_best_effort0Bc_
FN:215,_RNCNvMs_NtNtNtCseriWsCb5ev6_4koan7machine4core8bindingsNtB6_8Bindings9iter_data0Bc_
FN:75,_RNvMNtNtNtCseriWsCb5ev6_4koan7machine4core8bindingsNtB2_12BindingIndex5value
FN:81,_RNvMNtNtNtCseriWsCb5ev6_4koan7machine4core8bindingsNtB2_12BindingIndex7nominal
FN:220,_RNvMs_NtNtNtCseriWsCb5ev6_4koan7machine4core8bindingsNtB4_8Bindings10iter_types
FN:303,_RNvMs_NtNtNtCseriWsCb5ev6_4koan7machine4core8bindingsNtB4_8Bindings11expect_type
FN:159,_RNvMs_NtNtNtCseriWsCb5ev6_4koan7machine4core8bindingsNtB4_8Bindings11lookup_type
FN:294,_RNvMs_NtNtNtCseriWsCb5ev6_4koan7machine4core8bindingsNtB4_8Bindings12expect_value
FN:139,_RNvMs_NtNtNtCseriWsCb5ev6_4koan7machine4core8bindingsNtB4_8Bindings12lookup_value
FN:277,_RNvMs_NtNtNtCseriWsCb5ev6_4koan7machine4core8bindingsNtB4_8Bindings12placeholders
FN:314,_RNvMs_NtNtNtCseriWsCb5ev6_4koan7machine4core8bindingsNtB4_8Bindings13pending_types
FN:231,_RNvMs_NtNtNtCseriWsCb5ev6_4koan7machine4core8bindingsNtB4_8Bindings14iter_functions
FN:332,_RNvMs_NtNtNtCseriWsCb5ev6_4koan7machine4core8bindingsNtB4_8Bindings14pending_remove
FN:504,_RNvMs_NtNtNtCseriWsCb5ev6_4koan7machine4core8bindingsNtB4_8Bindings14try_apply_type
FN:341,_RNvMs_NtNtNtCseriWsCb5ev6_4koan7machine4core8bindingsNtB4_8Bindings14try_bind_value
FN:176,_RNvMs_NtNtNtCseriWsCb5ev6_4koan7machine4core8bindingsNtB4_8Bindings15lookup_function
FN:282,_RNvMs_NtNtNtCseriWsCb5ev6_4koan7machine4core8bindingsNtB4_8Bindings17pending_overloads
FN:244,_RNvMs_NtNtNtCseriWsCb5ev6_4koan7machine4core8bindingsNtB4_8Bindings17placeholder_index
FN:372,_RNvMs_NtNtNtCseriWsCb5ev6_4koan7machine4core8bindingsNtB4_8Bindings17try_register_type
FN:130,_RNvMs_NtNtNtCseriWsCb5ev6_4koan7machine4core8bindingsNtB4_8Bindings18type_expr_memo_get
FN:318,_RNvMs_NtNtNtCseriWsCb5ev6_4koan7machine4core8bindingsNtB4_8Bindings19insert_pending_type
FN:326,_RNvMs_NtNtNtCseriWsCb5ev6_4koan7machine4core8bindingsNtB4_8Bindings19record_pending_edge
FN:482,_RNvMs_NtNtNtCseriWsCb5ev6_4koan7machine4core8bindingsNtB4_8Bindings21try_bulk_install_from
FN:359,_RNvMs_NtNtNtCseriWsCb5ev6_4koan7machine4core8bindingsNtB4_8Bindings21try_register_function
FN:261,_RNvMs_NtNtNtCseriWsCb5ev6_4koan7machine4core8bindingsNtB4_8Bindings21type_expr_memo_insert
FN:426,_RNvMs_NtNtNtCseriWsCb5ev6_4koan7machine4core8bindingsNtB4_8Bindings23try_install_placeholder
FN:390,_RNvMs_NtNtNtCseriWsCb5ev6_4koan7machine4core8bindingsNtB4_8Bindings24try_register_type_upsert
FN:462,_RNvMs_NtNtNtCseriWsCb5ev6_4koan7machine4core8bindingsNtB4_8Bindings28try_install_pending_overload
FN:613,_RNvMs_NtNtNtCseriWsCb5ev6_4koan7machine4core8bindingsNtB4_8Bindings29clear_placeholder_best_effort
FN:623,_RNvMs_NtNtNtCseriWsCb5ev6_4koan7machine4core8bindingsNtB4_8Bindings34clear_pending_overload_best_effort
FN:118,_RNvMs_NtNtNtCseriWsCb5ev6_4koan7machine4core8bindingsNtB4_8Bindings3new
FN:267,_RNvMs_NtNtNtCseriWsCb5ev6_4koan7machine4core8bindingsNtB4_8Bindings4data
FN:289,_RNvMs_NtNtNtCseriWsCb5ev6_4koan7machine4core8bindingsNtB4_8Bindings5types
FN:251,_RNvMs_NtNtNtCseriWsCb5ev6_4koan7machine4core8bindingsNtB4_8Bindings7visible
FN:272,_RNvMs_NtNtNtCseriWsCb5ev6_4koan7machine4core8bindingsNtB4_8Bindings9functions
FN:211,_RNvMs_NtNtNtCseriWsCb5ev6_4koan7machine4core8bindingsNtB4_8Bindings9iter_data
FN:535,_RNvMs_NtNtNtCseriWsCb5ev6_4koan7machine4core8bindingsNtB4_8Bindings9try_apply
FN:636,_RNvXs0_NtNtNtCseriWsCb5ev6_4koan7machine4core8bindingsNtB5_8BindingsNtNtCs27Vx93FoQ6z_4core7default7Default7default
FNDA:4,_RNCNvMs_NtNtNtCscUx3zdyuqfq_4koan7machine4core8bindingsNtB6_8Bindings10iter_types0Bc_
FNDA:61,_RNCNvMs_NtNtNtCscUx3zdyuqfq_4koan7machine4core8bindingsNtB6_8Bindings14iter_functions0Bc_
FNDA:659,_RNCNvMs_NtNtNtCscUx3zdyuqfq_4koan7machine4core8bindingsNtB6_8Bindings15lookup_function0Bc_
FNDA:17,_RNCNvMs_NtNtNtCscUx3zdyuqfq_4koan7machine4core8bindingsNtB6_8Bindings15lookup_functions0_0Bc_
FNDA:1,_RNCNvMs_NtNtNtCscUx3zdyuqfq_4koan7machine4core8bindingsNtB6_8Bindings21try_bulk_install_from0Bc_
FNDA:28,_RNCNvMs_NtNtNtCscUx3zdyuqfq_4koan7machine4core8bindingsNtB6_8Bindings34clear_pending_overload_best_effort0Bc_
FNDA:32,_RNCNvMs_NtNtNtCscUx3zdyuqfq_4koan7machine4core8bindingsNtB6_8Bindings9iter_data0Bc_
FNDA:72,_RNvMNtNtNtCscUx3zdyuqfq_4koan7machine4core8bindingsNtB2_12BindingIndex5value
FNDA:39,_RNvMNtNtNtCscUx3zdyuqfq_4koan7machine4core8bindingsNtB2_12BindingIndex7nominal
FNDA:21,_RNvMs_NtNtNtCscUx3zdyuqfq_4koan7machine4core8bindingsNtB4_8Bindings10iter_types
FNDA:211,_RNvMs_NtNtNtCscUx3zdyuqfq_4koan7machine4core8bindingsNtB4_8Bindings11lookup_type
FNDA:328,_RNvMs_NtNtNtCscUx3zdyuqfq_4koan7machine4core8bindingsNtB4_8Bindings12lookup_value
FNDA:0,_RNvMs_NtNtNtCscUx3zdyuqfq_4koan7machine4core8bindingsNtB4_8Bindings13pending_types
FNDA:2,_RNvMs_NtNtNtCscUx3zdyuqfq_4koan7machine4core8bindingsNtB4_8Bindings14iter_functions
FNDA:580,_RNvMs_NtNtNtCscUx3zdyuqfq_4koan7machine4core8bindingsNtB4_8Bindings14try_apply_type
FNDA:50,_RNvMs_NtNtNtCscUx3zdyuqfq_4koan7machine4core8bindingsNtB4_8Bindings14try_bind_value
FNDA:494,_RNvMs_NtNtNtCscUx3zdyuqfq_4koan7machine4core8bindingsNtB4_8Bindings15lookup_function
FNDA:0,_RNvMs_NtNtNtCscUx3zdyuqfq_4koan7machine4core8bindingsNtB4_8Bindings17placeholder_index
FNDA:580,_RNvMs_NtNtNtCscUx3zdyuqfq_4koan7machine4core8bindingsNtB4_8Bindings17try_register_type
FNDA:7,_RNvMs_NtNtNtCscUx3zdyuqfq_4koan7machine4core8bindingsNtB4_8Bindings18type_expr_memo_get
FNDA:5,_RNvMs_NtNtNtCscUx3zdyuqfq_4koan7machine4core8bindingsNtB4_8Bindings19insert_pending_type
FNDA:0,_RNvMs_NtNtNtCscUx3zdyuqfq_4koan7machine4core8bindingsNtB4_8Bindings19record_pending_edge
FNDA:1,_RNvMs_NtNtNtCscUx3zdyuqfq_4koan7machine4core8bindingsNtB4_8Bindings21try_bulk_install_from
FNDA:1534,_RNvMs_NtNtNtCscUx3zdyuqfq_4koan7machine4core8bindingsNtB4_8Bindings21try_register_function
FNDA:6,_RNvMs_NtNtNtCscUx3zdyuqfq_4koan7machine4core8bindingsNtB4_8Bindings21type_expr_memo_insert
FNDA:213,_RNvMs_NtNtNtCscUx3zdyuqfq_4koan7machine4core8bindingsNtB4_8Bindings23try_install_placeholder
FNDA:34,_RNvMs_NtNtNtCscUx3zdyuqfq_4koan7machine4core8bindingsNtB4_8Bindings24try_register_type_upsert
FNDA:30,_RNvMs_NtNtNtCscUx3zdyuqfq_4koan7machine4core8bindingsNtB4_8Bindings28try_install_pending_overload
FNDA:2198,_RNvMs_NtNtNtCscUx3zdyuqfq_4koan7machine4core8bindingsNtB4_8Bindings29clear_placeholder_best_effort
FNDA:1533,_RNvMs_NtNtNtCscUx3zdyuqfq_4koan7machine4core8bindingsNtB4_8Bindings34clear_pending_overload_best_effort
FNDA:78,_RNvMs_NtNtNtCscUx3zdyuqfq_4koan7machine4core8bindingsNtB4_8Bindings3new
FNDA:960,_RNvMs_NtNtNtCscUx3zdyuqfq_4koan7machine4core8bindingsNtB4_8Bindings7visible
FNDA:35,_RNvMs_NtNtNtCscUx3zdyuqfq_4koan7machine4core8bindingsNtB4_8Bindings9iter_data
FNDA:1585,_RNvMs_NtNtNtCscUx3zdyuqfq_4koan7machine4core8bindingsNtB4_8Bindings9try_apply
FNDA:0,_RNvXs0_NtNtNtCscUx3zdyuqfq_4koan7machine4core8bindingsNtB5_8BindingsNtNtCs27Vx93FoQ6z_4core7default7Default7default
FNDA:54,_RNCNvMs_NtNtNtCseriWsCb5ev6_4koan7machine4core8bindingsNtB6_8Bindings10iter_types0Bc_
FNDA:0,_RNCNvMs_NtNtNtCseriWsCb5ev6_4koan7machine4core8bindingsNtB6_8Bindings11expect_types_0Bc_
FNDA:0,_RNCNvMs_NtNtNtCseriWsCb5ev6_4koan7machine4core8bindingsNtB6_8Bindings12expect_values_0Bc_
FNDA:803,_RNCNvMs_NtNtNtCseriWsCb5ev6_4koan7machine4core8bindingsNtB6_8Bindings14iter_functions0Bc_
FNDA:4987,_RNCNvMs_NtNtNtCseriWsCb5ev6_4koan7machine4core8bindingsNtB6_8Bindings15lookup_function0Bc_
FNDA:98,_RNCNvMs_NtNtNtCseriWsCb5ev6_4koan7machine4core8bindingsNtB6_8Bindings15lookup_functions0_0Bc_
FNDA:18,_RNCNvMs_NtNtNtCseriWsCb5ev6_4koan7machine4core8bindingsNtB6_8Bindings21try_bulk_install_from0Bc_
FNDA:340,_RNCNvMs_NtNtNtCseriWsCb5ev6_4koan7machine4core8bindingsNtB6_8Bindings34clear_pending_overload_best_effort0Bc_
FNDA:203,_RNCNvMs_NtNtNtCseriWsCb5ev6_4koan7machine4core8bindingsNtB6_8Bindings9iter_data0Bc_
FNDA:606,_RNvMNtNtNtCseriWsCb5ev6_4koan7machine4core8bindingsNtB2_12BindingIndex5value
FNDA:248,_RNvMNtNtNtCseriWsCb5ev6_4koan7machine4core8bindingsNtB2_12BindingIndex7nominal
FNDA:138,_RNvMs_NtNtNtCseriWsCb5ev6_4koan7machine4core8bindingsNtB4_8Bindings10iter_types
FNDA:2,_RNvMs_NtNtNtCseriWsCb5ev6_4koan7machine4core8bindingsNtB4_8Bindings11expect_type
FNDA:1615,_RNvMs_NtNtNtCseriWsCb5ev6_4koan7machine4core8bindingsNtB4_8Bindings11lookup_type
FNDA:4,_RNvMs_NtNtNtCseriWsCb5ev6_4koan7machine4core8bindingsNtB4_8Bindings12expect_value
FNDA:2326,_RNvMs_NtNtNtCseriWsCb5ev6_4koan7machine4core8bindingsNtB4_8Bindings12lookup_value
FNDA:5,_RNvMs_NtNtNtCseriWsCb5ev6_4koan7machine4core8bindingsNtB4_8Bindings12placeholders
FNDA:20,_RNvMs_NtNtNtCseriWsCb5ev6_4koan7machine4core8bindingsNtB4_8Bindings13pending_types
FNDA:27,_RNvMs_NtNtNtCseriWsCb5ev6_4koan7machine4core8bindingsNtB4_8Bindings14iter_functions
FNDA:1,_RNvMs_NtNtNtCseriWsCb5ev6_4koan7machine4core8bindingsNtB4_8Bindings14pending_remove
FNDA:6635,_RNvMs_NtNtNtCseriWsCb5ev6_4koan7machine4core8bindingsNtB4_8Bindings14try_apply_type
FNDA:562,_RNvMs_NtNtNtCseriWsCb5ev6_4koan7machine4core8bindingsNtB4_8Bindings14try_bind_value
FNDA:4859,_RNvMs_NtNtNtCseriWsCb5ev6_4koan7machine4core8bindingsNtB4_8Bindings15lookup_function
FNDA:2,_RNvMs_NtNtNtCseriWsCb5ev6_4koan7machine4core8bindingsNtB4_8Bindings17pending_overloads
FNDA:9,_RNvMs_NtNtNtCseriWsCb5ev6_4koan7machine4core8bindingsNtB4_8Bindings17placeholder_index
FNDA:6635,_RNvMs_NtNtNtCseriWsCb5ev6_4koan7machine4core8bindingsNtB4_8Bindings17try_register_type
FNDA:20,_RNvMs_NtNtNtCseriWsCb5ev6_4koan7machine4core8bindingsNtB4_8Bindings18type_expr_memo_get
FNDA:84,_RNvMs_NtNtNtCseriWsCb5ev6_4koan7machine4core8bindingsNtB4_8Bindings19insert_pending_type
FNDA:9,_RNvMs_NtNtNtCseriWsCb5ev6_4koan7machine4core8bindingsNtB4_8Bindings19record_pending_edge
FNDA:19,_RNvMs_NtNtNtCseriWsCb5ev6_4koan7machine4core8bindingsNtB4_8Bindings21try_bulk_install_from
FNDA:17731,_RNvMs_NtNtNtCseriWsCb5ev6_4koan7machine4core8bindingsNtB4_8Bindings21try_register_function
FNDA:14,_RNvMs_NtNtNtCseriWsCb5ev6_4koan7machine4core8bindingsNtB4_8Bindings21type_expr_memo_insert
FNDA:1315,_RNvMs_NtNtNtCseriWsCb5ev6_4koan7machine4core8bindingsNtB4_8Bindings23try_install_placeholder
FNDA:214,_RNvMs_NtNtNtCseriWsCb5ev6_4koan7machine4core8bindingsNtB4_8Bindings24try_register_type_upsert
FNDA:379,_RNvMs_NtNtNtCseriWsCb5ev6_4koan7machine4core8bindingsNtB4_8Bindings28try_install_pending_overload
FNDA:25140,_RNvMs_NtNtNtCseriWsCb5ev6_4koan7machine4core8bindingsNtB4_8Bindings29clear_placeholder_best_effort
FNDA:17749,_RNvMs_NtNtNtCseriWsCb5ev6_4koan7machine4core8bindingsNtB4_8Bindings34clear_pending_overload_best_effort
FNDA:1161,_RNvMs_NtNtNtCseriWsCb5ev6_4koan7machine4core8bindingsNtB4_8Bindings3new
FNDA:56,_RNvMs_NtNtNtCseriWsCb5ev6_4koan7machine4core8bindingsNtB4_8Bindings4data
FNDA:13,_RNvMs_NtNtNtCseriWsCb5ev6_4koan7machine4core8bindingsNtB4_8Bindings5types
FNDA:7237,_RNvMs_NtNtNtCseriWsCb5ev6_4koan7machine4core8bindingsNtB4_8Bindings7visible
FNDA:12,_RNvMs_NtNtNtCseriWsCb5ev6_4koan7machine4core8bindingsNtB4_8Bindings9functions
FNDA:210,_RNvMs_NtNtNtCseriWsCb5ev6_4koan7machine4core8bindingsNtB4_8Bindings9iter_data
FNDA:18311,_RNvMs_NtNtNtCseriWsCb5ev6_4koan7machine4core8bindingsNtB4_8Bindings9try_apply
FNDA:2,_RNvXs0_NtNtNtCseriWsCb5ev6_4koan7machine4core8bindingsNtB5_8BindingsNtNtCs27Vx93FoQ6z_4core7default7Default7default
FNF:45
FNH:43
DA:75,678
DA:76,678
DA:77,678
DA:81,287
DA:82,287
DA:83,287
DA:118,1239
DA:119,1239
DA:120,1239
DA:121,1239
DA:122,1239
DA:123,1239
DA:124,1239
DA:125,1239
DA:126,1239
DA:127,1239
DA:128,1239
DA:130,27
DA:131,27
DA:132,27
DA:139,2654
DA:140,2654
DA:141,2654
DA:142,2654
DA:143,2654
DA:144,2654
DA:145,315
DA:146,312
DA:147,3
DA:148,2339
DA:149,2342
DA:150,889
DA:151,580
DA:152,309
DA:153,1453
DA:154,1762
DA:155,2654
DA:159,1826
DA:160,1826
DA:161,1826
DA:162,1826
DA:163,1826
DA:164,1826
DA:165,1826
DA:166,1232
DA:167,1230
DA:169,2
DA:171,1826
DA:176,5353
DA:177,5353
DA:178,5353
DA:179,5353
DA:180,5353
DA:181,5353
DA:182,5353
DA:183,3601
DA:184,3601
DA:185,5646
DA:186,3601
DA:187,3601
DA:188,3601
DA:189,3600
DA:190,1
DA:191,1752
DA:192,1753
DA:193,1753
DA:194,1753
DA:198,70
DA:199,70
DA:200,115
DA:201,70
DA:202,70
DA:203,67
DA:204,3
DA:205,1683
DA:206,1686
DA:207,5353
DA:211,245
DA:212,245
DA:213,245
DA:214,245
DA:215,245
DA:216,245
DA:217,245
DA:220,159
DA:221,159
DA:222,159
DA:223,159
DA:224,159
DA:225,159
DA:226,159
DA:231,29
DA:232,29
DA:233,29
DA:234,29
DA:235,864
DA:236,29
DA:237,29
DA:244,9
DA:245,9
DA:246,9
DA:251,8197
DA:252,8197
DA:253,7130
DA:254,1067
DA:256,8197
DA:261,20
DA:262,20
DA:263,20
DA:264,20
DA:267,56
DA:268,56
DA:269,56
DA:272,12
DA:273,12
DA:274,12
DA:277,5
DA:278,5
DA:279,5
DA:282,2
DA:283,2
DA:284,2
DA:285,2
DA:286,2
DA:289,13
DA:290,13
DA:291,13
DA:294,4
DA:295,4
DA:296,4
DA:297,4
DA:298,4
DA:299,4
DA:300,4
DA:303,2
DA:304,2
DA:305,2
DA:306,2
DA:307,2
DA:308,2
DA:309,2
DA:314,20
DA:315,20
DA:316,20
DA:318,89
DA:319,89
DA:320,89
DA:321,89
DA:322,89
DA:323,89
DA:324,89
DA:326,9
DA:327,9
DA:328,9
DA:332,1
DA:333,1
DA:334,1
DA:341,612
DA:342,612
DA:343,612
DA:344,612
DA:345,612
DA:346,612
DA:347,612
DA:348,612
DA:359,19265
DA:360,19265
DA:361,19265
DA:362,19265
DA:363,19265
DA:364,19265
DA:365,19265
DA:366,19265
DA:367,19265
DA:372,7215
DA:373,7215
DA:374,7215
DA:375,7215
DA:376,7215
DA:377,7215
DA:378,7215
DA:379,7215
DA:390,248
DA:391,248
DA:392,248
DA:393,248
DA:394,248
DA:395,248
DA:396,248
DA:397,248
DA:398,0
DA:400,248
DA:401,12
DA:402,1
DA:406,247
DA:407,247
DA:408,247
DA:410,247
DA:411,247
DA:412,247
DA:413,248
DA:426,1528
DA:427,1528
DA:428,1528
DA:429,1528
DA:430,1528
DA:431,1528
DA:432,1528
DA:433,2
DA:434,0
DA:435,2
DA:436,2
DA:437,1526
DA:438,1526
DA:439,1526
DA:440,740
DA:441,738
DA:442,2
DA:443,2
DA:444,786
DA:445,786
DA:446,786
DA:447,1528
DA:462,409
DA:463,409
DA:464,409
DA:465,409
DA:466,409
DA:467,409
DA:468,409
DA:469,12
DA:470,397
DA:471,397
DA:472,397
DA:473,397
DA:474,409
DA:482,20
DA:483,20
DA:484,20
DA:485,20
DA:486,20
DA:487,20
DA:488,20
DA:489,20
DA:490,19
DA:491,19
DA:493,0
DA:499,20
DA:500,20
DA:504,7215
DA:505,7215
DA:506,7215
DA:507,7215
DA:508,7215
DA:509,7215
DA:510,7215
DA:511,7211
DA:512,4
DA:514,7211
DA:515,2
DA:516,7209
DA:517,7209
DA:518,7209
DA:519,7209
DA:520,7209
DA:521,7215
DA:535,19896
DA:536,19896
DA:537,19896
DA:538,19896
DA:539,19896
DA:540,19896
DA:541,19896
DA:542,19896
DA:543,19896
DA:544,19292
DA:545,19288
DA:546,4
DA:549,604
DA:553,19892
DA:554,631
DA:555,627
DA:556,4
DA:559,19261
DA:563,19888
DA:564,627
DA:565,1
DA:566,1
DA:568,0
DA:569,0
DA:570,0
DA:573,626
DA:574,19261
DA:575,19887
DA:576,19887
DA:577,19287
DA:578,19287
DA:579,19287
DA:580,19287
DA:581,12065
DA:582,16
DA:583,16
DA:584,12049
DA:585,12049
DA:586,5
DA:587,5
DA:588,5
DA:589,5
DA:590,12044
DA:592,19282
DA:593,19266
DA:594,19266
DA:595,19282
DA:596,600
DA:597,19882
DA:598,624
DA:599,19258
DA:600,19882
DA:601,19882
DA:602,19882
DA:603,19882
DA:604,19282
DA:605,19282
DA:606,19282
DA:607,19882
DA:608,19896
DA:613,27338
DA:614,27338
DA:615,27338
DA:616,27338
DA:617,27338
DA:623,19282
DA:624,19282
DA:625,19282
DA:626,368
DA:627,173
DA:628,172
DA:629,172
DA:630,19109
DA:631,0
DA:632,19282
DA:636,2
DA:637,2
DA:638,2
BRF:0
BRH:0
LF:353
LH:344
end_of_record
SF:/var/home/jack/Code/koan/src/machine/core/bindings/pending.rs
FN:66,_RNCNvMNtNtNtNtCscUx3zdyuqfq_4koan7machine4core8bindings7pendingNtB4_12PendingTypes11record_edge0Bc_
FN:63,_RNvMNtNtNtNtCscUx3zdyuqfq_4koan7machine4core8bindings7pendingNtB2_12PendingTypes11record_edge
FN:35,_RNvMNtNtNtNtCscUx3zdyuqfq_4koan7machine4core8bindings7pendingNtB2_12PendingTypes3get
FN:31,_RNvMNtNtNtNtCscUx3zdyuqfq_4koan7machine4core8bindings7pendingNtB2_12PendingTypes3new
FN:45,_RNvMNtNtNtNtCscUx3zdyuqfq_4koan7machine4core8bindings7pendingNtB2_12PendingTypes6insert
FN:79,_RNvXs_NtNtNtNtCscUx3zdyuqfq_4koan7machine4core8bindings7pendingNtB4_12PendingTypesNtNtCs27Vx93FoQ6z_4core7default7Default7default
FN:99,_RNvXs0_NtNtNtNtCscUx3zdyuqfq_4koan7machine4core8bindings7pendingNtB5_18PendingBinderGuardNtNtNtCs27Vx93FoQ6z_4core3ops4drop4Drop4drop
FN:79,_RNvXs_NtNtNtNtCseriWsCb5ev6_4koan7machine4core8bindings7pendingNtB4_12PendingTypesNtNtCs27Vx93FoQ6z_4core7default7Default7default
FN:99,_RNvXs0_NtNtNtNtCseriWsCb5ev6_4koan7machine4core8bindings7pendingNtB5_18PendingBinderGuardNtNtNtCs27Vx93FoQ6z_4core3ops4drop4Drop4drop
FN:63,_RNvMNtNtNtNtCseriWsCb5ev6_4koan7machine4core8bindings7pendingNtB2_12PendingTypes11record_edge
FN:35,_RNvMNtNtNtNtCseriWsCb5ev6_4koan7machine4core8bindings7pendingNtB2_12PendingTypes3get
FN:31,_RNvMNtNtNtNtCseriWsCb5ev6_4koan7machine4core8bindings7pendingNtB2_12PendingTypes3new
FN:45,_RNvMNtNtNtNtCseriWsCb5ev6_4koan7machine4core8bindings7pendingNtB2_12PendingTypes6insert
FN:73,_RNvMNtNtNtNtCseriWsCb5ev6_4koan7machine4core8bindings7pendingNtB2_12PendingTypes6remove
FN:66,_RNCNvMNtNtNtNtCseriWsCb5ev6_4koan7machine4core8bindings7pendingNtB4_12PendingTypes11record_edge0Bc_
FNDA:0,_RNCNvMNtNtNtNtCscUx3zdyuqfq_4koan7machine4core8bindings7pendingNtB4_12PendingTypes11record_edge0Bc_
FNDA:0,_RNvMNtNtNtNtCscUx3zdyuqfq_4koan7machine4core8bindings7pendingNtB2_12PendingTypes11record_edge
FNDA:0,_RNvMNtNtNtNtCscUx3zdyuqfq_4koan7machine4core8bindings7pendingNtB2_12PendingTypes3get
FNDA:78,_RNvMNtNtNtNtCscUx3zdyuqfq_4koan7machine4core8bindings7pendingNtB2_12PendingTypes3new
FNDA:5,_RNvMNtNtNtNtCscUx3zdyuqfq_4koan7machine4core8bindings7pendingNtB2_12PendingTypes6insert
FNDA:0,_RNvXs_NtNtNtNtCscUx3zdyuqfq_4koan7machine4core8bindings7pendingNtB4_12PendingTypesNtNtCs27Vx93FoQ6z_4core7default7Default7default
FNDA:5,_RNvXs0_NtNtNtNtCscUx3zdyuqfq_4koan7machine4core8bindings7pendingNtB5_18PendingBinderGuardNtNtNtCs27Vx93FoQ6z_4core3ops4drop4Drop4drop
FNDA:0,_RNvXs_NtNtNtNtCseriWsCb5ev6_4koan7machine4core8bindings7pendingNtB4_12PendingTypesNtNtCs27Vx93FoQ6z_4core7default7Default7default
FNDA:84,_RNvXs0_NtNtNtNtCseriWsCb5ev6_4koan7machine4core8bindings7pendingNtB5_18PendingBinderGuardNtNtNtCs27Vx93FoQ6z_4core3ops4drop4Drop4drop
FNDA:9,_RNvMNtNtNtNtCseriWsCb5ev6_4koan7machine4core8bindings7pendingNtB2_12PendingTypes11record_edge
FNDA:20,_RNvMNtNtNtNtCseriWsCb5ev6_4koan7machine4core8bindings7pendingNtB2_12PendingTypes3get
FNDA:1161,_RNvMNtNtNtNtCseriWsCb5ev6_4koan7machine4core8bindings7pendingNtB2_12PendingTypes3new
FNDA:84,_RNvMNtNtNtNtCseriWsCb5ev6_4koan7machine4core8bindings7pendingNtB2_12PendingTypes6insert
FNDA:1,_RNvMNtNtNtNtCseriWsCb5ev6_4koan7machine4core8bindings7pendingNtB2_12PendingTypes6remove
FNDA:0,_RNCNvMNtNtNtNtCseriWsCb5ev6_4koan7machine4core8bindings7pendingNtB4_12PendingTypes11record_edge0Bc_
FNF:8
FNH:6
DA:31,1239
DA:32,1239
DA:33,1239
DA:35,20
DA:36,20
DA:37,20
DA:45,89
DA:46,89
DA:47,89
DA:48,89
DA:49,89
DA:50,89
DA:51,89
DA:52,0
DA:56,89
DA:57,89
DA:58,89
DA:59,89
DA:63,9
DA:64,9
DA:65,9
DA:66,9
DA:67,9
DA:68,9
DA:69,0
DA:70,9
DA:73,1
DA:74,1
DA:75,1
DA:79,0
DA:80,0
DA:81,0
DA:99,89
DA:100,89
DA:101,89
DA:102,89
DA:103,89
BRF:0
BRH:0
LF:38
LH:32
end_of_record
SF:/var/home/jack/Code/koan/src/machine/core/kerror.rs
FN:76,_RNvMNtNtNtCscUx3zdyuqfq_4koan7machine4core6kerrorNtB2_5Frame8for_call
FN:182,_RNvMs0_NtNtNtCscUx3zdyuqfq_4koan7machine4core6kerrorNtB5_10KErrorKind16to_struct_fields
FN:120,_RNvMs_NtNtNtCscUx3zdyuqfq_4koan7machine4core6kerrorNtB4_6KError10with_frame
FN:125,_RNvMs_NtNtNtCscUx3zdyuqfq_4koan7machine4core6kerrorNtB4_6KError15with_call_frame
FN:130,_RNvMs_NtNtNtCscUx3zdyuqfq_4koan7machine4core6kerrorNtB4_6KError21clone_for_propagation
FN:106,_RNvMs_NtNtNtCscUx3zdyuqfq_4koan7machine4core6kerrorNtB4_6KError3new
FN:140,_RNvMs_NtNtNtCscUx3zdyuqfq_4koan7machine4core6kerrorNtB4_6KError9to_tagged
FN:96,_RNvNtNtNtCscUx3zdyuqfq_4koan7machine4core6kerror18location_from_expr
FN:310,_RNvXs1_NtNtNtCscUx3zdyuqfq_4koan7machine4core6kerrorNtB5_6KErrorNtNtCs27Vx93FoQ6z_4core3fmt7Display3fmt
FN:323,_RNvXs2_NtNtNtCscUx3zdyuqfq_4koan7machine4core6kerrorNtB5_10KErrorKindNtNtCs27Vx93FoQ6z_4core3fmt7Display3fmt
FN:383,_RNvXs3_NtNtNtCscUx3zdyuqfq_4koan7machine4core6kerrorNtB5_6KErrorNtNtCs27Vx93FoQ6z_4core3fmt5Debug3fmt
FN:68,_RINvMNtNtNtCscUx3zdyuqfq_4koan7machine4core6kerrorNtB3_5Frame4bareNtNtCsgW8esjfipvk_5alloc6string6StringB12_EB9_
FN:68,_RINvMNtNtNtCscUx3zdyuqfq_4koan7machine4core6kerrorNtB3_5Frame4bareReB12_EB9_
FN:68,_RINvMNtNtNtCscUx3zdyuqfq_4koan7machine4core6kerrorNtB3_5Frame4bareReNtNtCsgW8esjfipvk_5alloc6string6StringEB9_
FN:87,_RINvMNtNtNtCscUx3zdyuqfq_4koan7machine4core6kerrorNtB3_5Frame9from_exprReEB9_
FN:112,_RINvMs_NtNtNtCscUx3zdyuqfq_4koan7machine4core6kerrorNtB5_6KError5parseNtNtCsgW8esjfipvk_5alloc6string6StringEBb_
FN:112,_RINvMs_NtNtNtCscUx3zdyuqfq_4koan7machine4core6kerrorNtB5_6KError5parseReEBb_
FN:98,_RNCNCNvNtNtNtCscUx3zdyuqfq_4koan7machine4core6kerror18location_from_expr00Bb_
FN:236,_RNCNvMs0_NtNtNtCscUx3zdyuqfq_4koan7machine4core6kerrorNtB7_10KErrorKind16to_struct_fields0Bd_
FN:145,_RNCNvMs_NtNtNtCscUx3zdyuqfq_4koan7machine4core6kerrorNtB6_6KError9to_tagged0Bc_
FN:97,_RNCNvNtNtNtCscUx3zdyuqfq_4koan7machine4core6kerror18location_from_expr0B9_
FN:343,_RNCNvXs2_NtNtNtCscUx3zdyuqfq_4koan7machine4core6kerrorNtB7_10KErrorKindNtNtCs27Vx93FoQ6z_4core3fmt7Display3fmt0Bd_
FN:68,_RINvMNtNtNtCseriWsCb5ev6_4koan7machine4core6kerrorNtB3_5Frame4bareNtNtCsgW8esjfipvk_5alloc6string6StringB12_EB9_
FN:68,_RINvMNtNtNtCseriWsCb5ev6_4koan7machine4core6kerrorNtB3_5Frame4bareReB12_EB9_
FN:68,_RINvMNtNtNtCseriWsCb5ev6_4koan7machine4core6kerrorNtB3_5Frame4bareReNtNtCsgW8esjfipvk_5alloc6string6StringEB9_
FN:87,_RINvMNtNtNtCseriWsCb5ev6_4koan7machine4core6kerrorNtB3_5Frame9from_exprReEB9_
FN:112,_RINvMs_NtNtNtCseriWsCb5ev6_4koan7machine4core6kerrorNtB5_6KError5parseNtNtCsgW8esjfipvk_5alloc6string6StringEBb_
FN:112,_RINvMs_NtNtNtCseriWsCb5ev6_4koan7machine4core6kerrorNtB5_6KError5parseReEBb_
FN:98,_RNCNCNvNtNtNtCseriWsCb5ev6_4koan7machine4core6kerror18location_from_expr00Bb_
FN:236,_RNCNvMs0_NtNtNtCseriWsCb5ev6_4koan7machine4core6kerrorNtB7_10KErrorKind16to_struct_fields0Bd_
FN:145,_RNCNvMs_NtNtNtCseriWsCb5ev6_4koan7machine4core6kerrorNtB6_6KError9to_tagged0Bc_
FN:97,_RNCNvNtNtNtCseriWsCb5ev6_4koan7machine4core6kerror18location_from_expr0B9_
FN:343,_RNCNvXs2_NtNtNtCseriWsCb5ev6_4koan7machine4core6kerrorNtB7_10KErrorKindNtNtCs27Vx93FoQ6z_4core3fmt7Display3fmt0Bd_
FN:76,_RNvMNtNtNtCseriWsCb5ev6_4koan7machine4core6kerrorNtB2_5Frame8for_call
FN:125,_RNvMs_NtNtNtCseriWsCb5ev6_4koan7machine4core6kerrorNtB4_6KError15with_call_frame
FN:182,_RNvMs0_NtNtNtCseriWsCb5ev6_4koan7machine4core6kerrorNtB5_10KErrorKind16to_struct_fields
FN:120,_RNvMs_NtNtNtCseriWsCb5ev6_4koan7machine4core6kerrorNtB4_6KError10with_frame
FN:130,_RNvMs_NtNtNtCseriWsCb5ev6_4koan7machine4core6kerrorNtB4_6KError21clone_for_propagation
FN:106,_RNvMs_NtNtNtCseriWsCb5ev6_4koan7machine4core6kerrorNtB4_6KError3new
FN:140,_RNvMs_NtNtNtCseriWsCb5ev6_4koan7machine4core6kerrorNtB4_6KError9to_tagged
FN:96,_RNvNtNtNtCseriWsCb5ev6_4koan7machine4core6kerror18location_from_expr
FN:310,_RNvXs1_NtNtNtCseriWsCb5ev6_4koan7machine4core6kerrorNtB5_6KErrorNtNtCs27Vx93FoQ6z_4core3fmt7Display3fmt
FN:323,_RNvXs2_NtNtNtCseriWsCb5ev6_4koan7machine4core6kerrorNtB5_10KErrorKindNtNtCs27Vx93FoQ6z_4core3fmt7Display3fmt
FN:383,_RNvXs3_NtNtNtCseriWsCb5ev6_4koan7machine4core6kerrorNtB5_6KErrorNtNtCs27Vx93FoQ6z_4core3fmt5Debug3fmt
FNDA:0,_RNvMNtNtNtCscUx3zdyuqfq_4koan7machine4core6kerrorNtB2_5Frame8for_call
FNDA:0,_RNvMs0_NtNtNtCscUx3zdyuqfq_4koan7machine4core6kerrorNtB5_10KErrorKind16to_struct_fields
FNDA:2,_RNvMs_NtNtNtCscUx3zdyuqfq_4koan7machine4core6kerrorNtB4_6KError10with_frame
FNDA:0,_RNvMs_NtNtNtCscUx3zdyuqfq_4koan7machine4core6kerrorNtB4_6KError15with_call_frame
FNDA:3,_RNvMs_NtNtNtCscUx3zdyuqfq_4koan7machine4core6kerrorNtB4_6KError21clone_for_propagation
FNDA:35,_RNvMs_NtNtNtCscUx3zdyuqfq_4koan7machine4core6kerrorNtB4_6KError3new
FNDA:0,_RNvMs_NtNtNtCscUx3zdyuqfq_4koan7machine4core6kerrorNtB4_6KError9to_tagged
FNDA:1,_RNvNtNtNtCscUx3zdyuqfq_4koan7machine4core6kerror18location_from_expr
FNDA:1,_RNvXs1_NtNtNtCscUx3zdyuqfq_4koan7machine4core6kerrorNtB5_6KErrorNtNtCs27Vx93FoQ6z_4core3fmt7Display3fmt
FNDA:1,_RNvXs2_NtNtNtCscUx3zdyuqfq_4koan7machine4core6kerrorNtB5_10KErrorKindNtNtCs27Vx93FoQ6z_4core3fmt7Display3fmt
FNDA:0,_RNvXs3_NtNtNtCscUx3zdyuqfq_4koan7machine4core6kerrorNtB5_6KErrorNtNtCs27Vx93FoQ6z_4core3fmt5Debug3fmt
FNDA:0,_RINvMNtNtNtCscUx3zdyuqfq_4koan7machine4core6kerrorNtB3_5Frame4bareNtNtCsgW8esjfipvk_5alloc6string6StringB12_EB9_
FNDA:1,_RINvMNtNtNtCscUx3zdyuqfq_4koan7machine4core6kerrorNtB3_5Frame4bareReB12_EB9_
FNDA:0,_RINvMNtNtNtCscUx3zdyuqfq_4koan7machine4core6kerrorNtB3_5Frame4bareReNtNtCsgW8esjfipvk_5alloc6string6StringEB9_
FNDA:1,_RINvMNtNtNtCscUx3zdyuqfq_4koan7machine4core6kerrorNtB3_5Frame9from_exprReEB9_
FNDA:0,_RINvMs_NtNtNtCscUx3zdyuqfq_4koan7machine4core6kerrorNtB5_6KError5parseNtNtCsgW8esjfipvk_5alloc6string6StringEBb_
FNDA:0,_RINvMs_NtNtNtCscUx3zdyuqfq_4koan7machine4core6kerrorNtB5_6KError5parseReEBb_
FNDA:0,_RNCNCNvNtNtNtCscUx3zdyuqfq_4koan7machine4core6kerror18location_from_expr00Bb_
FNDA:0,_RNCNvMs0_NtNtNtCscUx3zdyuqfq_4koan7machine4core6kerrorNtB7_10KErrorKind16to_struct_fields0Bd_
FNDA:0,_RNCNvMs_NtNtNtCscUx3zdyuqfq_4koan7machine4core6kerrorNtB6_6KError9to_tagged0Bc_
FNDA:0,_RNCNvNtNtNtCscUx3zdyuqfq_4koan7machine4core6kerror18location_from_expr0B9_
FNDA:0,_RNCNvXs2_NtNtNtCscUx3zdyuqfq_4koan7machine4core6kerrorNtB7_10KErrorKindNtNtCs27Vx93FoQ6z_4core3fmt7Display3fmt0Bd_
FNDA:25,_RINvMNtNtNtCseriWsCb5ev6_4koan7machine4core6kerrorNtB3_5Frame4bareNtNtCsgW8esjfipvk_5alloc6string6StringB12_EB9_
FNDA:13,_RINvMNtNtNtCseriWsCb5ev6_4koan7machine4core6kerrorNtB3_5Frame4bareReB12_EB9_
FNDA:0,_RINvMNtNtNtCseriWsCb5ev6_4koan7machine4core6kerrorNtB3_5Frame4bareReNtNtCsgW8esjfipvk_5alloc6string6StringEB9_
FNDA:7,_RINvMNtNtNtCseriWsCb5ev6_4koan7machine4core6kerrorNtB3_5Frame9from_exprReEB9_
FNDA:35,_RINvMs_NtNtNtCseriWsCb5ev6_4koan7machine4core6kerrorNtB5_6KError5parseNtNtCsgW8esjfipvk_5alloc6string6StringEBb_
FNDA:22,_RINvMs_NtNtNtCseriWsCb5ev6_4koan7machine4core6kerrorNtB5_6KError5parseReEBb_
FNDA:0,_RNCNCNvNtNtNtCseriWsCb5ev6_4koan7machine4core6kerror18location_from_expr00Bb_
FNDA:0,_RNCNvMs0_NtNtNtCseriWsCb5ev6_4koan7machine4core6kerrorNtB7_10KErrorKind16to_struct_fields0Bd_
FNDA:2,_RNCNvMs_NtNtNtCseriWsCb5ev6_4koan7machine4core6kerrorNtB6_6KError9to_tagged0Bc_
FNDA:0,_RNCNvNtNtNtCseriWsCb5ev6_4koan7machine4core6kerror18location_from_expr0B9_
FNDA:2,_RNCNvXs2_NtNtNtCseriWsCb5ev6_4koan7machine4core6kerrorNtB7_10KErrorKindNtNtCs27Vx93FoQ6z_4core3fmt7Display3fmt0Bd_
FNDA:0,_RNvMNtNtNtCseriWsCb5ev6_4koan7machine4core6kerrorNtB2_5Frame8for_call
FNDA:0,_RNvMs_NtNtNtCseriWsCb5ev6_4koan7machine4core6kerrorNtB4_6KError15with_call_frame
FNDA:13,_RNvMs0_NtNtNtCseriWsCb5ev6_4koan7machine4core6kerrorNtB5_10KErrorKind16to_struct_fields
FNDA:46,_RNvMs_NtNtNtCseriWsCb5ev6_4koan7machine4core6kerrorNtB4_6KError10with_frame
FNDA:47,_RNvMs_NtNtNtCseriWsCb5ev6_4koan7machine4core6kerrorNtB4_6KError21clone_for_propagation
FNDA:271,_RNvMs_NtNtNtCseriWsCb5ev6_4koan7machine4core6kerrorNtB4_6KError3new
FNDA:13,_RNvMs_NtNtNtCseriWsCb5ev6_4koan7machine4core6kerrorNtB4_6KError9to_tagged
FNDA:7,_RNvNtNtNtCseriWsCb5ev6_4koan7machine4core6kerror18location_from_expr
FNDA:84,_RNvXs1_NtNtNtCseriWsCb5ev6_4koan7machine4core6kerrorNtB5_6KErrorNtNtCs27Vx93FoQ6z_4core3fmt7Display3fmt
FNDA:84,_RNvXs2_NtNtNtCseriWsCb5ev6_4koan7machine4core6kerrorNtB5_10KErrorKindNtNtCs27Vx93FoQ6z_4core3fmt7Display3fmt
FNDA:1,_RNvXs3_NtNtNtCseriWsCb5ev6_4koan7machine4core6kerrorNtB5_6KErrorNtNtCs27Vx93FoQ6z_4core3fmt5Debug3fmt
FNF:19
FNH:14
DA:68,39
DA:69,39
DA:70,39
DA:71,39
DA:72,39
DA:73,39
DA:74,39
DA:76,0
DA:77,0
DA:78,0
DA:79,0
DA:80,0
DA:81,0
DA:82,0
DA:87,8
DA:88,8
DA:89,8
DA:90,8
DA:91,8
DA:92,8
DA:93,8
DA:96,8
DA:97,8
DA:98,0
DA:99,0
DA:100,0
DA:101,0
DA:102,0
DA:103,8
DA:106,306
DA:107,306
DA:108,306
DA:112,57
DA:113,57
DA:114,57
DA:115,57
DA:116,57
DA:117,57
DA:118,57
DA:120,48
DA:121,48
DA:122,48
DA:123,48
DA:125,0
DA:126,0
DA:127,0
DA:130,50
DA:131,50
DA:132,50
DA:140,13
DA:141,13
DA:142,13
DA:143,13
DA:144,13
DA:145,13
DA:146,2
DA:147,2
DA:148,0
DA:149,0
DA:151,2
DA:153,2
DA:154,2
DA:155,13
DA:157,13
DA:158,17
DA:159,17
DA:160,17
DA:161,13
DA:162,13
DA:163,13
DA:164,13
DA:165,13
DA:166,13
DA:167,13
DA:168,13
DA:169,13
DA:170,13
DA:171,13
DA:172,13
DA:173,13
DA:174,13
DA:182,13
DA:183,13
DA:184,2
DA:185,2
DA:186,2
DA:187,2
DA:188,2
DA:189,2
DA:190,2
DA:191,2
DA:192,2
DA:193,0
DA:194,0
DA:195,0
DA:196,0
DA:197,0
DA:198,9
DA:199,9
DA:200,9
DA:201,9
DA:202,9
DA:203,0
DA:204,0
DA:205,0
DA:206,0
DA:207,0
DA:208,0
DA:209,0
DA:210,0
DA:211,0
DA:212,0
DA:213,0
DA:214,0
DA:215,0
DA:216,0
DA:217,0
DA:218,0
DA:219,0
DA:220,0
DA:221,0
DA:222,0
DA:223,0
DA:224,0
DA:225,0
DA:226,0
DA:227,2
DA:228,2
DA:229,2
DA:230,2
DA:231,2
DA:232,0
DA:233,0
DA:234,0
DA:235,0
DA:236,0
DA:237,0
DA:238,0
DA:239,0
DA:240,0
DA:242,0
DA:243,0
DA:244,0
DA:249,0
DA:250,0
DA:251,0
DA:252,0
DA:253,0
DA:254,0
DA:255,0
DA:256,0
DA:257,0
DA:258,0
DA:259,0
DA:260,0
DA:261,0
DA:262,0
DA:263,0
DA:264,0
DA:265,0
DA:266,0
DA:268,0
DA:269,0
DA:270,0
DA:271,0
DA:272,0
DA:278,0
DA:279,0
DA:281,0
DA:283,0
DA:284,0
DA:285,0
DA:286,0
DA:287,0
DA:288,0
DA:289,0
DA:290,0
DA:292,0
DA:294,0
DA:296,0
DA:297,0
DA:298,0
DA:299,0
DA:300,0
DA:301,0
DA:302,0
DA:303,0
DA:306,13
DA:310,85
DA:311,85
DA:312,85
DA:313,7
DA:314,7
DA:315,1
DA:316,6
DA:318,85
DA:319,85
DA:323,85
DA:324,85
DA:325,1
DA:326,1
DA:328,4
DA:329,3
DA:330,1
DA:331,1
DA:333,1
DA:334,1
DA:337,2
DA:338,2
DA:340,4
DA:341,59
DA:342,59
DA:343,2
DA:344,2
DA:345,2
DA:346,2
DA:347,57
DA:349,59
DA:350,2
DA:351,2
DA:353,57
DA:356,3
DA:357,2
DA:358,2
DA:360,3
DA:361,3
DA:364,1
DA:365,1
DA:368,1
DA:369,1
DA:373,0
DA:374,0
DA:379,85
DA:383,1
DA:384,1
DA:385,1
BRF:0
BRH:0
LF:241
LH:134
end_of_record
SF:/var/home/jack/Code/koan/src/machine/core/kfunction.rs
FN:107,_RNvMNtNtNtCscUx3zdyuqfq_4koan7machine4core9kfunctionNtB2_9KFunction14captured_scope
FN:72,_RNvMNtNtNtCscUx3zdyuqfq_4koan7machine4core9kfunctionNtB2_9KFunction16with_binder_name
FN:174,_RNvMNtNtNtCscUx3zdyuqfq_4koan7machine4core9kfunctionNtB2_9KFunction22reconstruct_positional
FN:81,_RNvMNtNtNtCscUx3zdyuqfq_4koan7machine4core9kfunctionNtB2_9KFunction23with_binder_and_functor
FN:64,_RNvMNtNtNtCscUx3zdyuqfq_4koan7machine4core9kfunctionNtB2_9KFunction3new
FN:124,_RNvMNtNtNtCscUx3zdyuqfq_4koan7machine4core9kfunctionNtB2_9KFunction4bind
FN:111,_RNvMNtNtNtCscUx3zdyuqfq_4koan7machine4core9kfunctionNtB2_9KFunction9summarize
FN:180,_RNCNvMNtNtNtCscUx3zdyuqfq_4koan7machine4core9kfunctionNtB4_9KFunction22reconstruct_positional0Ba_
FN:116,_RNCNvMNtNtNtCscUx3zdyuqfq_4koan7machine4core9kfunctionNtB4_9KFunction9summarize0Ba_
FN:234,_RNCNvNtNtNtNtCseriWsCb5ev6_4koan7machine4core9kfunction5tests10find_match0Bb_
FN:370,_RNCNvNtNtNtNtCseriWsCb5ev6_4koan7machine4core9kfunction5testss_51function_value_ktype_projects_kfunctor_when_flagged0Bb_
FN:180,_RNCNvMNtNtNtCseriWsCb5ev6_4koan7machine4core9kfunctionNtB4_9KFunction22reconstruct_positional0Ba_
FN:116,_RNCNvMNtNtNtCseriWsCb5ev6_4koan7machine4core9kfunctionNtB4_9KFunction9summarize0Ba_
FN:107,_RNvMNtNtNtCseriWsCb5ev6_4koan7machine4core9kfunctionNtB2_9KFunction14captured_scope
FN:72,_RNvMNtNtNtCseriWsCb5ev6_4koan7machine4core9kfunctionNtB2_9KFunction16with_binder_name
FN:174,_RNvMNtNtNtCseriWsCb5ev6_4koan7machine4core9kfunctionNtB2_9KFunction22reconstruct_positional
FN:81,_RNvMNtNtNtCseriWsCb5ev6_4koan7machine4core9kfunctionNtB2_9KFunction23with_binder_and_functor
FN:64,_RNvMNtNtNtCseriWsCb5ev6_4koan7machine4core9kfunctionNtB2_9KFunction3new
FN:124,_RNvMNtNtNtCseriWsCb5ev6_4koan7machine4core9kfunctionNtB2_9KFunction4bind
FN:111,_RNvMNtNtNtCseriWsCb5ev6_4koan7machine4core9kfunctionNtB2_9KFunction9summarize
FN:225,_RNvNtNtNtNtCseriWsCb5ev6_4koan7machine4core9kfunction5tests10find_match
FN:214,_RNvNtNtNtNtCseriWsCb5ev6_4koan7machine4core9kfunction5tests8body_any
FN:313,_RNvNtNtNtNtCseriWsCb5ev6_4koan7machine4core9kfunction5testss_51classify_skips_ref_name_indices_for_binder_function
FN:365,_RNvNtNtNtNtCseriWsCb5ev6_4koan7machine4core9kfunction5testss_51function_value_ktype_projects_kfunctor_when_flagged
FN:405,_RNvNtNtNtNtCseriWsCb5ev6_4koan7machine4core9kfunction5testss_52classify_type_token_in_any_slot_returns_wrap_indices
FN:250,_RNvNtNtNtNtCseriWsCb5ev6_4koan7machine4core9kfunction5testss_56classify_returns_wrap_indices_for_value_slot_identifiers
FN:277,_RNvNtNtNtNtCseriWsCb5ev6_4koan7machine4core9kfunction5testss_57classify_returns_ref_name_indices_for_non_binder_function
FN:337,_RNvNtNtNtNtCseriWsCb5ev6_4koan7machine4core9kfunction5testss_64classify_type_token_in_typeexprref_slot_returns_ref_name_indices
FNDA:1541,_RNvMNtNtNtCscUx3zdyuqfq_4koan7machine4core9kfunctionNtB2_9KFunction14captured_scope
FNDA:0,_RNvMNtNtNtCscUx3zdyuqfq_4koan7machine4core9kfunctionNtB2_9KFunction16with_binder_name
FNDA:0,_RNvMNtNtNtCscUx3zdyuqfq_4koan7machine4core9kfunctionNtB2_9KFunction22reconstruct_positional
FNDA:1534,_RNvMNtNtNtCscUx3zdyuqfq_4koan7machine4core9kfunctionNtB2_9KFunction23with_binder_and_functor
FNDA:0,_RNvMNtNtNtCscUx3zdyuqfq_4koan7machine4core9kfunctionNtB2_9KFunction3new
FNDA:148,_RNvMNtNtNtCscUx3zdyuqfq_4koan7machine4core9kfunctionNtB2_9KFunction4bind
FNDA:1,_RNvMNtNtNtCscUx3zdyuqfq_4koan7machine4core9kfunctionNtB2_9KFunction9summarize
FNDA:0,_RNCNvMNtNtNtCscUx3zdyuqfq_4koan7machine4core9kfunctionNtB4_9KFunction22reconstruct_positional0Ba_
FNDA:2,_RNCNvMNtNtNtCscUx3zdyuqfq_4koan7machine4core9kfunctionNtB4_9KFunction9summarize0Ba_
FNDA:5,_RNCNvNtNtNtNtCseriWsCb5ev6_4koan7machine4core9kfunction5tests10find_match0Bb_
FNDA:2,_RNCNvNtNtNtNtCseriWsCb5ev6_4koan7machine4core9kfunction5testss_51function_value_ktype_projects_kfunctor_when_flagged0Bb_
FNDA:2,_RNCNvMNtNtNtCseriWsCb5ev6_4koan7machine4core9kfunctionNtB4_9KFunction22reconstruct_positional0Ba_
FNDA:82,_RNCNvMNtNtNtCseriWsCb5ev6_4koan7machine4core9kfunctionNtB4_9KFunction9summarize0Ba_
FNDA:18096,_RNvMNtNtNtCseriWsCb5ev6_4koan7machine4core9kfunctionNtB2_9KFunction14captured_scope
FNDA:56,_RNvMNtNtNtCseriWsCb5ev6_4koan7machine4core9kfunctionNtB2_9KFunction16with_binder_name
FNDA:11,_RNvMNtNtNtCseriWsCb5ev6_4koan7machine4core9kfunctionNtB2_9KFunction22reconstruct_positional
FNDA:17768,_RNvMNtNtNtCseriWsCb5ev6_4koan7machine4core9kfunctionNtB2_9KFunction23with_binder_and_functor
FNDA:55,_RNvMNtNtNtCseriWsCb5ev6_4koan7machine4core9kfunctionNtB2_9KFunction3new
FNDA:1546,_RNvMNtNtNtCseriWsCb5ev6_4koan7machine4core9kfunctionNtB2_9KFunction4bind
FNDA:54,_RNvMNtNtNtCseriWsCb5ev6_4koan7machine4core9kfunctionNtB2_9KFunction9summarize
FNDA:5,_RNvNtNtNtNtCseriWsCb5ev6_4koan7machine4core9kfunction5tests10find_match
FNDA:0,_RNvNtNtNtNtCseriWsCb5ev6_4koan7machine4core9kfunction5tests8body_any
FNDA:1,_RNvNtNtNtNtCseriWsCb5ev6_4koan7machine4core9kfunction5testss_51classify_skips_ref_name_indices_for_binder_function
FNDA:1,_RNvNtNtNtNtCseriWsCb5ev6_4koan7machine4core9kfunction5testss_51function_value_ktype_projects_kfunctor_when_flagged
FNDA:1,_RNvNtNtNtNtCseriWsCb5ev6_4koan7machine4core9kfunction5testss_52classify_type_token_in_any_slot_returns_wrap_indices
FNDA:1,_RNvNtNtNtNtCseriWsCb5ev6_4koan7machine4core9kfunction5testss_56classify_returns_wrap_indices_for_value_slot_identifiers
FNDA:1,_RNvNtNtNtNtCseriWsCb5ev6_4koan7machine4core9kfunction5testss_57classify_returns_ref_name_indices_for_non_binder_function
FNDA:1,_RNvNtNtNtNtCseriWsCb5ev6_4koan7machine4core9kfunction5testss_64classify_type_token_in_typeexprref_slot_returns_ref_name_indices
FNF:19
FNH:18
DA:64,55
DA:65,55
DA:66,55
DA:67,55
DA:68,55
DA:69,55
DA:70,55
DA:72,56
DA:73,56
DA:74,56
DA:75,56
DA:76,56
DA:77,56
DA:78,56
DA:79,56
DA:81,19302
DA:82,19302
DA:83,19302
DA:84,19302
DA:85,19302
DA:86,19302
DA:87,19302
DA:88,19302
DA:89,19302
DA:90,19302
DA:91,19302
DA:92,19302
DA:93,19302
DA:94,19302
DA:95,19302
DA:96,19302
DA:97,19302
DA:98,19302
DA:99,19302
DA:100,19302
DA:101,19302
DA:107,19637
DA:108,19637
DA:109,19637
DA:111,55
DA:112,55
DA:113,55
DA:114,55
DA:115,55
DA:116,84
DA:117,55
DA:118,29
DA:119,84
DA:120,55
DA:121,55
DA:122,55
DA:124,1694
DA:125,1694
DA:126,0
DA:127,0
DA:128,0
DA:129,0
DA:130,1694
DA:131,1694
DA:132,5871
DA:133,5871
DA:134,5871
DA:135,2925
DA:136,2925
DA:137,0
DA:138,0
DA:139,0
DA:140,0
DA:141,0
DA:144,0
DA:145,0
DA:146,0
DA:147,0
DA:150,2946
DA:151,2946
DA:152,0
DA:153,0
DA:154,0
DA:155,0
DA:156,0
DA:157,2946
DA:158,2946
DA:162,1694
DA:163,1694
DA:164,1694
DA:165,1694
DA:166,1694
DA:167,1694
DA:174,11
DA:175,11
DA:176,11
DA:177,11
DA:178,11
DA:179,11
DA:180,11
DA:181,9
DA:182,9
DA:183,22
DA:184,22
DA:185,9
DA:186,9
DA:188,13
DA:189,12
DA:191,1
DA:196,8
DA:197,1
DA:198,1
DA:199,1
DA:200,7
DA:201,7
DA:202,11
DA:214,0
DA:215,0
DA:216,0
DA:217,0
DA:218,0
DA:219,0
DA:220,0
DA:225,5
DA:226,5
DA:227,5
DA:228,5
DA:229,5
DA:230,5
DA:231,5
DA:232,5
DA:233,5
DA:234,5
DA:235,4
DA:236,1
DA:237,1
DA:238,1
DA:239,0
DA:240,0
DA:241,0
DA:243,0
DA:244,5
DA:250,1
DA:251,1
DA:252,1
DA:253,1
DA:254,1
DA:255,1
DA:256,1
DA:257,1
DA:258,1
DA:259,1
DA:260,1
DA:261,1
DA:262,1
DA:263,1
DA:265,1
DA:266,1
DA:267,1
DA:268,1
DA:269,1
DA:270,1
DA:277,1
DA:278,1
DA:279,1
DA:280,1
DA:281,1
DA:282,1
DA:283,1
DA:284,1
DA:285,1
DA:286,1
DA:287,1
DA:288,1
DA:289,1
DA:290,1
DA:291,1
DA:292,1
DA:293,1
DA:294,1
DA:295,1
DA:296,1
DA:297,1
DA:299,1
DA:300,1
DA:301,1
DA:303,1
DA:304,1
DA:305,1
DA:306,1
DA:307,1
DA:308,1
DA:313,1
DA:314,1
DA:315,1
DA:316,1
DA:317,1
DA:318,1
DA:319,1
DA:320,1
DA:322,1
DA:323,1
DA:324,1
DA:325,1
DA:326,1
DA:331,1
DA:337,1
DA:338,1
DA:339,1
DA:340,1
DA:341,1
DA:342,1
DA:343,1
DA:344,1
DA:345,1
DA:346,1
DA:347,1
DA:348,1
DA:349,1
DA:350,1
DA:351,1
DA:352,1
DA:353,1
DA:355,1
DA:356,1
DA:357,1
DA:358,1
DA:359,1
DA:360,1
DA:365,1
DA:367,1
DA:368,1
DA:369,1
DA:370,2
DA:371,2
DA:372,2
DA:373,2
DA:374,2
DA:375,2
DA:376,2
DA:378,2
DA:379,1
DA:380,1
DA:381,1
DA:382,1
DA:383,1
DA:384,1
DA:385,1
DA:386,1
DA:387,1
DA:391,1
DA:392,1
DA:393,1
DA:394,1
DA:395,1
DA:397,0
DA:399,1
DA:405,1
DA:406,1
DA:407,1
DA:408,1
DA:409,1
DA:410,1
DA:411,1
DA:412,1
DA:413,1
DA:414,1
DA:415,1
DA:416,1
DA:417,1
DA:418,1
DA:420,1
DA:421,1
DA:422,1
DA:423,1
DA:424,1
DA:425,1
BRF:0
BRH:0
LF:275
LH:245
end_of_record
SF:/var/home/jack/Code/koan/src/machine/core/kfunction/argument_bundle.rs
FN:28,_RNCNvMNtNtNtNtCscUx3zdyuqfq_4koan7machine4core9kfunction15argument_bundleNtB4_14ArgumentBundle10deep_clone0Bc_
FN:40,_RNCNvMNtNtNtNtCscUx3zdyuqfq_4koan7machine4core9kfunction15argument_bundleNtB4_14ArgumentBundle13require_ktype0Bc_
FN:60,_RNCNvMNtNtNtNtCscUx3zdyuqfq_4koan7machine4core9kfunction15argument_bundleNtB4_14ArgumentBundle14get_or_missing0Bc_
FN:45,_RNCNvMNtNtNtNtCscUx3zdyuqfq_4koan7machine4core9kfunction15argument_bundleNtB4_14ArgumentBundle14require_module0Bc_
FN:50,_RNCNvMNtNtNtNtCscUx3zdyuqfq_4koan7machine4core9kfunction15argument_bundleNtB4_14ArgumentBundle17require_signature0Bc_
FN:35,_RNCNvMNtNtNtNtCscUx3zdyuqfq_4koan7machine4core9kfunction15argument_bundleNtB4_14ArgumentBundle19require_kexpression0Bc_
FN:19,_RNCNvMNtNtNtNtCscUx3zdyuqfq_4koan7machine4core9kfunction15argument_bundleNtB4_14ArgumentBundle3get0Bc_
FN:23,_RNvMNtNtNtNtCscUx3zdyuqfq_4koan7machine4core9kfunction15argument_bundleNtB2_14ArgumentBundle10deep_clone
FN:38,_RNvMNtNtNtNtCscUx3zdyuqfq_4koan7machine4core9kfunction15argument_bundleNtB2_14ArgumentBundle13require_ktype
FN:58,_RNvMNtNtNtNtCscUx3zdyuqfq_4koan7machine4core9kfunction15argument_bundleNtB2_14ArgumentBundle14get_or_missing
FN:43,_RNvMNtNtNtNtCscUx3zdyuqfq_4koan7machine4core9kfunction15argument_bundleNtB2_14ArgumentBundle14require_module
FN:48,_RNvMNtNtNtNtCscUx3zdyuqfq_4koan7machine4core9kfunction15argument_bundleNtB2_14ArgumentBundle17require_signature
FN:33,_RNvMNtNtNtNtCscUx3zdyuqfq_4koan7machine4core9kfunction15argument_bundleNtB2_14ArgumentBundle19require_kexpression
FN:18,_RNvMNtNtNtNtCscUx3zdyuqfq_4koan7machine4core9kfunction15argument_bundleNtB2_14ArgumentBundle3get
FN:54,_RNvMNtNtNtNtCscUx3zdyuqfq_4koan7machine4core9kfunction15argument_bundleNtB2_14ArgumentBundle7require
FN:95,_RNvNtNtNtNtCscUx3zdyuqfq_4koan7machine4core9kfunction15argument_bundle13extract_ktype
FN:74,_RNvNtNtNtNtCscUx3zdyuqfq_4koan7machine4core9kfunction15argument_bundle19extract_kexpression
FN:170,_RNvNtNtNtNtCscUx3zdyuqfq_4koan7machine4core9kfunction15argument_bundle21extract_type_name_ref
FN:115,_RNvNtNtNtNtCscUx3zdyuqfq_4koan7machine4core9kfunction15argument_bundle22extract_bare_type_name
FN:64,_RNvNtNtNtNtCscUx3zdyuqfq_4koan7machine4core9kfunction15argument_bundle8mismatch
FN:23,_RNvMNtNtNtNtCseriWsCb5ev6_4koan7machine4core9kfunction15argument_bundleNtB2_14ArgumentBundle10deep_clone
FN:38,_RNvMNtNtNtNtCseriWsCb5ev6_4koan7machine4core9kfunction15argument_bundleNtB2_14ArgumentBundle13require_ktype
FN:58,_RNvMNtNtNtNtCseriWsCb5ev6_4koan7machine4core9kfunction15argument_bundleNtB2_14ArgumentBundle14get_or_missing
FN:43,_RNvMNtNtNtNtCseriWsCb5ev6_4koan7machine4core9kfunction15argument_bundleNtB2_14ArgumentBundle14require_module
FN:48,_RNvMNtNtNtNtCseriWsCb5ev6_4koan7machine4core9kfunction15argument_bundleNtB2_14ArgumentBundle17require_signature
FN:33,_RNvMNtNtNtNtCseriWsCb5ev6_4koan7machine4core9kfunction15argument_bundleNtB2_14ArgumentBundle19require_kexpression
FN:18,_RNvMNtNtNtNtCseriWsCb5ev6_4koan7machine4core9kfunction15argument_bundleNtB2_14ArgumentBundle3get
FN:54,_RNvMNtNtNtNtCseriWsCb5ev6_4koan7machine4core9kfunction15argument_bundleNtB2_14ArgumentBundle7require
FN:95,_RNvNtNtNtNtCseriWsCb5ev6_4koan7machine4core9kfunction15argument_bundle13extract_ktype
FN:74,_RNvNtNtNtNtCseriWsCb5ev6_4koan7machine4core9kfunction15argument_bundle19extract_kexpression
FN:170,_RNvNtNtNtNtCseriWsCb5ev6_4koan7machine4core9kfunction15argument_bundle21extract_type_name_ref
FN:115,_RNvNtNtNtNtCseriWsCb5ev6_4koan7machine4core9kfunction15argument_bundle22extract_bare_type_name
FN:64,_RNvNtNtNtNtCseriWsCb5ev6_4koan7machine4core9kfunction15argument_bundle8mismatch
FN:28,_RNCNvMNtNtNtNtCseriWsCb5ev6_4koan7machine4core9kfunction15argument_bundleNtB4_14ArgumentBundle10deep_clone0Bc_
FN:40,_RNCNvMNtNtNtNtCseriWsCb5ev6_4koan7machine4core9kfunction15argument_bundleNtB4_14ArgumentBundle13require_ktype0Bc_
FN:60,_RNCNvMNtNtNtNtCseriWsCb5ev6_4koan7machine4core9kfunction15argument_bundleNtB4_14ArgumentBundle14get_or_missing0Bc_
FN:45,_RNCNvMNtNtNtNtCseriWsCb5ev6_4koan7machine4core9kfunction15argument_bundleNtB4_14ArgumentBundle14require_module0Bc_
FN:50,_RNCNvMNtNtNtNtCseriWsCb5ev6_4koan7machine4core9kfunction15argument_bundleNtB4_14ArgumentBundle17require_signature0Bc_
FN:35,_RNCNvMNtNtNtNtCseriWsCb5ev6_4koan7machine4core9kfunction15argument_bundleNtB4_14ArgumentBundle19require_kexpression0Bc_
FN:19,_RNCNvMNtNtNtNtCseriWsCb5ev6_4koan7machine4core9kfunction15argument_bundleNtB4_14ArgumentBundle3get0Bc_
FNDA:0,_RNCNvMNtNtNtNtCscUx3zdyuqfq_4koan7machine4core9kfunction15argument_bundleNtB4_14ArgumentBundle10deep_clone0Bc_
FNDA:0,_RNCNvMNtNtNtNtCscUx3zdyuqfq_4koan7machine4core9kfunction15argument_bundleNtB4_14ArgumentBundle13require_ktype0Bc_
FNDA:0,_RNCNvMNtNtNtNtCscUx3zdyuqfq_4koan7machine4core9kfunction15argument_bundleNtB4_14ArgumentBundle14get_or_missing0Bc_
FNDA:0,_RNCNvMNtNtNtNtCscUx3zdyuqfq_4koan7machine4core9kfunction15argument_bundleNtB4_14ArgumentBundle14require_module0Bc_
FNDA:0,_RNCNvMNtNtNtNtCscUx3zdyuqfq_4koan7machine4core9kfunction15argument_bundleNtB4_14ArgumentBundle17require_signature0Bc_
FNDA:0,_RNCNvMNtNtNtNtCscUx3zdyuqfq_4koan7machine4core9kfunction15argument_bundleNtB4_14ArgumentBundle19require_kexpression0Bc_
FNDA:223,_RNCNvMNtNtNtNtCscUx3zdyuqfq_4koan7machine4core9kfunction15argument_bundleNtB4_14ArgumentBundle3get0Bc_
FNDA:0,_RNvMNtNtNtNtCscUx3zdyuqfq_4koan7machine4core9kfunction15argument_bundleNtB2_14ArgumentBundle10deep_clone
FNDA:12,_RNvMNtNtNtNtCscUx3zdyuqfq_4koan7machine4core9kfunction15argument_bundleNtB2_14ArgumentBundle13require_ktype
FNDA:88,_RNvMNtNtNtNtCscUx3zdyuqfq_4koan7machine4core9kfunction15argument_bundleNtB2_14ArgumentBundle14get_or_missing
FNDA:4,_RNvMNtNtNtNtCscUx3zdyuqfq_4koan7machine4core9kfunction15argument_bundleNtB2_14ArgumentBundle14require_module
FNDA:4,_RNvMNtNtNtNtCscUx3zdyuqfq_4koan7machine4core9kfunction15argument_bundleNtB2_14ArgumentBundle17require_signature
FNDA:5,_RNvMNtNtNtNtCscUx3zdyuqfq_4koan7machine4core9kfunction15argument_bundleNtB2_14ArgumentBundle19require_kexpression
FNDA:223,_RNvMNtNtNtNtCscUx3zdyuqfq_4koan7machine4core9kfunction15argument_bundleNtB2_14ArgumentBundle3get
FNDA:63,_RNvMNtNtNtNtCscUx3zdyuqfq_4koan7machine4core9kfunction15argument_bundleNtB2_14ArgumentBundle7require
FNDA:13,_RNvNtNtNtNtCscUx3zdyuqfq_4koan7machine4core9kfunction15argument_bundle13extract_ktype
FNDA:64,_RNvNtNtNtNtCscUx3zdyuqfq_4koan7machine4core9kfunction15argument_bundle19extract_kexpression
FNDA:1,_RNvNtNtNtNtCscUx3zdyuqfq_4koan7machine4core9kfunction15argument_bundle21extract_type_name_ref
FNDA:35,_RNvNtNtNtNtCscUx3zdyuqfq_4koan7machine4core9kfunction15argument_bundle22extract_bare_type_name
FNDA:0,_RNvNtNtNtNtCscUx3zdyuqfq_4koan7machine4core9kfunction15argument_bundle8mismatch
FNDA:15,_RNvMNtNtNtNtCseriWsCb5ev6_4koan7machine4core9kfunction15argument_bundleNtB2_14ArgumentBundle10deep_clone
FNDA:84,_RNvMNtNtNtNtCseriWsCb5ev6_4koan7machine4core9kfunction15argument_bundleNtB2_14ArgumentBundle13require_ktype
FNDA:698,_RNvMNtNtNtNtCseriWsCb5ev6_4koan7machine4core9kfunction15argument_bundleNtB2_14ArgumentBundle14get_or_missing
FNDA:45,_RNvMNtNtNtNtCseriWsCb5ev6_4koan7machine4core9kfunction15argument_bundleNtB2_14ArgumentBundle14require_module
FNDA:46,_RNvMNtNtNtNtCseriWsCb5ev6_4koan7machine4core9kfunction15argument_bundleNtB2_14ArgumentBundle17require_signature
FNDA:22,_RNvMNtNtNtNtCseriWsCb5ev6_4koan7machine4core9kfunction15argument_bundleNtB2_14ArgumentBundle19require_kexpression
FNDA:1728,_RNvMNtNtNtNtCseriWsCb5ev6_4koan7machine4core9kfunction15argument_bundleNtB2_14ArgumentBundle3get
FNDA:501,_RNvMNtNtNtNtCseriWsCb5ev6_4koan7machine4core9kfunction15argument_bundleNtB2_14ArgumentBundle7require
FNDA:176,_RNvNtNtNtNtCseriWsCb5ev6_4koan7machine4core9kfunction15argument_bundle13extract_ktype
FNDA:742,_RNvNtNtNtNtCseriWsCb5ev6_4koan7machine4core9kfunction15argument_bundle19extract_kexpression
FNDA:16,_RNvNtNtNtNtCseriWsCb5ev6_4koan7machine4core9kfunction15argument_bundle21extract_type_name_ref
FNDA:244,_RNvNtNtNtNtCseriWsCb5ev6_4koan7machine4core9kfunction15argument_bundle22extract_bare_type_name
FNDA:5,_RNvNtNtNtNtCseriWsCb5ev6_4koan7machine4core9kfunction15argument_bundle8mismatch
FNDA:18,_RNCNvMNtNtNtNtCseriWsCb5ev6_4koan7machine4core9kfunction15argument_bundleNtB4_14ArgumentBundle10deep_clone0Bc_
FNDA:2,_RNCNvMNtNtNtNtCseriWsCb5ev6_4koan7machine4core9kfunction15argument_bundleNtB4_14ArgumentBundle13require_ktype0Bc_
FNDA:1,_RNCNvMNtNtNtNtCseriWsCb5ev6_4koan7machine4core9kfunction15argument_bundleNtB4_14ArgumentBundle14get_or_missing0Bc_
FNDA:1,_RNCNvMNtNtNtNtCseriWsCb5ev6_4koan7machine4core9kfunction15argument_bundleNtB4_14ArgumentBundle14require_module0Bc_
FNDA:1,_RNCNvMNtNtNtNtCseriWsCb5ev6_4koan7machine4core9kfunction15argument_bundleNtB4_14ArgumentBundle17require_signature0Bc_
FNDA:1,_RNCNvMNtNtNtNtCseriWsCb5ev6_4koan7machine4core9kfunction15argument_bundleNtB4_14ArgumentBundle19require_kexpression0Bc_
FNDA:1726,_RNCNvMNtNtNtNtCseriWsCb5ev6_4koan7machine4core9kfunction15argument_bundleNtB4_14ArgumentBundle3get0Bc_
FNF:20
FNH:20
DA:18,1951
DA:19,1951
DA:20,1951
DA:23,15
DA:25,15
DA:26,15
DA:27,15
DA:28,18
DA:29,15
DA:31,15
DA:33,27
DA:34,27
DA:35,27
DA:36,27
DA:38,96
DA:39,96
DA:40,96
DA:41,96
DA:43,49
DA:44,49
DA:45,49
DA:46,49
DA:48,50
DA:49,50
DA:50,50
DA:51,50
DA:54,564
DA:55,564
DA:56,564
DA:58,786
DA:59,786
DA:60,786
DA:61,786
DA:64,5
DA:65,5
DA:66,5
DA:67,5
DA:68,5
DA:69,5
DA:70,5
DA:74,806
DA:75,806
DA:76,806
DA:77,806
DA:78,806
DA:79,806
DA:80,803
DA:81,1
DA:82,2
DA:83,1
DA:84,1
DA:87,806
DA:95,189
DA:96,189
DA:97,189
DA:98,189
DA:99,189
DA:100,189
DA:101,186
DA:102,1
DA:103,2
DA:104,1
DA:105,1
DA:108,189
DA:115,279
DA:116,279
DA:117,279
DA:118,279
DA:119,279
DA:120,279
DA:121,275
DA:122,273
DA:124,2
DA:125,2
DA:126,2
DA:127,2
DA:130,2
DA:146,1
DA:153,1
DA:154,1
DA:155,1
DA:156,1
DA:158,1
DA:159,1
DA:160,1
DA:161,1
DA:162,1
DA:163,1
DA:165,279
DA:170,17
DA:171,17
DA:172,17
DA:173,17
DA:174,17
DA:175,17
DA:176,14
DA:177,1
DA:178,2
DA:179,1
DA:180,1
DA:183,17
BRF:0
BRH:0
LF:108
LH:108
end_of_record
SF:/var/home/jack/Code/koan/src/machine/core/kfunction/body.rs
FN:144,_RNCNvNtNtNtNtCscUx3zdyuqfq_4koan7machine4core9kfunction4body21split_body_statements0Bb_
FN:147,_RNCNvNtNtNtNtCscUx3zdyuqfq_4koan7machine4core9kfunction4body21split_body_statementss_0Bb_
FN:96,_RNvMNtNtNtNtCscUx3zdyuqfq_4koan7machine4core9kfunction4bodyNtB2_10BodyResult15tail_with_block
FN:68,_RNvMNtNtNtNtCscUx3zdyuqfq_4koan7machine4core9kfunction4bodyNtB2_10BodyResult15tail_with_frame
FN:105,_RNvMNtNtNtNtCscUx3zdyuqfq_4koan7machine4core9kfunction4bodyNtB2_10BodyResult24tail_with_block_at_index
FN:77,_RNvMNtNtNtNtCscUx3zdyuqfq_4koan7machine4core9kfunction4bodyNtB2_10BodyResult24tail_with_frame_at_index
FN:120,_RNvMNtNtNtNtCscUx3zdyuqfq_4koan7machine4core9kfunction4bodyNtB2_10BodyResult3err
FN:58,_RNvMNtNtNtNtCscUx3zdyuqfq_4koan7machine4core9kfunction4bodyNtB2_10BodyResult4tail
FN:142,_RNvNtNtNtNtCscUx3zdyuqfq_4koan7machine4core9kfunction4body21split_body_statements
FN:225,_RNvNtNtNtNtNtCseriWsCb5ev6_4koan7machine4core9kfunction4body5testss_26expect_value_panics_on_err
FN:211,_RNvNtNtNtNtNtCseriWsCb5ev6_4koan7machine4core9kfunction4body5testss_27expect_value_panics_on_tail
FN:197,_RNvNtNtNtNtNtCseriWsCb5ev6_4koan7machine4core9kfunction4body5testss_28err_constructor_wraps_kerror
FN:218,_RNvNtNtNtNtNtCseriWsCb5ev6_4koan7machine4core9kfunction4body5testss_31expect_value_panics_on_defer_to
FN:144,_RNCNvNtNtNtNtCseriWsCb5ev6_4koan7machine4core9kfunction4body21split_body_statements0Bb_
FN:147,_RNCNvNtNtNtNtCseriWsCb5ev6_4koan7machine4core9kfunction4body21split_body_statementss_0Bb_
FN:127,_RNvMNtNtNtNtCseriWsCb5ev6_4koan7machine4core9kfunction4bodyNtB2_10BodyResult12expect_value
FN:96,_RNvMNtNtNtNtCseriWsCb5ev6_4koan7machine4core9kfunction4bodyNtB2_10BodyResult15tail_with_block
FN:68,_RNvMNtNtNtNtCseriWsCb5ev6_4koan7machine4core9kfunction4bodyNtB2_10BodyResult15tail_with_frame
FN:105,_RNvMNtNtNtNtCseriWsCb5ev6_4koan7machine4core9kfunction4bodyNtB2_10BodyResult24tail_with_block_at_index
FN:77,_RNvMNtNtNtNtCseriWsCb5ev6_4koan7machine4core9kfunction4bodyNtB2_10BodyResult24tail_with_frame_at_index
FN:120,_RNvMNtNtNtNtCseriWsCb5ev6_4koan7machine4core9kfunction4bodyNtB2_10BodyResult3err
FN:58,_RNvMNtNtNtNtCseriWsCb5ev6_4koan7machine4core9kfunction4bodyNtB2_10BodyResult4tail
FN:142,_RNvNtNtNtNtCseriWsCb5ev6_4koan7machine4core9kfunction4body21split_body_statements
FNDA:4,_RNCNvNtNtNtNtCscUx3zdyuqfq_4koan7machine4core9kfunction4body21split_body_statements0Bb_
FNDA:0,_RNCNvNtNtNtNtCscUx3zdyuqfq_4koan7machine4core9kfunction4body21split_body_statementss_0Bb_
FNDA:0,_RNvMNtNtNtNtCscUx3zdyuqfq_4koan7machine4core9kfunction4bodyNtB2_10BodyResult15tail_with_block
FNDA:7,_RNvMNtNtNtNtCscUx3zdyuqfq_4koan7machine4core9kfunction4bodyNtB2_10BodyResult15tail_with_frame
FNDA:0,_RNvMNtNtNtNtCscUx3zdyuqfq_4koan7machine4core9kfunction4bodyNtB2_10BodyResult24tail_with_block_at_index
FNDA:7,_RNvMNtNtNtNtCscUx3zdyuqfq_4koan7machine4core9kfunction4bodyNtB2_10BodyResult24tail_with_frame_at_index
FNDA:0,_RNvMNtNtNtNtCscUx3zdyuqfq_4koan7machine4core9kfunction4bodyNtB2_10BodyResult3err
FNDA:0,_RNvMNtNtNtNtCscUx3zdyuqfq_4koan7machine4core9kfunction4bodyNtB2_10BodyResult4tail
FNDA:7,_RNvNtNtNtNtCscUx3zdyuqfq_4koan7machine4core9kfunction4body21split_body_statements
FNDA:1,_RNvNtNtNtNtNtCseriWsCb5ev6_4koan7machine4core9kfunction4body5testss_26expect_value_panics_on_err
FNDA:1,_RNvNtNtNtNtNtCseriWsCb5ev6_4koan7machine4core9kfunction4body5testss_27expect_value_panics_on_tail
FNDA:1,_RNvNtNtNtNtNtCseriWsCb5ev6_4koan7machine4core9kfunction4body5testss_28err_constructor_wraps_kerror
FNDA:1,_RNvNtNtNtNtNtCseriWsCb5ev6_4koan7machine4core9kfunction4body5testss_31expect_value_panics_on_defer_to
FNDA:175,_RNCNvNtNtNtNtCseriWsCb5ev6_4koan7machine4core9kfunction4body21split_body_statements0Bb_
FNDA:18,_RNCNvNtNtNtNtCseriWsCb5ev6_4koan7machine4core9kfunction4body21split_body_statementss_0Bb_
FNDA:4,_RNvMNtNtNtNtCseriWsCb5ev6_4koan7machine4core9kfunction4bodyNtB2_10BodyResult12expect_value
FNDA:78,_RNvMNtNtNtNtCseriWsCb5ev6_4koan7machine4core9kfunction4bodyNtB2_10BodyResult15tail_with_block
FNDA:283,_RNvMNtNtNtNtCseriWsCb5ev6_4koan7machine4core9kfunction4bodyNtB2_10BodyResult15tail_with_frame
FNDA:79,_RNvMNtNtNtNtCseriWsCb5ev6_4koan7machine4core9kfunction4bodyNtB2_10BodyResult24tail_with_block_at_index
FNDA:289,_RNvMNtNtNtNtCseriWsCb5ev6_4koan7machine4core9kfunction4bodyNtB2_10BodyResult24tail_with_frame_at_index
FNDA:2,_RNvMNtNtNtNtCseriWsCb5ev6_4koan7machine4core9kfunction4bodyNtB2_10BodyResult3err
FNDA:1,_RNvMNtNtNtNtCseriWsCb5ev6_4koan7machine4core9kfunction4bodyNtB2_10BodyResult4tail
FNDA:372,_RNvNtNtNtNtCseriWsCb5ev6_4koan7machine4core9kfunction4body21split_body_statements
FNF:14
FNH:14
DA:58,1
DA:59,1
DA:60,1
DA:61,1
DA:62,1
DA:63,1
DA:64,1
DA:65,1
DA:66,1
DA:68,290
DA:69,290
DA:70,290
DA:71,290
DA:72,290
DA:73,290
DA:74,290
DA:77,296
DA:78,296
DA:79,296
DA:80,296
DA:81,296
DA:82,296
DA:85,296
DA:86,296
DA:87,296
DA:88,296
DA:89,296
DA:90,296
DA:91,296
DA:92,296
DA:93,296
DA:96,78
DA:97,78
DA:98,78
DA:99,78
DA:100,78
DA:101,78
DA:102,78
DA:105,79
DA:106,79
DA:107,79
DA:108,79
DA:109,79
DA:110,79
DA:111,79
DA:112,79
DA:113,79
DA:114,79
DA:115,79
DA:116,79
DA:117,79
DA:118,79
DA:120,2
DA:121,2
DA:122,2
DA:127,4
DA:128,4
DA:129,1
DA:130,1
DA:131,1
DA:132,1
DA:134,1
DA:142,379
DA:143,379
DA:144,179
DA:145,379
DA:146,7
DA:147,18
DA:148,18
DA:149,0
DA:150,18
DA:151,7
DA:153,372
DA:155,379
DA:197,1
DA:198,1
DA:199,1
DA:200,1
DA:201,1
DA:202,1
DA:203,0
DA:205,0
DA:207,1
DA:211,1
DA:212,1
DA:213,1
DA:214,1
DA:218,1
DA:219,1
DA:220,1
DA:221,1
DA:225,1
DA:226,1
DA:227,1
DA:228,1
DA:229,1
BRF:0
BRH:0
LF:98
LH:95
end_of_record
SF:/var/home/jack/Code/koan/src/machine/core/kfunction/invoke.rs
FN:36,_RNvMNtNtNtNtCscUx3zdyuqfq_4koan7machine4core9kfunction6invokeNtB4_9KFunction6invoke
FN:324,_RNvNtNtNtNtCscUx3zdyuqfq_4koan7machine4core9kfunction6invoke17type_identity_for
FN:289,_RNvNtNtNtNtCscUx3zdyuqfq_4koan7machine4core9kfunction6invoke24is_parameterized_carrier
FN:298,_RNvNtNtNtNtCscUx3zdyuqfq_4koan7machine4core9kfunction6invoke26signature_argument_by_name
FN:53,_RNCNvMNtNtNtNtCscUx3zdyuqfq_4koan7machine4core9kfunction6invokeNtB6_9KFunction6invoke0Bc_
FN:97,_RNCNvMNtNtNtNtCscUx3zdyuqfq_4koan7machine4core9kfunction6invokeNtB6_9KFunction6invokes0_0Bc_
FN:143,_RNCNvMNtNtNtNtCscUx3zdyuqfq_4koan7machine4core9kfunction6invokeNtB6_9KFunction6invokes1_0Bc_
FN:188,_RNCNvMNtNtNtNtCscUx3zdyuqfq_4koan7machine4core9kfunction6invokeNtB6_9KFunction6invokes2_0Bc_
FN:213,_RNCNvMNtNtNtNtCscUx3zdyuqfq_4koan7machine4core9kfunction6invokeNtB6_9KFunction6invokes3_0Bc_
FN:233,_RNCNvMNtNtNtNtCscUx3zdyuqfq_4koan7machine4core9kfunction6invokeNtB6_9KFunction6invokes4_0Bc_
FN:54,_RNCNvMNtNtNtNtCscUx3zdyuqfq_4koan7machine4core9kfunction6invokeNtB6_9KFunction6invokes_0Bc_
FN:302,_RNCNvNtNtNtNtCscUx3zdyuqfq_4koan7machine4core9kfunction6invoke26signature_argument_by_name0Bb_
FN:53,_RNCNvMNtNtNtNtCseriWsCb5ev6_4koan7machine4core9kfunction6invokeNtB6_9KFunction6invoke0Bc_
FN:97,_RNCNvMNtNtNtNtCseriWsCb5ev6_4koan7machine4core9kfunction6invokeNtB6_9KFunction6invokes0_0Bc_
FN:143,_RNCNvMNtNtNtNtCseriWsCb5ev6_4koan7machine4core9kfunction6invokeNtB6_9KFunction6invokes1_0Bc_
FN:188,_RNCNvMNtNtNtNtCseriWsCb5ev6_4koan7machine4core9kfunction6invokeNtB6_9KFunction6invokes2_0Bc_
FN:213,_RNCNvMNtNtNtNtCseriWsCb5ev6_4koan7machine4core9kfunction6invokeNtB6_9KFunction6invokes3_0Bc_
FN:233,_RNCNvMNtNtNtNtCseriWsCb5ev6_4koan7machine4core9kfunction6invokeNtB6_9KFunction6invokes4_0Bc_
FN:54,_RNCNvMNtNtNtNtCseriWsCb5ev6_4koan7machine4core9kfunction6invokeNtB6_9KFunction6invokes_0Bc_
FN:302,_RNCNvNtNtNtNtCseriWsCb5ev6_4koan7machine4core9kfunction6invoke26signature_argument_by_name0Bb_
FN:36,_RNvMNtNtNtNtCseriWsCb5ev6_4koan7machine4core9kfunction6invokeNtB4_9KFunction6invoke
FN:324,_RNvNtNtNtNtCseriWsCb5ev6_4koan7machine4core9kfunction6invoke17type_identity_for
FN:289,_RNvNtNtNtNtCseriWsCb5ev6_4koan7machine4core9kfunction6invoke24is_parameterized_carrier
FN:298,_RNvNtNtNtNtCseriWsCb5ev6_4koan7machine4core9kfunction6invoke26signature_argument_by_name
FNDA:148,_RNvMNtNtNtNtCscUx3zdyuqfq_4koan7machine4core9kfunction6invokeNtB4_9KFunction6invoke
FNDA:4,_RNvNtNtNtNtCscUx3zdyuqfq_4koan7machine4core9kfunction6invoke17type_identity_for
FNDA:8,_RNvNtNtNtNtCscUx3zdyuqfq_4koan7machine4core9kfunction6invoke24is_parameterized_carrier
FNDA:24,_RNvNtNtNtNtCscUx3zdyuqfq_4koan7machine4core9kfunction6invoke26signature_argument_by_name
FNDA:0,_RNCNvMNtNtNtNtCscUx3zdyuqfq_4koan7machine4core9kfunction6invokeNtB6_9KFunction6invoke0Bc_
FNDA:8,_RNCNvMNtNtNtNtCscUx3zdyuqfq_4koan7machine4core9kfunction6invokeNtB6_9KFunction6invokes0_0Bc_
FNDA:0,_RNCNvMNtNtNtNtCscUx3zdyuqfq_4koan7machine4core9kfunction6invokeNtB6_9KFunction6invokes1_0Bc_
FNDA:0,_RNCNvMNtNtNtNtCscUx3zdyuqfq_4koan7machine4core9kfunction6invokeNtB6_9KFunction6invokes2_0Bc_
FNDA:0,_RNCNvMNtNtNtNtCscUx3zdyuqfq_4koan7machine4core9kfunction6invokeNtB6_9KFunction6invokes3_0Bc_
FNDA:0,_RNCNvMNtNtNtNtCscUx3zdyuqfq_4koan7machine4core9kfunction6invokeNtB6_9KFunction6invokes4_0Bc_
FNDA:7,_RNCNvMNtNtNtNtCscUx3zdyuqfq_4koan7machine4core9kfunction6invokeNtB6_9KFunction6invokes_0Bc_
FNDA:27,_RNCNvNtNtNtNtCscUx3zdyuqfq_4koan7machine4core9kfunction6invoke26signature_argument_by_name0Bb_
FNDA:6,_RNCNvMNtNtNtNtCseriWsCb5ev6_4koan7machine4core9kfunction6invokeNtB6_9KFunction6invoke0Bc_
FNDA:182,_RNCNvMNtNtNtNtCseriWsCb5ev6_4koan7machine4core9kfunction6invokeNtB6_9KFunction6invokes0_0Bc_
FNDA:10,_RNCNvMNtNtNtNtCseriWsCb5ev6_4koan7machine4core9kfunction6invokeNtB6_9KFunction6invokes1_0Bc_
FNDA:1,_RNCNvMNtNtNtNtCseriWsCb5ev6_4koan7machine4core9kfunction6invokeNtB6_9KFunction6invokes2_0Bc_
FNDA:4,_RNCNvMNtNtNtNtCseriWsCb5ev6_4koan7machine4core9kfunction6invokeNtB6_9KFunction6invokes3_0Bc_
FNDA:4,_RNCNvMNtNtNtNtCseriWsCb5ev6_4koan7machine4core9kfunction6invokeNtB6_9KFunction6invokes4_0Bc_
FNDA:287,_RNCNvMNtNtNtNtCseriWsCb5ev6_4koan7machine4core9kfunction6invokeNtB6_9KFunction6invokes_0Bc_
FNDA:576,_RNCNvNtNtNtNtCseriWsCb5ev6_4koan7machine4core9kfunction6invoke26signature_argument_by_name0Bb_
FNDA:1534,_RNvMNtNtNtNtCseriWsCb5ev6_4koan7machine4core9kfunction6invokeNtB4_9KFunction6invoke
FNDA:31,_RNvNtNtNtNtCseriWsCb5ev6_4koan7machine4core9kfunction6invoke17type_identity_for
FNDA:182,_RNvNtNtNtNtCseriWsCb5ev6_4koan7machine4core9kfunction6invoke24is_parameterized_carrier
FNDA:546,_RNvNtNtNtNtCseriWsCb5ev6_4koan7machine4core9kfunction6invoke26signature_argument_by_name
FNF:12
FNH:12
DA:36,1682
DA:37,1682
DA:38,1682
DA:39,1682
DA:40,1682
DA:41,1682
DA:42,1682
DA:43,1382
DA:44,300
DA:45,300
DA:51,300
DA:52,300
DA:53,300
DA:54,300
DA:62,300
DA:63,300
DA:64,300
DA:65,300
DA:66,300
DA:67,300
DA:68,300
DA:69,190
DA:75,190
DA:76,190
DA:77,18
DA:78,0
DA:79,0
DA:80,0
DA:81,0
DA:82,0
DA:83,0
DA:84,0
DA:85,0
DA:86,0
DA:87,0
DA:88,18
DA:89,18
DA:90,172
DA:91,0
DA:92,190
DA:96,190
DA:97,190
DA:98,190
DA:102,190
DA:103,190
DA:104,190
DA:105,161
DA:106,161
DA:107,161
DA:108,190
DA:109,190
DA:110,29
DA:111,29
DA:112,29
DA:113,29
DA:114,0
DA:115,0
DA:117,161
DA:118,0
DA:120,300
DA:124,300
DA:125,300
DA:127,300
DA:129,296
DA:130,6
DA:131,6
DA:132,6
DA:133,6
DA:134,6
DA:135,6
DA:136,6
DA:137,10
DA:138,10
DA:139,10
DA:140,10
DA:141,10
DA:143,10
DA:144,10
DA:145,10
DA:147,6
DA:149,290
DA:150,290
DA:151,290
DA:157,4
DA:158,4
DA:159,3
DA:160,3
DA:161,3
DA:162,3
DA:169,0
DA:170,0
DA:173,0
DA:175,0
DA:176,0
DA:177,0
DA:180,0
DA:183,3
DA:185,1
DA:186,1
DA:187,1
DA:188,1
DA:189,1
DA:190,1
DA:191,1
DA:198,4
DA:199,4
DA:200,4
DA:201,4
DA:202,4
DA:203,4
DA:204,4
DA:205,4
DA:206,4
DA:207,4
DA:208,4
DA:209,4
DA:210,4
DA:212,4
DA:213,4
DA:214,4
DA:215,4
DA:216,4
DA:217,4
DA:218,4
DA:219,4
DA:220,4
DA:222,4
DA:228,4
DA:229,4
DA:230,1
DA:231,3
DA:232,4
DA:233,4
DA:234,4
DA:235,4
DA:236,3
DA:237,1
DA:238,1
DA:239,0
DA:240,0
DA:241,0
DA:242,0
DA:243,0
DA:244,0
DA:245,0
DA:246,0
DA:248,0
DA:251,4
DA:252,2
DA:253,2
DA:254,2
DA:255,2
DA:256,2
DA:257,2
DA:258,2
DA:259,2
DA:260,2
DA:261,2
DA:262,2
DA:263,2
DA:264,2
DA:265,2
DA:269,2
DA:270,2
DA:271,4
DA:276,4
DA:277,4
DA:282,1682
DA:289,190
DA:290,172
DA:291,190
DA:294,190
DA:298,570
DA:299,570
DA:300,570
DA:301,570
DA:302,603
DA:303,603
DA:304,600
DA:305,1170
DA:306,570
DA:324,35
DA:325,35
DA:326,35
DA:327,35
DA:328,35
DA:329,35
DA:330,35
DA:331,23
DA:332,23
DA:333,1
DA:335,1
DA:336,1
DA:337,0
DA:339,1
DA:340,1
DA:341,0
DA:343,8
DA:344,8
DA:345,0
DA:347,1
DA:348,1
DA:349,0
DA:350,0
DA:351,0
DA:352,0
DA:353,0
DA:354,0
DA:355,0
DA:356,0
DA:360,0
DA:362,0
DA:364,0
DA:366,35
BRF:0
BRH:0
LF:222
LH:178
end_of_record
SF:/var/home/jack/Code/koan/src/machine/core/kfunction/pick.rs
FN:122,_RNvNtNtNtNtCscUx3zdyuqfq_4koan7machine4core9kfunction4pick12is_bare_name
FN:88,_RNvMNtNtNtNtCscUx3zdyuqfq_4koan7machine4core9kfunction4pickNtB4_9KFunction17classify_for_pick
FN:41,_RNvMNtNtNtNtCscUx3zdyuqfq_4koan7machine4core9kfunction4pickNtB4_9KFunction18lazy_eager_indices
FN:88,_RNvMNtNtNtNtCseriWsCb5ev6_4koan7machine4core9kfunction4pickNtB4_9KFunction17classify_for_pick
FN:41,_RNvMNtNtNtNtCseriWsCb5ev6_4koan7machine4core9kfunction4pickNtB4_9KFunction18lazy_eager_indices
FN:122,_RNvNtNtNtNtCseriWsCb5ev6_4koan7machine4core9kfunction4pick12is_bare_name
FNDA:663,_RNvNtNtNtNtCscUx3zdyuqfq_4koan7machine4core9kfunction4pick12is_bare_name
FNDA:194,_RNvMNtNtNtNtCscUx3zdyuqfq_4koan7machine4core9kfunction4pickNtB4_9KFunction17classify_for_pick
FNDA:194,_RNvMNtNtNtNtCscUx3zdyuqfq_4koan7machine4core9kfunction4pickNtB4_9KFunction18lazy_eager_indices
FNDA:1842,_RNvMNtNtNtNtCseriWsCb5ev6_4koan7machine4core9kfunction4pickNtB4_9KFunction17classify_for_pick
FNDA:1842,_RNvMNtNtNtNtCseriWsCb5ev6_4koan7machine4core9kfunction4pickNtB4_9KFunction18lazy_eager_indices
FNDA:5304,_RNvNtNtNtNtCseriWsCb5ev6_4koan7machine4core9kfunction4pick12is_bare_name
FNF:3
FNH:3
DA:41,2036
DA:42,2036
DA:43,2036
DA:44,0
DA:45,2036
DA:46,2036
DA:47,2036
DA:48,7140
DA:49,7140
DA:50,3552
DA:51,0
DA:52,3588
DA:53,928
DA:54,928
DA:55,928
DA:56,0
DA:58,281
DA:59,281
DA:60,281
DA:61,281
DA:62,281
DA:63,281
DA:64,2379
DA:69,2379
DA:70,1633
DA:72,341
DA:73,2038
DA:74,2038
DA:75,0
DA:76,2038
DA:81,2036
DA:82,2036
DA:88,2036
DA:89,2036
DA:90,2036
DA:91,2036
DA:92,2036
DA:93,7140
DA:94,7140
DA:95,3588
DA:96,1955
DA:97,1633
DA:98,1633
DA:102,1292
DA:103,272
DA:104,1020
DA:106,341
DA:109,2036
DA:110,2036
DA:111,2036
DA:112,2036
DA:113,2036
DA:114,2036
DA:115,2036
DA:122,5967
DA:123,2701
DA:124,2080
DA:128,5967
BRF:0
BRH:0
LF:58
LH:54
end_of_record
SF:/var/home/jack/Code/koan/src/machine/core/kfunction/scheduler_handle.rs
FN:104,_RNCNvYNtNtNtNtCscUx3zdyuqfq_4koan7machine7execute9scheduler9SchedulerNtNtNtNtBa_4core9kfunction16scheduler_handle15SchedulerHandle16enter_body_block0Bc_
FN:110,_RNCNvYNtNtNtNtCscUx3zdyuqfq_4koan7machine7execute9scheduler9SchedulerNtNtNtNtBa_4core9kfunction16scheduler_handle15SchedulerHandle16enter_body_blocks_0Bc_
FN:104,_RNCNvYNtNtNtNtNtCscUx3zdyuqfq_4koan7machine7execute8dispatch3ctx11DispatchCtxNtNtNtNtBc_4core9kfunction16scheduler_handle15SchedulerHandle16enter_body_block0Be_
FN:110,_RNCNvYNtNtNtNtNtCscUx3zdyuqfq_4koan7machine7execute8dispatch3ctx11DispatchCtxNtNtNtNtBc_4core9kfunction16scheduler_handle15SchedulerHandle16enter_body_blocks_0Be_
FN:95,_RNvYNtNtNtNtNtCscUx3zdyuqfq_4koan7machine7execute8dispatch3ctx11DispatchCtxNtNtNtNtBa_4core9kfunction16scheduler_handle15SchedulerHandle16enter_body_blockBc_
FN:20,_RNvMNtNtNtNtCscUx3zdyuqfq_4koan7machine4core9kfunction16scheduler_handleNtB2_6NodeId5index
FN:95,_RNvYNtNtNtNtCscUx3zdyuqfq_4koan7machine7execute9scheduler9SchedulerNtNtNtNtB8_4core9kfunction16scheduler_handle15SchedulerHandle16enter_body_blockBa_
FN:104,_RNCNvYNtNtNtNtCseriWsCb5ev6_4koan7machine7execute9scheduler9SchedulerNtNtNtNtBa_4core9kfunction16scheduler_handle15SchedulerHandle16enter_body_block0Bc_
FN:110,_RNCNvYNtNtNtNtCseriWsCb5ev6_4koan7machine7execute9scheduler9SchedulerNtNtNtNtBa_4core9kfunction16scheduler_handle15SchedulerHandle16enter_body_blocks_0Bc_
FN:104,_RNCNvYNtNtNtNtNtCseriWsCb5ev6_4koan7machine7execute8dispatch3ctx11DispatchCtxNtNtNtNtBc_4core9kfunction16scheduler_handle15SchedulerHandle16enter_body_block0Be_
FN:110,_RNCNvYNtNtNtNtNtCseriWsCb5ev6_4koan7machine7execute8dispatch3ctx11DispatchCtxNtNtNtNtBc_4core9kfunction16scheduler_handle15SchedulerHandle16enter_body_blocks_0Be_
FN:20,_RNvMNtNtNtNtCseriWsCb5ev6_4koan7machine4core9kfunction16scheduler_handleNtB2_6NodeId5index
FN:95,_RNvYNtNtNtNtNtCseriWsCb5ev6_4koan7machine7execute8dispatch3ctx11DispatchCtxNtNtNtNtBa_4core9kfunction16scheduler_handle15SchedulerHandle16enter_body_blockBc_
FN:95,_RNvYNtNtNtNtCseriWsCb5ev6_4koan7machine7execute9scheduler9SchedulerNtNtNtNtB8_4core9kfunction16scheduler_handle15SchedulerHandle16enter_body_blockBa_
FNDA:0,_RNCNvYNtNtNtNtCscUx3zdyuqfq_4koan7machine7execute9scheduler9SchedulerNtNtNtNtBa_4core9kfunction16scheduler_handle15SchedulerHandle16enter_body_block0Bc_
FNDA:0,_RNCNvYNtNtNtNtCscUx3zdyuqfq_4koan7machine7execute9scheduler9SchedulerNtNtNtNtBa_4core9kfunction16scheduler_handle15SchedulerHandle16enter_body_blocks_0Bc_
FNDA:32,_RNCNvYNtNtNtNtNtCscUx3zdyuqfq_4koan7machine7execute8dispatch3ctx11DispatchCtxNtNtNtNtBc_4core9kfunction16scheduler_handle15SchedulerHandle16enter_body_block0Be_
FNDA:4,_RNCNvYNtNtNtNtNtCscUx3zdyuqfq_4koan7machine7execute8dispatch3ctx11DispatchCtxNtNtNtNtBc_4core9kfunction16scheduler_handle15SchedulerHandle16enter_body_blocks_0Be_
FNDA:30,_RNvYNtNtNtNtNtCscUx3zdyuqfq_4koan7machine7execute8dispatch3ctx11DispatchCtxNtNtNtNtBa_4core9kfunction16scheduler_handle15SchedulerHandle16enter_body_blockBc_
FNDA:3116,_RNvMNtNtNtNtCscUx3zdyuqfq_4koan7machine4core9kfunction16scheduler_handleNtB2_6NodeId5index
FNDA:0,_RNvYNtNtNtNtCscUx3zdyuqfq_4koan7machine7execute9scheduler9SchedulerNtNtNtNtB8_4core9kfunction16scheduler_handle15SchedulerHandle16enter_body_blockBa_
FNDA:0,_RNCNvYNtNtNtNtCseriWsCb5ev6_4koan7machine7execute9scheduler9SchedulerNtNtNtNtBa_4core9kfunction16scheduler_handle15SchedulerHandle16enter_body_block0Bc_
FNDA:0,_RNCNvYNtNtNtNtCseriWsCb5ev6_4koan7machine7execute9scheduler9SchedulerNtNtNtNtBa_4core9kfunction16scheduler_handle15SchedulerHandle16enter_body_blocks_0Bc_
FNDA:191,_RNCNvYNtNtNtNtNtCseriWsCb5ev6_4koan7machine7execute8dispatch3ctx11DispatchCtxNtNtNtNtBc_4core9kfunction16scheduler_handle15SchedulerHandle16enter_body_block0Be_
FNDA:92,_RNCNvYNtNtNtNtNtCseriWsCb5ev6_4koan7machine7execute8dispatch3ctx11DispatchCtxNtNtNtNtBc_4core9kfunction16scheduler_handle15SchedulerHandle16enter_body_blocks_0Be_
FNDA:28912,_RNvMNtNtNtNtCseriWsCb5ev6_4koan7machine4core9kfunction16scheduler_handleNtB2_6NodeId5index
FNDA:144,_RNvYNtNtNtNtNtCseriWsCb5ev6_4koan7machine7execute8dispatch3ctx11DispatchCtxNtNtNtNtBa_4core9kfunction16scheduler_handle15SchedulerHandle16enter_body_blockBc_
FNDA:0,_RNvYNtNtNtNtCseriWsCb5ev6_4koan7machine7execute9scheduler9SchedulerNtNtNtNtB8_4core9kfunction16scheduler_handle15SchedulerHandle16enter_body_blockBa_
FNF:4
FNH:4
DA:20,32028
DA:95,174
DA:96,174
DA:97,174
DA:98,174
DA:99,174
DA:100,174
DA:101,174
DA:102,174
DA:103,174
DA:104,223
DA:106,174
DA:107,47
DA:108,47
DA:109,47
DA:110,96
DA:111,96
DA:112,0
DA:113,96
DA:114,47
DA:116,127
DA:118,174
DA:119,174
BRF:0
BRH:0
LF:25
LH:24
end_of_record
SF:/var/home/jack/Code/koan/src/machine/core/lexical_frame.rs
FN:36,_RNvMNtNtNtCscUx3zdyuqfq_4koan7machine4core13lexical_frameNtB2_12LexicalFrame4push
FN:32,_RNvMNtNtNtCscUx3zdyuqfq_4koan7machine4core13lexical_frameNtB2_12LexicalFrame4root
FN:44,_RNvMNtNtNtCscUx3zdyuqfq_4koan7machine4core13lexical_frameNtB2_12LexicalFrame8detached
FN:51,_RNvMNtNtNtCscUx3zdyuqfq_4koan7machine4core13lexical_frameNtB2_12LexicalFrame9index_for
FN:79,_RNvNtNtNtCscUx3zdyuqfq_4koan7machine4core13lexical_frame19assemble_body_chain
FN:63,_RNvMNtNtNtCseriWsCb5ev6_4koan7machine4core13lexical_frameNtB2_12LexicalFrame4iter
FN:36,_RNvMNtNtNtCseriWsCb5ev6_4koan7machine4core13lexical_frameNtB2_12LexicalFrame4push
FN:32,_RNvMNtNtNtCseriWsCb5ev6_4koan7machine4core13lexical_frameNtB2_12LexicalFrame4root
FN:68,_RNvMNtNtNtCseriWsCb5ev6_4koan7machine4core13lexical_frameNtB2_12LexicalFrame5depth
FN:44,_RNvMNtNtNtCseriWsCb5ev6_4koan7machine4core13lexical_frameNtB2_12LexicalFrame8detached
FN:51,_RNvMNtNtNtCseriWsCb5ev6_4koan7machine4core13lexical_frameNtB2_12LexicalFrame9index_for
FN:79,_RNvNtNtNtCseriWsCb5ev6_4koan7machine4core13lexical_frame19assemble_body_chain
FN:64,_RNCNvMNtNtNtCseriWsCb5ev6_4koan7machine4core13lexical_frameNtB4_12LexicalFrame4iter0Ba_
FNDA:106,_RNvMNtNtNtCscUx3zdyuqfq_4koan7machine4core13lexical_frameNtB2_12LexicalFrame4push
FNDA:0,_RNvMNtNtNtCscUx3zdyuqfq_4koan7machine4core13lexical_frameNtB2_12LexicalFrame4root
FNDA:33,_RNvMNtNtNtCscUx3zdyuqfq_4koan7machine4core13lexical_frameNtB2_12LexicalFrame8detached
FNDA:697,_RNvMNtNtNtCscUx3zdyuqfq_4koan7machine4core13lexical_frameNtB2_12LexicalFrame9index_for
FNDA:7,_RNvNtNtNtCscUx3zdyuqfq_4koan7machine4core13lexical_frame19assemble_body_chain
FNDA:2,_RNvMNtNtNtCseriWsCb5ev6_4koan7machine4core13lexical_frameNtB2_12LexicalFrame4iter
FNDA:677,_RNvMNtNtNtCseriWsCb5ev6_4koan7machine4core13lexical_frameNtB2_12LexicalFrame4push
FNDA:14,_RNvMNtNtNtCseriWsCb5ev6_4koan7machine4core13lexical_frameNtB2_12LexicalFrame4root
FNDA:2,_RNvMNtNtNtCseriWsCb5ev6_4koan7machine4core13lexical_frameNtB2_12LexicalFrame5depth
FNDA:996,_RNvMNtNtNtCseriWsCb5ev6_4koan7machine4core13lexical_frameNtB2_12LexicalFrame8detached
FNDA:6109,_RNvMNtNtNtCseriWsCb5ev6_4koan7machine4core13lexical_frameNtB2_12LexicalFrame9index_for
FNDA:299,_RNvNtNtNtCseriWsCb5ev6_4koan7machine4core13lexical_frame19assemble_body_chain
FNDA:3,_RNCNvMNtNtNtCseriWsCb5ev6_4koan7machine4core13lexical_frameNtB4_12LexicalFrame4iter0Ba_
FNF:8
FNH:8
DA:32,14
DA:33,14
DA:34,14
DA:36,783
DA:37,783
DA:38,783
DA:44,1029
DA:45,1029
DA:46,1029
DA:51,6806
DA:52,6806
DA:53,12682
DA:54,8065
DA:55,2189
DA:56,5876
DA:57,5876
DA:59,4617
DA:60,6806
DA:63,2
DA:64,3
DA:65,2
DA:68,2
DA:69,2
DA:70,2
DA:79,306
DA:80,306
DA:81,306
DA:82,306
DA:83,306
DA:84,306
DA:85,306
DA:86,619
DA:87,313
DA:88,10
DA:89,303
DA:90,313
DA:93,306
DA:94,306
DA:95,306
DA:96,10
DA:97,10
DA:101,306
DA:102,306
BRF:0
BRH:0
LF:44
LH:44
end_of_record
SF:/var/home/jack/Code/koan/src/machine/core/pending.rs
FN:57,_RNvMNtNtNtCscUx3zdyuqfq_4koan7machine4core7pendingNtB2_12PendingQueue10defer_type
FN:41,_RNvMNtNtNtCscUx3zdyuqfq_4koan7machine4core7pendingNtB2_12PendingQueue11defer_value
FN:45,_RNvMNtNtNtCscUx3zdyuqfq_4koan7machine4core7pendingNtB2_12PendingQueue14defer_function
FN:37,_RNvMNtNtNtCscUx3zdyuqfq_4koan7machine4core7pendingNtB2_12PendingQueue3new
FN:77,_RNvMNtNtNtCscUx3zdyuqfq_4koan7machine4core7pendingNtB2_12PendingQueue5drain
FN:138,_RNvXs_NtNtNtCscUx3zdyuqfq_4koan7machine4core7pendingNtB4_12PendingQueueNtNtCs27Vx93FoQ6z_4core7default7Default7default
FN:57,_RNvMNtNtNtCseriWsCb5ev6_4koan7machine4core7pendingNtB2_12PendingQueue10defer_type
FN:41,_RNvMNtNtNtCseriWsCb5ev6_4koan7machine4core7pendingNtB2_12PendingQueue11defer_value
FN:45,_RNvMNtNtNtCseriWsCb5ev6_4koan7machine4core7pendingNtB2_12PendingQueue14defer_function
FN:37,_RNvMNtNtNtCseriWsCb5ev6_4koan7machine4core7pendingNtB2_12PendingQueue3new
FN:77,_RNvMNtNtNtCseriWsCb5ev6_4koan7machine4core7pendingNtB2_12PendingQueue5drain
FN:138,_RNvXs_NtNtNtCseriWsCb5ev6_4koan7machine4core7pendingNtB4_12PendingQueueNtNtCs27Vx93FoQ6z_4core7default7Default7default
FN:163,_RNvNtNtNtNtCseriWsCb5ev6_4koan7machine4core7pending5testss_26default_yields_empty_queue
FN:150,_RNvNtNtNtNtCseriWsCb5ev6_4koan7machine4core7pending5testss_46defer_type_queues_and_drain_replays_into_types
FNDA:0,_RNvMNtNtNtCscUx3zdyuqfq_4koan7machine4core7pendingNtB2_12PendingQueue10defer_type
FNDA:0,_RNvMNtNtNtCscUx3zdyuqfq_4koan7machine4core7pendingNtB2_12PendingQueue11defer_value
FNDA:0,_RNvMNtNtNtCscUx3zdyuqfq_4koan7machine4core7pendingNtB2_12PendingQueue14defer_function
FNDA:79,_RNvMNtNtNtCscUx3zdyuqfq_4koan7machine4core7pendingNtB2_12PendingQueue3new
FNDA:332,_RNvMNtNtNtCscUx3zdyuqfq_4koan7machine4core7pendingNtB2_12PendingQueue5drain
FNDA:0,_RNvXs_NtNtNtCscUx3zdyuqfq_4koan7machine4core7pendingNtB4_12PendingQueueNtNtCs27Vx93FoQ6z_4core7default7Default7default
FNDA:3,_RNvMNtNtNtCseriWsCb5ev6_4koan7machine4core7pendingNtB2_12PendingQueue10defer_type
FNDA:3,_RNvMNtNtNtCseriWsCb5ev6_4koan7machine4core7pendingNtB2_12PendingQueue11defer_value
FNDA:3,_RNvMNtNtNtCseriWsCb5ev6_4koan7machine4core7pendingNtB2_12PendingQueue14defer_function
FNDA:1162,_RNvMNtNtNtCseriWsCb5ev6_4koan7machine4core7pendingNtB2_12PendingQueue3new
FNDA:3340,_RNvMNtNtNtCseriWsCb5ev6_4koan7machine4core7pendingNtB2_12PendingQueue5drain
FNDA:1,_RNvXs_NtNtNtCseriWsCb5ev6_4koan7machine4core7pendingNtB4_12PendingQueueNtNtCs27Vx93FoQ6z_4core7default7Default7default
FNDA:1,_RNvNtNtNtNtCseriWsCb5ev6_4koan7machine4core7pending5testss_26default_yields_empty_queue
FNDA:1,_RNvNtNtNtNtCseriWsCb5ev6_4koan7machine4core7pending5testss_46defer_type_queues_and_drain_replays_into_types
FNF:8
FNH:8
DA:37,1241
DA:38,1241
DA:39,1241
DA:41,3
DA:42,3
DA:43,3
DA:45,3
DA:46,3
DA:47,3
DA:48,3
DA:49,3
DA:50,3
DA:51,3
DA:52,3
DA:53,3
DA:54,3
DA:55,3
DA:57,3
DA:58,3
DA:59,3
DA:60,3
DA:61,3
DA:62,3
DA:63,3
DA:64,3
DA:77,3672
DA:78,3672
DA:79,3660
DA:80,12
DA:81,12
DA:82,12
DA:83,12
DA:84,12
DA:85,4
DA:86,4
DA:87,2
DA:88,1
DA:89,1
DA:90,1
DA:92,1
DA:93,1
DA:94,1
DA:100,4
DA:101,4
DA:102,2
DA:103,1
DA:104,1
DA:105,1
DA:106,1
DA:107,1
DA:108,1
DA:109,1
DA:115,4
DA:116,4
DA:117,2
DA:118,1
DA:119,1
DA:120,1
DA:121,1
DA:122,1
DA:123,1
DA:131,9
DA:132,3
DA:133,6
DA:134,3669
DA:138,1
DA:139,1
DA:140,1
DA:150,1
DA:151,1
DA:152,1
DA:153,1
DA:154,1
DA:155,1
DA:156,1
DA:157,1
DA:158,1
DA:159,1
DA:160,1
DA:163,1
DA:164,1
DA:165,1
DA:166,1
DA:167,1
DA:168,1
DA:169,1
BRF:0
BRH:0
LF:86
LH:86
end_of_record
SF:/var/home/jack/Code/koan/src/machine/core/scope.rs
FN:29,_RNvNtNtNtCscUx3zdyuqfq_4koan7machine4core5scope7visible
FN:456,_RNCNCNvMs0_NtNtNtCscUx3zdyuqfq_4koan7machine4core5scopeNtB9_5Scope18resolve_with_chain00Bf_
FN:511,_RNCNCNvMs0_NtNtNtCscUx3zdyuqfq_4koan7machine4core5scopeNtB9_5Scope23resolve_type_with_chain00Bf_
FN:244,_RNCNvMs0_NtNtNtCscUx3zdyuqfq_4koan7machine4core5scopeNtB7_5Scope14is_in_sig_body0Bd_
FN:455,_RNCNvMs0_NtNtNtCscUx3zdyuqfq_4koan7machine4core5scopeNtB7_5Scope18resolve_with_chain0Bd_
FN:510,_RNCNvMs0_NtNtNtCscUx3zdyuqfq_4koan7machine4core5scopeNtB7_5Scope23resolve_type_with_chain0Bd_
FN:49,_RNvMNtNtNtCscUx3zdyuqfq_4koan7machine4core5scopeNtB2_7KFuture10deep_clone
FN:258,_RNvMs0_NtNtNtCscUx3zdyuqfq_4koan7machine4core5scopeNtB5_5Scope10bind_value
FN:137,_RNvMs0_NtNtNtCscUx3zdyuqfq_4koan7machine4core5scopeNtB5_5Scope11child_under
FN:497,_RNvMs0_NtNtNtCscUx3zdyuqfq_4koan7machine4core5scopeNtB5_5Scope12resolve_type
FN:226,_RNvMs0_NtNtNtCscUx3zdyuqfq_4koan7machine4core5scopeNtB5_5Scope12write_target
FN:404,_RNvMs0_NtNtNtCscUx3zdyuqfq_4koan7machine4core5scopeNtB5_5Scope13drain_pending
FN:319,_RNvMs0_NtNtNtCscUx3zdyuqfq_4koan7machine4core5scopeNtB5_5Scope13register_type
FN:131,_RNvMs0_NtNtNtCscUx3zdyuqfq_4koan7machine4core5scopeNtB5_5Scope14child_for_call
FN:242,_RNvMs0_NtNtNtCscUx3zdyuqfq_4koan7machine4core5scopeNtB5_5Scope14is_in_sig_body
FN:150,_RNvMs0_NtNtNtCscUx3zdyuqfq_4koan7machine4core5scopeNtB5_5Scope15child_under_sig
FN:527,_RNvMs0_NtNtNtCscUx3zdyuqfq_4koan7machine4core5scopeNtB5_5Scope16lookup_kfunction
FN:181,_RNvMs0_NtNtNtCscUx3zdyuqfq_4koan7machine4core5scopeNtB5_5Scope17child_transparent
FN:423,_RNvMs0_NtNtNtCscUx3zdyuqfq_4koan7machine4core5scopeNtB5_5Scope17lookup_with_chain
FN:296,_RNvMs0_NtNtNtCscUx3zdyuqfq_4koan7machine4core5scopeNtB5_5Scope17register_function
FN:164,_RNvMs0_NtNtNtCscUx3zdyuqfq_4koan7machine4core5scopeNtB5_5Scope18child_under_module
FN:449,_RNvMs0_NtNtNtCscUx3zdyuqfq_4koan7machine4core5scopeNtB5_5Scope18resolve_with_chain
FN:200,_RNvMs0_NtNtNtCscUx3zdyuqfq_4koan7machine4core5scopeNtB5_5Scope18type_expr_memo_get
FN:465,_RNvMs0_NtNtNtCscUx3zdyuqfq_4koan7machine4core5scopeNtB5_5Scope19install_placeholder
FN:347,_RNvMs0_NtNtNtCscUx3zdyuqfq_4koan7machine4core5scopeNtB5_5Scope20register_type_upsert
FN:212,_RNvMs0_NtNtNtCscUx3zdyuqfq_4koan7machine4core5scopeNtB5_5Scope21type_expr_memo_insert
FN:505,_RNvMs0_NtNtNtCscUx3zdyuqfq_4koan7machine4core5scopeNtB5_5Scope23resolve_type_with_chain
FN:483,_RNvMs0_NtNtNtCscUx3zdyuqfq_4koan7machine4core5scopeNtB5_5Scope24install_pending_overload
FN:376,_RNvMs0_NtNtNtCscUx3zdyuqfq_4koan7machine4core5scopeNtB5_5Scope28cycle_close_install_identity
FN:417,_RNvMs0_NtNtNtCscUx3zdyuqfq_4koan7machine4core5scopeNtB5_5Scope6lookup
FN:441,_RNvMs0_NtNtNtCscUx3zdyuqfq_4koan7machine4core5scopeNtB5_5Scope7resolve
FN:193,_RNvMs0_NtNtNtCscUx3zdyuqfq_4koan7machine4core5scopeNtB5_5Scope8bindings
FN:119,_RNvMs0_NtNtNtCscUx3zdyuqfq_4koan7machine4core5scopeNtB5_5Scope8run_root
FN:236,_RNvMs0_NtNtNtCscUx3zdyuqfq_4koan7machine4core5scopeNtB5_5Scope9ancestors
FN:518,_RNvMs0_NtNtNtCscUx3zdyuqfq_4koan7machine4core5scopeNtB5_5Scope9write_out
FN:102,_RNvMs_NtNtNtCscUx3zdyuqfq_4koan7machine4core5scopeNtB4_13ScopeBindings11is_borrowed
FN:95,_RNvMs_NtNtNtCscUx3zdyuqfq_4koan7machine4core5scopeNtB4_13ScopeBindings3get
FN:49,_RNvMNtNtNtCseriWsCb5ev6_4koan7machine4core5scopeNtB2_7KFuture10deep_clone
FN:258,_RNvMs0_NtNtNtCseriWsCb5ev6_4koan7machine4core5scopeNtB5_5Scope10bind_value
FN:137,_RNvMs0_NtNtNtCseriWsCb5ev6_4koan7machine4core5scopeNtB5_5Scope11child_under
FN:497,_RNvMs0_NtNtNtCseriWsCb5ev6_4koan7machine4core5scopeNtB5_5Scope12resolve_type
FN:226,_RNvMs0_NtNtNtCseriWsCb5ev6_4koan7machine4core5scopeNtB5_5Scope12write_target
FN:404,_RNvMs0_NtNtNtCseriWsCb5ev6_4koan7machine4core5scopeNtB5_5Scope13drain_pending
FN:319,_RNvMs0_NtNtNtCseriWsCb5ev6_4koan7machine4core5scopeNtB5_5Scope13register_type
FN:131,_RNvMs0_NtNtNtCseriWsCb5ev6_4koan7machine4core5scopeNtB5_5Scope14child_for_call
FN:242,_RNvMs0_NtNtNtCseriWsCb5ev6_4koan7machine4core5scopeNtB5_5Scope14is_in_sig_body
FN:150,_RNvMs0_NtNtNtCseriWsCb5ev6_4koan7machine4core5scopeNtB5_5Scope15child_under_sig
FN:181,_RNvMs0_NtNtNtCseriWsCb5ev6_4koan7machine4core5scopeNtB5_5Scope17child_transparent
FN:423,_RNvMs0_NtNtNtCseriWsCb5ev6_4koan7machine4core5scopeNtB5_5Scope17lookup_with_chain
FN:296,_RNvMs0_NtNtNtCseriWsCb5ev6_4koan7machine4core5scopeNtB5_5Scope17register_function
FN:164,_RNvMs0_NtNtNtCseriWsCb5ev6_4koan7machine4core5scopeNtB5_5Scope18child_under_module
FN:449,_RNvMs0_NtNtNtCseriWsCb5ev6_4koan7machine4core5scopeNtB5_5Scope18resolve_with_chain
FN:200,_RNvMs0_NtNtNtCseriWsCb5ev6_4koan7machine4core5scopeNtB5_5Scope18type_expr_memo_get
FN:465,_RNvMs0_NtNtNtCseriWsCb5ev6_4koan7machine4core5scopeNtB5_5Scope19install_placeholder
FN:347,_RNvMs0_NtNtNtCseriWsCb5ev6_4koan7machine4core5scopeNtB5_5Scope20register_type_upsert
FN:212,_RNvMs0_NtNtNtCseriWsCb5ev6_4koan7machine4core5scopeNtB5_5Scope21type_expr_memo_insert
FN:505,_RNvMs0_NtNtNtCseriWsCb5ev6_4koan7machine4core5scopeNtB5_5Scope23resolve_type_with_chain
FN:483,_RNvMs0_NtNtNtCseriWsCb5ev6_4koan7machine4core5scopeNtB5_5Scope24install_pending_overload
FN:376,_RNvMs0_NtNtNtCseriWsCb5ev6_4koan7machine4core5scopeNtB5_5Scope28cycle_close_install_identity
FN:417,_RNvMs0_NtNtNtCseriWsCb5ev6_4koan7machine4core5scopeNtB5_5Scope6lookup
FN:441,_RNvMs0_NtNtNtCseriWsCb5ev6_4koan7machine4core5scopeNtB5_5Scope7resolve
FN:193,_RNvMs0_NtNtNtCseriWsCb5ev6_4koan7machine4core5scopeNtB5_5Scope8bindings
FN:119,_RNvMs0_NtNtNtCseriWsCb5ev6_4koan7machine4core5scopeNtB5_5Scope8run_root
FN:236,_RNvMs0_NtNtNtCseriWsCb5ev6_4koan7machine4core5scopeNtB5_5Scope9ancestors
FN:518,_RNvMs0_NtNtNtCseriWsCb5ev6_4koan7machine4core5scopeNtB5_5Scope9write_out
FN:102,_RNvMs_NtNtNtCseriWsCb5ev6_4koan7machine4core5scopeNtB4_13ScopeBindings11is_borrowed
FN:95,_RNvMs_NtNtNtCseriWsCb5ev6_4koan7machine4core5scopeNtB4_13ScopeBindings3get
FN:527,_RNvMs0_NtNtNtCseriWsCb5ev6_4koan7machine4core5scopeNtB5_5Scope16lookup_kfunction
FN:29,_RNvNtNtNtCseriWsCb5ev6_4koan7machine4core5scope7visible
FN:456,_RNCNCNvMs0_NtNtNtCseriWsCb5ev6_4koan7machine4core5scopeNtB9_5Scope18resolve_with_chain00Bf_
FN:511,_RNCNCNvMs0_NtNtNtCseriWsCb5ev6_4koan7machine4core5scopeNtB9_5Scope23resolve_type_with_chain00Bf_
FN:244,_RNCNvMs0_NtNtNtCseriWsCb5ev6_4koan7machine4core5scopeNtB7_5Scope14is_in_sig_body0Bd_
FN:455,_RNCNvMs0_NtNtNtCseriWsCb5ev6_4koan7machine4core5scopeNtB7_5Scope18resolve_with_chain0Bd_
FN:510,_RNCNvMs0_NtNtNtCseriWsCb5ev6_4koan7machine4core5scopeNtB7_5Scope23resolve_type_with_chain0Bd_
FNDA:0,_RNvNtNtNtCscUx3zdyuqfq_4koan7machine4core5scope7visible
FNDA:302,_RNCNCNvMs0_NtNtNtCscUx3zdyuqfq_4koan7machine4core5scopeNtB9_5Scope18resolve_with_chain00Bf_
FNDA:126,_RNCNCNvMs0_NtNtNtCscUx3zdyuqfq_4koan7machine4core5scopeNtB9_5Scope23resolve_type_with_chain00Bf_
FNDA:46,_RNCNvMs0_NtNtNtCscUx3zdyuqfq_4koan7machine4core5scopeNtB7_5Scope14is_in_sig_body0Bd_
FNDA:325,_RNCNvMs0_NtNtNtCscUx3zdyuqfq_4koan7machine4core5scopeNtB7_5Scope18resolve_with_chain0Bd_
FNDA:190,_RNCNvMs0_NtNtNtCscUx3zdyuqfq_4koan7machine4core5scopeNtB7_5Scope23resolve_type_with_chain0Bd_
FNDA:0,_RNvMNtNtNtCscUx3zdyuqfq_4koan7machine4core5scopeNtB2_7KFuture10deep_clone
FNDA:50,_RNvMs0_NtNtNtCscUx3zdyuqfq_4koan7machine4core5scopeNtB5_5Scope10bind_value
FNDA:7,_RNvMs0_NtNtNtCscUx3zdyuqfq_4koan7machine4core5scopeNtB5_5Scope11child_under
FNDA:59,_RNvMs0_NtNtNtCscUx3zdyuqfq_4koan7machine4core5scopeNtB5_5Scope12resolve_type
FNDA:1,_RNvMs0_NtNtNtCscUx3zdyuqfq_4koan7machine4core5scopeNtB5_5Scope12write_target
FNDA:333,_RNvMs0_NtNtNtCscUx3zdyuqfq_4koan7machine4core5scopeNtB5_5Scope13drain_pending
FNDA:580,_RNvMs0_NtNtNtCscUx3zdyuqfq_4koan7machine4core5scopeNtB5_5Scope13register_type
FNDA:0,_RNvMs0_NtNtNtCscUx3zdyuqfq_4koan7machine4core5scopeNtB5_5Scope14child_for_call
FNDA:46,_RNvMs0_NtNtNtCscUx3zdyuqfq_4koan7machine4core5scopeNtB5_5Scope14is_in_sig_body
FNDA:13,_RNvMs0_NtNtNtCscUx3zdyuqfq_4koan7machine4core5scopeNtB5_5Scope15child_under_sig
FNDA:0,_RNvMs0_NtNtNtCscUx3zdyuqfq_4koan7machine4core5scopeNtB5_5Scope16lookup_kfunction
FNDA:1,_RNvMs0_NtNtNtCscUx3zdyuqfq_4koan7machine4core5scopeNtB5_5Scope17child_transparent
FNDA:30,_RNvMs0_NtNtNtCscUx3zdyuqfq_4koan7machine4core5scopeNtB5_5Scope17lookup_with_chain
FNDA:1534,_RNvMs0_NtNtNtCscUx3zdyuqfq_4koan7machine4core5scopeNtB5_5Scope17register_function
FNDA:18,_RNvMs0_NtNtNtCscUx3zdyuqfq_4koan7machine4core5scopeNtB5_5Scope18child_under_module
FNDA:261,_RNvMs0_NtNtNtCscUx3zdyuqfq_4koan7machine4core5scopeNtB5_5Scope18resolve_with_chain
FNDA:7,_RNvMs0_NtNtNtCscUx3zdyuqfq_4koan7machine4core5scopeNtB5_5Scope18type_expr_memo_get
FNDA:213,_RNvMs0_NtNtNtCscUx3zdyuqfq_4koan7machine4core5scopeNtB5_5Scope19install_placeholder
FNDA:34,_RNvMs0_NtNtNtCscUx3zdyuqfq_4koan7machine4core5scopeNtB5_5Scope20register_type_upsert
FNDA:6,_RNvMs0_NtNtNtCscUx3zdyuqfq_4koan7machine4core5scopeNtB5_5Scope21type_expr_memo_insert
FNDA:152,_RNvMs0_NtNtNtCscUx3zdyuqfq_4koan7machine4core5scopeNtB5_5Scope23resolve_type_with_chain
FNDA:30,_RNvMs0_NtNtNtCscUx3zdyuqfq_4koan7machine4core5scopeNtB5_5Scope24install_pending_overload
FNDA:0,_RNvMs0_NtNtNtCscUx3zdyuqfq_4koan7machine4core5scopeNtB5_5Scope28cycle_close_install_identity
FNDA:10,_RNvMs0_NtNtNtCscUx3zdyuqfq_4koan7machine4core5scopeNtB5_5Scope6lookup
FNDA:12,_RNvMs0_NtNtNtCscUx3zdyuqfq_4koan7machine4core5scopeNtB5_5Scope7resolve
FNDA:1079,_RNvMs0_NtNtNtCscUx3zdyuqfq_4koan7machine4core5scopeNtB5_5Scope8bindings
FNDA:40,_RNvMs0_NtNtNtCscUx3zdyuqfq_4koan7machine4core5scopeNtB5_5Scope8run_root
FNDA:857,_RNvMs0_NtNtNtCscUx3zdyuqfq_4koan7machine4core5scopeNtB5_5Scope9ancestors
FNDA:6,_RNvMs0_NtNtNtCscUx3zdyuqfq_4koan7machine4core5scopeNtB5_5Scope9write_out
FNDA:2787,_RNvMs_NtNtNtCscUx3zdyuqfq_4koan7machine4core5scopeNtB4_13ScopeBindings11is_borrowed
FNDA:3865,_RNvMs_NtNtNtCscUx3zdyuqfq_4koan7machine4core5scopeNtB4_13ScopeBindings3get
FNDA:15,_RNvMNtNtNtCseriWsCb5ev6_4koan7machine4core5scopeNtB2_7KFuture10deep_clone
FNDA:560,_RNvMs0_NtNtNtCseriWsCb5ev6_4koan7machine4core5scopeNtB5_5Scope10bind_value
FNDA:451,_RNvMs0_NtNtNtCseriWsCb5ev6_4koan7machine4core5scopeNtB5_5Scope11child_under
FNDA:403,_RNvMs0_NtNtNtCseriWsCb5ev6_4koan7machine4core5scopeNtB5_5Scope12resolve_type
FNDA:26,_RNvMs0_NtNtNtCseriWsCb5ev6_4koan7machine4core5scopeNtB5_5Scope12write_target
FNDA:3353,_RNvMs0_NtNtNtCseriWsCb5ev6_4koan7machine4core5scopeNtB5_5Scope13drain_pending
FNDA:6602,_RNvMs0_NtNtNtCseriWsCb5ev6_4koan7machine4core5scopeNtB5_5Scope13register_type
FNDA:4,_RNvMs0_NtNtNtCseriWsCb5ev6_4koan7machine4core5scopeNtB5_5Scope14child_for_call
FNDA:300,_RNvMs0_NtNtNtCseriWsCb5ev6_4koan7machine4core5scopeNtB5_5Scope14is_in_sig_body
FNDA:69,_RNvMs0_NtNtNtCseriWsCb5ev6_4koan7machine4core5scopeNtB5_5Scope15child_under_sig
FNDA:9,_RNvMs0_NtNtNtCseriWsCb5ev6_4koan7machine4core5scopeNtB5_5Scope17child_transparent
FNDA:141,_RNvMs0_NtNtNtCseriWsCb5ev6_4koan7machine4core5scopeNtB5_5Scope17lookup_with_chain
FNDA:17729,_RNvMs0_NtNtNtCseriWsCb5ev6_4koan7machine4core5scopeNtB5_5Scope17register_function
FNDA:107,_RNvMs0_NtNtNtCseriWsCb5ev6_4koan7machine4core5scopeNtB5_5Scope18child_under_module
FNDA:1819,_RNvMs0_NtNtNtCseriWsCb5ev6_4koan7machine4core5scopeNtB5_5Scope18resolve_with_chain
FNDA:20,_RNvMs0_NtNtNtCseriWsCb5ev6_4koan7machine4core5scopeNtB5_5Scope18type_expr_memo_get
FNDA:1318,_RNvMs0_NtNtNtCseriWsCb5ev6_4koan7machine4core5scopeNtB5_5Scope19install_placeholder
FNDA:214,_RNvMs0_NtNtNtCseriWsCb5ev6_4koan7machine4core5scopeNtB5_5Scope20register_type_upsert
FNDA:14,_RNvMs0_NtNtNtCseriWsCb5ev6_4koan7machine4core5scopeNtB5_5Scope21type_expr_memo_insert
FNDA:1153,_RNvMs0_NtNtNtCseriWsCb5ev6_4koan7machine4core5scopeNtB5_5Scope23resolve_type_with_chain
FNDA:383,_RNvMs0_NtNtNtCseriWsCb5ev6_4koan7machine4core5scopeNtB5_5Scope24install_pending_overload
FNDA:11,_RNvMs0_NtNtNtCseriWsCb5ev6_4koan7machine4core5scopeNtB5_5Scope28cycle_close_install_identity
FNDA:31,_RNvMs0_NtNtNtCseriWsCb5ev6_4koan7machine4core5scopeNtB5_5Scope6lookup
FNDA:37,_RNvMs0_NtNtNtCseriWsCb5ev6_4koan7machine4core5scopeNtB5_5Scope7resolve
FNDA:9296,_RNvMs0_NtNtNtCseriWsCb5ev6_4koan7machine4core5scopeNtB5_5Scope8bindings
FNDA:524,_RNvMs0_NtNtNtCseriWsCb5ev6_4koan7machine4core5scopeNtB5_5Scope8run_root
FNDA:7216,_RNvMs0_NtNtNtCseriWsCb5ev6_4koan7machine4core5scopeNtB5_5Scope9ancestors
FNDA:126,_RNvMs0_NtNtNtCseriWsCb5ev6_4koan7machine4core5scopeNtB5_5Scope9write_out
FNDA:30204,_RNvMs_NtNtNtCseriWsCb5ev6_4koan7machine4core5scopeNtB4_13ScopeBindings11is_borrowed
FNDA:39475,_RNvMs_NtNtNtCseriWsCb5ev6_4koan7machine4core5scopeNtB4_13ScopeBindings3get
FNDA:0,_RNvMs0_NtNtNtCseriWsCb5ev6_4koan7machine4core5scopeNtB5_5Scope16lookup_kfunction
FNDA:0,_RNvNtNtNtCseriWsCb5ev6_4koan7machine4core5scope7visible
FNDA:2217,_RNCNCNvMs0_NtNtNtCseriWsCb5ev6_4koan7machine4core5scopeNtB9_5Scope18resolve_with_chain00Bf_
FNDA:1016,_RNCNCNvMs0_NtNtNtCseriWsCb5ev6_4koan7machine4core5scopeNtB9_5Scope23resolve_type_with_chain00Bf_
FNDA:310,_RNCNvMs0_NtNtNtCseriWsCb5ev6_4koan7machine4core5scopeNtB7_5Scope14is_in_sig_body0Bd_
FNDA:2298,_RNCNvMs0_NtNtNtCseriWsCb5ev6_4koan7machine4core5scopeNtB7_5Scope18resolve_with_chain0Bd_
FNDA:1440,_RNCNvMs0_NtNtNtCseriWsCb5ev6_4koan7machine4core5scopeNtB7_5Scope23resolve_type_with_chain0Bd_
FNF:37
FNH:35
DA:29,0
DA:30,0
DA:31,0
DA:33,0
DA:34,0
DA:35,0
DA:37,0
DA:49,15
DA:50,15
DA:51,15
DA:52,15
DA:53,15
DA:54,15
DA:55,15
DA:95,43340
DA:96,43340
DA:97,43310
DA:98,30
DA:100,43340
DA:102,32991
DA:103,32991
DA:104,32991
DA:119,564
DA:120,564
DA:121,564
DA:122,564
DA:123,564
DA:124,564
DA:125,564
DA:126,564
DA:127,564
DA:128,564
DA:129,564
DA:131,4
DA:132,4
DA:133,4
DA:137,458
DA:138,458
DA:139,458
DA:140,458
DA:141,458
DA:142,458
DA:143,458
DA:144,458
DA:145,458
DA:146,458
DA:147,458
DA:150,82
DA:151,82
DA:152,82
DA:153,82
DA:154,82
DA:155,82
DA:156,82
DA:157,82
DA:158,82
DA:159,82
DA:160,82
DA:164,125
DA:165,125
DA:166,125
DA:167,125
DA:168,125
DA:169,125
DA:170,125
DA:171,125
DA:172,125
DA:173,125
DA:174,125
DA:181,10
DA:182,10
DA:183,10
DA:184,10
DA:185,10
DA:186,10
DA:187,10
DA:188,10
DA:189,10
DA:190,10
DA:191,10
DA:193,10375
DA:194,10375
DA:195,10375
DA:200,27
DA:201,27
DA:202,27
DA:203,27
DA:204,27
DA:205,0
DA:206,27
DA:207,27
DA:208,27
DA:212,20
DA:213,20
DA:214,20
DA:215,20
DA:216,20
DA:217,20
DA:218,0
DA:219,20
DA:220,20
DA:221,20
DA:226,27
DA:227,27
DA:228,27
DA:229,27
DA:230,27
DA:231,27
DA:236,8073
DA:237,8073
DA:238,8073
DA:242,346
DA:243,346
DA:244,356
DA:245,76
DA:246,95
DA:247,185
DA:248,356
DA:249,346
DA:250,346
DA:258,610
DA:259,610
DA:260,610
DA:261,610
DA:262,610
DA:263,610
DA:264,610
DA:270,1
DA:271,2
DA:274,1
DA:275,1
DA:276,1
DA:277,1
DA:278,1
DA:279,1
DA:280,608
DA:281,608
DA:282,603
DA:284,3
DA:285,3
DA:288,610
DA:296,19263
DA:297,19263
DA:298,19263
DA:299,19263
DA:300,19263
DA:301,19263
DA:302,19263
DA:303,19263
DA:304,2
DA:305,19261
DA:306,19261
DA:307,19256
DA:309,3
DA:310,3
DA:313,19263
DA:319,7182
DA:320,7182
DA:321,7182
DA:322,7182
DA:323,7182
DA:324,7182
DA:325,7182
DA:326,0
DA:327,0
DA:328,7182
DA:329,7182
DA:330,7182
DA:331,7180
DA:332,2
DA:333,0
DA:335,7182
DA:347,248
DA:348,248
DA:349,248
DA:350,248
DA:351,248
DA:352,248
DA:353,248
DA:354,0
DA:355,248
DA:356,248
DA:357,248
DA:358,247
DA:359,0
DA:364,248
DA:376,11
DA:377,11
DA:378,11
DA:379,11
DA:380,11
DA:381,11
DA:382,11
DA:383,0
DA:384,0
DA:385,11
DA:386,11
DA:387,11
DA:388,11
DA:389,0
DA:393,0
DA:398,11
DA:404,3686
DA:407,3686
DA:408,16
DA:409,16
DA:410,3670
DA:411,3670
DA:412,3686
DA:417,41
DA:418,41
DA:419,41
DA:423,171
DA:424,171
DA:425,171
DA:426,171
DA:427,171
DA:428,171
DA:429,34
DA:430,137
DA:432,171
DA:441,49
DA:442,49
DA:443,49
DA:449,2080
DA:450,2080
DA:451,2080
DA:452,2080
DA:453,2080
DA:454,2080
DA:455,2623
DA:456,2623
DA:457,2623
DA:458,2623
DA:459,2080
DA:460,2080
DA:465,1531
DA:466,1531
DA:467,1531
DA:468,1531
DA:469,1531
DA:470,1531
DA:471,1531
DA:472,4
DA:473,1527
DA:474,1527
DA:475,1531
DA:483,413
DA:484,413
DA:485,413
DA:486,413
DA:487,413
DA:488,413
DA:489,413
DA:490,4
DA:491,409
DA:492,409
DA:493,413
DA:497,462
DA:498,462
DA:499,462
DA:505,1305
DA:506,1305
DA:507,1305
DA:508,1305
DA:509,1305
DA:510,1630
DA:511,1630
DA:512,1630
DA:513,1630
DA:514,1305
DA:518,132
DA:519,260
DA:520,260
DA:521,132
DA:522,132
DA:523,128
DA:525,132
DA:527,0
DA:528,0
DA:529,0
DA:530,0
DA:532,0
BRF:0
BRH:0
LF:288
LH:265
end_of_record
SF:/var/home/jack/Code/koan/src/machine/core/scope_id.rs
FN:52,_RNvMNtNtNtCscUx3zdyuqfq_4koan7machine4core8scope_idNtB2_7ScopeId3idx
FN:40,_RNvMNtNtNtCscUx3zdyuqfq_4koan7machine4core8scope_idNtB2_7ScopeId4next
FN:51,_RNvMNtNtNtCscUx3zdyuqfq_4koan7machine4core8scope_idNtB2_7ScopeId7session
FN:47,_RNvMNtNtNtCscUx3zdyuqfq_4koan7machine4core8scope_idNtB2_7ScopeId8from_raw
FN:69,_RNvNtNtNtCscUx3zdyuqfq_4koan7machine4core8scope_id10session_id
FN:81,_RNvNtNtNtCscUx3zdyuqfq_4koan7machine4core8scope_id8next_idx
FN:62,_RNvXs0_NtNtNtCscUx3zdyuqfq_4koan7machine4core8scope_idNtB5_7ScopeIdNtNtCs27Vx93FoQ6z_4core3fmt7Display3fmt
FN:56,_RNvXs_NtNtNtCscUx3zdyuqfq_4koan7machine4core8scope_idNtB4_7ScopeIdNtNtCs27Vx93FoQ6z_4core3fmt5Debug3fmt
FN:71,_RNCNvNtNtNtCscUx3zdyuqfq_4koan7machine4core8scope_id10session_id0B9_
FN:71,_RNCNvNtNtNtCseriWsCb5ev6_4koan7machine4core8scope_id10session_id0B9_
FN:62,_RNvXs0_NtNtNtCseriWsCb5ev6_4koan7machine4core8scope_idNtB5_7ScopeIdNtNtCs27Vx93FoQ6z_4core3fmt7Display3fmt
FN:52,_RNvMNtNtNtCseriWsCb5ev6_4koan7machine4core8scope_idNtB2_7ScopeId3idx
FN:40,_RNvMNtNtNtCseriWsCb5ev6_4koan7machine4core8scope_idNtB2_7ScopeId4next
FN:51,_RNvMNtNtNtCseriWsCb5ev6_4koan7machine4core8scope_idNtB2_7ScopeId7session
FN:47,_RNvMNtNtNtCseriWsCb5ev6_4koan7machine4core8scope_idNtB2_7ScopeId8from_raw
FN:69,_RNvNtNtNtCseriWsCb5ev6_4koan7machine4core8scope_id10session_id
FN:81,_RNvNtNtNtCseriWsCb5ev6_4koan7machine4core8scope_id8next_idx
FN:56,_RNvXs_NtNtNtCseriWsCb5ev6_4koan7machine4core8scope_idNtB4_7ScopeIdNtNtCs27Vx93FoQ6z_4core3fmt5Debug3fmt
FN:90,_RNvNtNtNtNtCseriWsCb5ev6_4koan7machine4core8scope_id5testss_21next_ids_are_distinct
FN:99,_RNvNtNtNtNtCseriWsCb5ev6_4koan7machine4core8scope_id5testss_35sentinel_cannot_collide_with_minted
FN:107,_RNvNtNtNtNtCseriWsCb5ev6_4koan7machine4core8scope_id5testss_47from_raw_with_zero_session_disjoint_from_minted
FNDA:0,_RNvMNtNtNtCscUx3zdyuqfq_4koan7machine4core8scope_idNtB2_7ScopeId3idx
FNDA:79,_RNvMNtNtNtCscUx3zdyuqfq_4koan7machine4core8scope_idNtB2_7ScopeId4next
FNDA:0,_RNvMNtNtNtCscUx3zdyuqfq_4koan7machine4core8scope_idNtB2_7ScopeId7session
FNDA:0,_RNvMNtNtNtCscUx3zdyuqfq_4koan7machine4core8scope_idNtB2_7ScopeId8from_raw
FNDA:79,_RNvNtNtNtCscUx3zdyuqfq_4koan7machine4core8scope_id10session_id
FNDA:79,_RNvNtNtNtCscUx3zdyuqfq_4koan7machine4core8scope_id8next_idx
FNDA:0,_RNvXs0_NtNtNtCscUx3zdyuqfq_4koan7machine4core8scope_idNtB5_7ScopeIdNtNtCs27Vx93FoQ6z_4core3fmt7Display3fmt
FNDA:0,_RNvXs_NtNtNtCscUx3zdyuqfq_4koan7machine4core8scope_idNtB4_7ScopeIdNtNtCs27Vx93FoQ6z_4core3fmt5Debug3fmt
FNDA:6,_RNCNvNtNtNtCscUx3zdyuqfq_4koan7machine4core8scope_id10session_id0B9_
FNDA:1,_RNCNvNtNtNtCseriWsCb5ev6_4koan7machine4core8scope_id10session_id0B9_
FNDA:0,_RNvXs0_NtNtNtCseriWsCb5ev6_4koan7machine4core8scope_idNtB5_7ScopeIdNtNtCs27Vx93FoQ6z_4core3fmt7Display3fmt
FNDA:3,_RNvMNtNtNtCseriWsCb5ev6_4koan7machine4core8scope_idNtB2_7ScopeId3idx
FNDA:1185,_RNvMNtNtNtCseriWsCb5ev6_4koan7machine4core8scope_idNtB2_7ScopeId4next
FNDA:3,_RNvMNtNtNtCseriWsCb5ev6_4koan7machine4core8scope_idNtB2_7ScopeId7session
FNDA:29,_RNvMNtNtNtCseriWsCb5ev6_4koan7machine4core8scope_idNtB2_7ScopeId8from_raw
FNDA:1185,_RNvNtNtNtCseriWsCb5ev6_4koan7machine4core8scope_id10session_id
FNDA:1185,_RNvNtNtNtCseriWsCb5ev6_4koan7machine4core8scope_id8next_idx
FNDA:0,_RNvXs_NtNtNtCseriWsCb5ev6_4koan7machine4core8scope_idNtB4_7ScopeIdNtNtCs27Vx93FoQ6z_4core3fmt5Debug3fmt
FNDA:1,_RNvNtNtNtNtCseriWsCb5ev6_4koan7machine4core8scope_id5testss_21next_ids_are_distinct
FNDA:1,_RNvNtNtNtNtCseriWsCb5ev6_4koan7machine4core8scope_id5testss_35sentinel_cannot_collide_with_minted
FNDA:1,_RNvNtNtNtNtCseriWsCb5ev6_4koan7machine4core8scope_id5testss_47from_raw_with_zero_session_disjoint_from_minted
FNF:12
FNH:10
DA:40,1264
DA:41,1264
DA:42,1264
DA:47,29
DA:48,29
DA:49,29
DA:51,3
DA:52,3
DA:56,0
DA:57,0
DA:58,0
DA:62,0
DA:63,0
DA:64,0
DA:69,1264
DA:71,1264
DA:72,7
DA:73,7
DA:74,7
DA:75,7
DA:76,7
DA:77,1264
DA:81,1264
DA:82,1264
DA:83,1264
DA:90,1
DA:91,1
DA:92,1
DA:93,1
DA:94,1
DA:95,1
DA:96,1
DA:99,1
DA:100,1
DA:101,1
DA:102,1
DA:103,1
DA:104,1
DA:107,1
DA:108,1
DA:109,1
DA:110,1
DA:111,1
BRF:0
BRH:0
LF:44
LH:38
end_of_record
SF:/var/home/jack/Code/koan/src/machine/core/source.rs
FN:38,_RINvMNtNtNtCscUx3zdyuqfq_4koan7machine4core6sourceNtB3_10SourceFile3newReEB9_
FN:81,_RINvNtNtNtCscUx3zdyuqfq_4koan7machine4core6source4withINtNtCs27Vx93FoQ6z_4core6option6OptionTINtNtCsgW8esjfipvk_5alloc2rc2RceEmmEENCNvXs2_NtB4_6kerrorNtB2c_10KErrorKindNtNtBV_3fmt7Display3fmt0EB8_
FN:81,_RINvNtNtNtCscUx3zdyuqfq_4koan7machine4core6source4withNtB2_9SourceLocNCNCNvNtB4_6kerror18location_from_expr00EB8_
FN:81,_RINvNtNtNtCscUx3zdyuqfq_4koan7machine4core6source4withTINtNtCs27Vx93FoQ6z_4core6option6OptionNtNtCsgW8esjfipvk_5alloc6string6StringEIBS_mEB26_ENCNvMs0_NtB4_6kerrorNtB2p_10KErrorKind16to_struct_fields0EB8_
FN:81,_RINvNtNtNtCscUx3zdyuqfq_4koan7machine4core6source4withTINtNtCsgW8esjfipvk_5alloc3vec3VechEINtNtNtNtCs75vJTIYSa2J_3std11collections4hash3map7HashMapjNtNtBW_6string6StringEENCNvNtNtB8_5parse15expression_tree17parse_with_source0EB8_
FN:82,_RNCINvNtNtNtCscUx3zdyuqfq_4koan7machine4core6source4withINtNtCs27Vx93FoQ6z_4core6option6OptionTINtNtCsgW8esjfipvk_5alloc2rc2RceEmmEENCNvXs2_NtB6_6kerrorNtB2e_10KErrorKindNtNtBX_3fmt7Display3fmt0E0Ba_
FN:82,_RNCINvNtNtNtCscUx3zdyuqfq_4koan7machine4core6source4withNtB4_9SourceLocNCNCNvNtB6_6kerror18location_from_expr00E0Ba_
FN:82,_RNCINvNtNtNtCscUx3zdyuqfq_4koan7machine4core6source4withTINtNtCs27Vx93FoQ6z_4core6option6OptionNtNtCsgW8esjfipvk_5alloc6string6StringEIBU_mEB28_ENCNvMs0_NtB6_6kerrorNtB2r_10KErrorKind16to_struct_fields0E0Ba_
FN:82,_RNCINvNtNtNtCscUx3zdyuqfq_4koan7machine4core6source4withTINtNtCsgW8esjfipvk_5alloc3vec3VechEINtNtNtNtCs75vJTIYSa2J_3std11collections4hash3map7HashMapjNtNtBY_6string6StringEENCNvNtNtBa_5parse15expression_tree17parse_with_source0E0Ba_
FN:101,_RNCNvNtNtNtCscUx3zdyuqfq_4koan7machine4core6source11set_current0B9_
FN:70,_RNCNvNtNtNtCscUx3zdyuqfq_4koan7machine4core6source8register0B9_
FN:137,_RNvMs1_NtNtNtCscUx3zdyuqfq_4koan7machine4core6sourceINtB5_7SpannedNtNtNtB9_5model3ast14ExpressionPartE2atBb_
FN:133,_RNvMs1_NtNtNtCscUx3zdyuqfq_4koan7machine4core6sourceINtB5_7SpannedNtNtNtB9_5model3ast14ExpressionPartE4bareBb_
FN:50,_RNvMNtNtNtCscUx3zdyuqfq_4koan7machine4core6sourceNtB2_10SourceFile7resolve
FN:113,_RNvMs_NtNtNtCscUx3zdyuqfq_4koan7machine4core6sourceNtB4_16CurrentFileGuard4push
FN:100,_RNvNtNtNtCscUx3zdyuqfq_4koan7machine4core6source11set_current
FN:94,_RNvNtNtNtCscUx3zdyuqfq_4koan7machine4core6source7current
FN:69,_RNvNtNtNtCscUx3zdyuqfq_4koan7machine4core6source8register
FN:143,_RNvXININtNtNtCscUx3zdyuqfq_4koan7machine4core6sources2_0pEINtB5_7SpannedpEINtNtCs27Vx93FoQ6z_4core7convert4FrompE4fromBb_
FN:119,_RNvXs0_NtNtNtCscUx3zdyuqfq_4koan7machine4core6sourceNtB5_16CurrentFileGuardNtNtNtCs27Vx93FoQ6z_4core3ops4drop4Drop4drop
FN:38,_RINvMNtNtNtCseriWsCb5ev6_4koan7machine4core6sourceNtB3_10SourceFile3newReEB9_
FN:81,_RINvNtNtNtCseriWsCb5ev6_4koan7machine4core6source4withINtNtCs27Vx93FoQ6z_4core6option6OptionTINtNtCsgW8esjfipvk_5alloc2rc2RceEmmEENCNvXs2_NtB4_6kerrorNtB2c_10KErrorKindNtNtBV_3fmt7Display3fmt0EB8_
FN:81,_RINvNtNtNtCseriWsCb5ev6_4koan7machine4core6source4withINtNtCsgW8esjfipvk_5alloc2rc2RceENCNvNtB2_5testss_28register_and_with_round_trip0EB8_
FN:81,_RINvNtNtNtCseriWsCb5ev6_4koan7machine4core6source4withNtB2_9SourceLocNCNCNvNtB4_6kerror18location_from_expr00EB8_
FN:81,_RINvNtNtNtCseriWsCb5ev6_4koan7machine4core6source4withTINtNtCs27Vx93FoQ6z_4core6option6OptionNtNtCsgW8esjfipvk_5alloc6string6StringEIBS_mEB26_ENCNvMs0_NtB4_6kerrorNtB2p_10KErrorKind16to_struct_fields0EB8_
FN:81,_RINvNtNtNtCseriWsCb5ev6_4koan7machine4core6source4withTINtNtCsgW8esjfipvk_5alloc3vec3VechEINtNtNtNtCs75vJTIYSa2J_3std11collections4hash3map7HashMapjNtNtBW_6string6StringEENCNvNtNtB8_5parse15expression_tree17parse_with_source0EB8_
FN:81,_RINvNtNtNtCseriWsCb5ev6_4koan7machine4core6source4withTmmENCNvNtNtNtNtB8_5parse15expression_tree5tests5spanss_63parse_with_path_stamps_file_on_expression_and_resolves_line_col0EB8_
FN:82,_RNCINvNtNtNtCseriWsCb5ev6_4koan7machine4core6source4withINtNtCs27Vx93FoQ6z_4core6option6OptionTINtNtCsgW8esjfipvk_5alloc2rc2RceEmmEENCNvXs2_NtB6_6kerrorNtB2e_10KErrorKindNtNtBX_3fmt7Display3fmt0E0Ba_
FN:82,_RNCINvNtNtNtCseriWsCb5ev6_4koan7machine4core6source4withINtNtCsgW8esjfipvk_5alloc2rc2RceENCNvNtB4_5testss_28register_and_with_round_trip0E0Ba_
FN:82,_RNCINvNtNtNtCseriWsCb5ev6_4koan7machine4core6source4withNtB4_9SourceLocNCNCNvNtB6_6kerror18location_from_expr00E0Ba_
FN:82,_RNCINvNtNtNtCseriWsCb5ev6_4koan7machine4core6source4withTINtNtCs27Vx93FoQ6z_4core6option6OptionNtNtCsgW8esjfipvk_5alloc6string6StringEIBU_mEB28_ENCNvMs0_NtB6_6kerrorNtB2r_10KErrorKind16to_struct_fields0E0Ba_
FN:82,_RNCINvNtNtNtCseriWsCb5ev6_4koan7machine4core6source4withTINtNtCsgW8esjfipvk_5alloc3vec3VechEINtNtNtNtCs75vJTIYSa2J_3std11collections4hash3map7HashMapjNtNtBY_6string6StringEENCNvNtNtBa_5parse15expression_tree17parse_with_source0E0Ba_
FN:82,_RNCINvNtNtNtCseriWsCb5ev6_4koan7machine4core6source4withTmmENCNvNtNtNtNtBa_5parse15expression_tree5tests5spanss_63parse_with_path_stamps_file_on_expression_and_resolves_line_col0E0Ba_
FN:101,_RNCNvNtNtNtCseriWsCb5ev6_4koan7machine4core6source11set_current0B9_
FN:70,_RNCNvNtNtNtCseriWsCb5ev6_4koan7machine4core6source8register0B9_
FN:137,_RNvMs1_NtNtNtCseriWsCb5ev6_4koan7machine4core6sourceINtB5_7SpannedNtNtNtB9_5model3ast14ExpressionPartE2atBb_
FN:133,_RNvMs1_NtNtNtCseriWsCb5ev6_4koan7machine4core6sourceINtB5_7SpannedNtNtNtB9_5model3ast14ExpressionPartE4bareBb_
FN:133,_RNvMs1_NtNtNtCseriWsCb5ev6_4koan7machine4core6sourceINtB5_7SpannedmE4bareBb_
FN:143,_RNvXs2_NtNtNtCseriWsCb5ev6_4koan7machine4core6sourceINtB5_7SpannedmEINtNtCs27Vx93FoQ6z_4core7convert4FrommE4fromBb_
FN:119,_RNvXs0_NtNtNtCseriWsCb5ev6_4koan7machine4core6sourceNtB5_16CurrentFileGuardNtNtNtCs27Vx93FoQ6z_4core3ops4drop4Drop4drop
FN:153,_RNvNtNtNtNtCseriWsCb5ev6_4koan7machine4core6source5testss_18resolve_first_line
FN:160,_RNvNtNtNtNtCseriWsCb5ev6_4koan7machine4core6source5testss_18resolve_multi_line
FN:201,_RNvNtNtNtNtCseriWsCb5ev6_4koan7machine4core6source5testss_24spanned_bare_has_no_span
FN:181,_RNvNtNtNtNtCseriWsCb5ev6_4koan7machine4core6source5testss_28register_and_with_round_trip
FN:208,_RNvNtNtNtNtCseriWsCb5ev6_4koan7machine4core6source5testss_33spanned_from_wraps_with_none_span
FN:188,_RNvNtNtNtNtCseriWsCb5ev6_4koan7machine4core6source5testss_36guard_restores_previous_current_file
FN:169,_RNvNtNtNtNtCseriWsCb5ev6_4koan7machine4core6source5testss_48resolve_utf16_columns_count_code_units_not_bytes
FN:183,_RNCNvNtNtNtNtCseriWsCb5ev6_4koan7machine4core6source5testss_28register_and_with_round_trip0Bb_
FN:50,_RNvMNtNtNtCseriWsCb5ev6_4koan7machine4core6sourceNtB2_10SourceFile7resolve
FN:113,_RNvMs_NtNtNtCseriWsCb5ev6_4koan7machine4core6sourceNtB4_16CurrentFileGuard4push
FN:100,_RNvNtNtNtCseriWsCb5ev6_4koan7machine4core6source11set_current
FN:94,_RNvNtNtNtCseriWsCb5ev6_4koan7machine4core6source7current
FN:69,_RNvNtNtNtCseriWsCb5ev6_4koan7machine4core6source8register
FNDA:40,_RINvMNtNtNtCscUx3zdyuqfq_4koan7machine4core6sourceNtB3_10SourceFile3newReEB9_
FNDA:0,_RINvNtNtNtCscUx3zdyuqfq_4koan7machine4core6source4withINtNtCs27Vx93FoQ6z_4core6option6OptionTINtNtCsgW8esjfipvk_5alloc2rc2RceEmmEENCNvXs2_NtB4_6kerrorNtB2c_10KErrorKindNtNtBV_3fmt7Display3fmt0EB8_
FNDA:0,_RINvNtNtNtCscUx3zdyuqfq_4koan7machine4core6source4withNtB2_9SourceLocNCNCNvNtB4_6kerror18location_from_expr00EB8_
FNDA:0,_RINvNtNtNtCscUx3zdyuqfq_4koan7machine4core6source4withTINtNtCs27Vx93FoQ6z_4core6option6OptionNtNtCsgW8esjfipvk_5alloc6string6StringEIBS_mEB26_ENCNvMs0_NtB4_6kerrorNtB2p_10KErrorKind16to_struct_fields0EB8_
FNDA:40,_RINvNtNtNtCscUx3zdyuqfq_4koan7machine4core6source4withTINtNtCsgW8esjfipvk_5alloc3vec3VechEINtNtNtNtCs75vJTIYSa2J_3std11collections4hash3map7HashMapjNtNtBW_6string6StringEENCNvNtNtB8_5parse15expression_tree17parse_with_source0EB8_
FNDA:0,_RNCINvNtNtNtCscUx3zdyuqfq_4koan7machine4core6source4withINtNtCs27Vx93FoQ6z_4core6option6OptionTINtNtCsgW8esjfipvk_5alloc2rc2RceEmmEENCNvXs2_NtB6_6kerrorNtB2e_10KErrorKindNtNtBX_3fmt7Display3fmt0E0Ba_
FNDA:0,_RNCINvNtNtNtCscUx3zdyuqfq_4koan7machine4core6source4withNtB4_9SourceLocNCNCNvNtB6_6kerror18location_from_expr00E0Ba_
FNDA:0,_RNCINvNtNtNtCscUx3zdyuqfq_4koan7machine4core6source4withTINtNtCs27Vx93FoQ6z_4core6option6OptionNtNtCsgW8esjfipvk_5alloc6string6StringEIBU_mEB28_ENCNvMs0_NtB6_6kerrorNtB2r_10KErrorKind16to_struct_fields0E0Ba_
FNDA:40,_RNCINvNtNtNtCscUx3zdyuqfq_4koan7machine4core6source4withTINtNtCsgW8esjfipvk_5alloc3vec3VechEINtNtNtNtCs75vJTIYSa2J_3std11collections4hash3map7HashMapjNtNtBY_6string6StringEENCNvNtNtBa_5parse15expression_tree17parse_with_source0E0Ba_
FNDA:80,_RNCNvNtNtNtCscUx3zdyuqfq_4koan7machine4core6source11set_current0B9_
FNDA:40,_RNCNvNtNtNtCscUx3zdyuqfq_4koan7machine4core6source8register0B9_
FNDA:889,_RNvMs1_NtNtNtCscUx3zdyuqfq_4koan7machine4core6sourceINtB5_7SpannedNtNtNtB9_5model3ast14ExpressionPartE2atBb_
FNDA:57,_RNvMs1_NtNtNtCscUx3zdyuqfq_4koan7machine4core6sourceINtB5_7SpannedNtNtNtB9_5model3ast14ExpressionPartE4bareBb_
FNDA:0,_RNvMNtNtNtCscUx3zdyuqfq_4koan7machine4core6sourceNtB2_10SourceFile7resolve
FNDA:40,_RNvMs_NtNtNtCscUx3zdyuqfq_4koan7machine4core6sourceNtB4_16CurrentFileGuard4push
FNDA:80,_RNvNtNtNtCscUx3zdyuqfq_4koan7machine4core6source11set_current
FNDA:235,_RNvNtNtNtCscUx3zdyuqfq_4koan7machine4core6source7current
FNDA:40,_RNvNtNtNtCscUx3zdyuqfq_4koan7machine4core6source8register
FNDA:0,_RNvXININtNtNtCscUx3zdyuqfq_4koan7machine4core6sources2_0pEINtB5_7SpannedpEINtNtCs27Vx93FoQ6z_4core7convert4FrompE4fromBb_
FNDA:40,_RNvXs0_NtNtNtCscUx3zdyuqfq_4koan7machine4core6sourceNtB5_16CurrentFileGuardNtNtNtCs27Vx93FoQ6z_4core3ops4drop4Drop4drop
FNDA:792,_RINvMNtNtNtCseriWsCb5ev6_4koan7machine4core6sourceNtB3_10SourceFile3newReEB9_
FNDA:2,_RINvNtNtNtCseriWsCb5ev6_4koan7machine4core6source4withINtNtCs27Vx93FoQ6z_4core6option6OptionTINtNtCsgW8esjfipvk_5alloc2rc2RceEmmEENCNvXs2_NtB4_6kerrorNtB2c_10KErrorKindNtNtBV_3fmt7Display3fmt0EB8_
FNDA:1,_RINvNtNtNtCseriWsCb5ev6_4koan7machine4core6source4withINtNtCsgW8esjfipvk_5alloc2rc2RceENCNvNtB2_5testss_28register_and_with_round_trip0EB8_
FNDA:0,_RINvNtNtNtCseriWsCb5ev6_4koan7machine4core6source4withNtB2_9SourceLocNCNCNvNtB4_6kerror18location_from_expr00EB8_
FNDA:0,_RINvNtNtNtCseriWsCb5ev6_4koan7machine4core6source4withTINtNtCs27Vx93FoQ6z_4core6option6OptionNtNtCsgW8esjfipvk_5alloc6string6StringEIBS_mEB26_ENCNvMs0_NtB4_6kerrorNtB2p_10KErrorKind16to_struct_fields0EB8_
FNDA:784,_RINvNtNtNtCseriWsCb5ev6_4koan7machine4core6source4withTINtNtCsgW8esjfipvk_5alloc3vec3VechEINtNtNtNtCs75vJTIYSa2J_3std11collections4hash3map7HashMapjNtNtBW_6string6StringEENCNvNtNtB8_5parse15expression_tree17parse_with_source0EB8_
FNDA:1,_RINvNtNtNtCseriWsCb5ev6_4koan7machine4core6source4withTmmENCNvNtNtNtNtB8_5parse15expression_tree5tests5spanss_63parse_with_path_stamps_file_on_expression_and_resolves_line_col0EB8_
FNDA:2,_RNCINvNtNtNtCseriWsCb5ev6_4koan7machine4core6source4withINtNtCs27Vx93FoQ6z_4core6option6OptionTINtNtCsgW8esjfipvk_5alloc2rc2RceEmmEENCNvXs2_NtB6_6kerrorNtB2e_10KErrorKindNtNtBX_3fmt7Display3fmt0E0Ba_
FNDA:1,_RNCINvNtNtNtCseriWsCb5ev6_4koan7machine4core6source4withINtNtCsgW8esjfipvk_5alloc2rc2RceENCNvNtB4_5testss_28register_and_with_round_trip0E0Ba_
FNDA:0,_RNCINvNtNtNtCseriWsCb5ev6_4koan7machine4core6source4withNtB4_9SourceLocNCNCNvNtB6_6kerror18location_from_expr00E0Ba_
FNDA:0,_RNCINvNtNtNtCseriWsCb5ev6_4koan7machine4core6source4withTINtNtCs27Vx93FoQ6z_4core6option6OptionNtNtCsgW8esjfipvk_5alloc6string6StringEIBU_mEB28_ENCNvMs0_NtB6_6kerrorNtB2r_10KErrorKind16to_struct_fields0E0Ba_
FNDA:784,_RNCINvNtNtNtCseriWsCb5ev6_4koan7machine4core6source4withTINtNtCsgW8esjfipvk_5alloc3vec3VechEINtNtNtNtCs75vJTIYSa2J_3std11collections4hash3map7HashMapjNtNtBY_6string6StringEENCNvNtNtBa_5parse15expression_tree17parse_with_source0E0Ba_
FNDA:1,_RNCINvNtNtNtCseriWsCb5ev6_4koan7machine4core6source4withTmmENCNvNtNtNtNtBa_5parse15expression_tree5tests5spanss_63parse_with_path_stamps_file_on_expression_and_resolves_line_col0E0Ba_
FNDA:1572,_RNCNvNtNtNtCseriWsCb5ev6_4koan7machine4core6source11set_current0B9_
FNDA:788,_RNCNvNtNtNtCseriWsCb5ev6_4koan7machine4core6source8register0B9_
FNDA:9378,_RNvMs1_NtNtNtCseriWsCb5ev6_4koan7machine4core6sourceINtB5_7SpannedNtNtNtB9_5model3ast14ExpressionPartE2atBb_
FNDA:802,_RNvMs1_NtNtNtCseriWsCb5ev6_4koan7machine4core6sourceINtB5_7SpannedNtNtNtB9_5model3ast14ExpressionPartE4bareBb_
FNDA:2,_RNvMs1_NtNtNtCseriWsCb5ev6_4koan7machine4core6sourceINtB5_7SpannedmE4bareBb_
FNDA:1,_RNvXs2_NtNtNtCseriWsCb5ev6_4koan7machine4core6sourceINtB5_7SpannedmEINtNtCs27Vx93FoQ6z_4core7convert4FrommE4fromBb_
FNDA:786,_RNvXs0_NtNtNtCseriWsCb5ev6_4koan7machine4core6sourceNtB5_16CurrentFileGuardNtNtNtCs27Vx93FoQ6z_4core3ops4drop4Drop4drop
FNDA:1,_RNvNtNtNtNtCseriWsCb5ev6_4koan7machine4core6source5testss_18resolve_first_line
FNDA:1,_RNvNtNtNtNtCseriWsCb5ev6_4koan7machine4core6source5testss_18resolve_multi_line
FNDA:1,_RNvNtNtNtNtCseriWsCb5ev6_4koan7machine4core6source5testss_24spanned_bare_has_no_span
FNDA:1,_RNvNtNtNtNtCseriWsCb5ev6_4koan7machine4core6source5testss_28register_and_with_round_trip
FNDA:1,_RNvNtNtNtNtCseriWsCb5ev6_4koan7machine4core6source5testss_33spanned_from_wraps_with_none_span
FNDA:1,_RNvNtNtNtNtCseriWsCb5ev6_4koan7machine4core6source5testss_36guard_restores_previous_current_file
FNDA:1,_RNvNtNtNtNtCseriWsCb5ev6_4koan7machine4core6source5testss_48resolve_utf16_columns_count_code_units_not_bytes
FNDA:1,_RNCNvNtNtNtNtCseriWsCb5ev6_4koan7machine4core6source5testss_28register_and_with_round_trip0Bb_
FNDA:14,_RNvMNtNtNtCseriWsCb5ev6_4koan7machine4core6sourceNtB2_10SourceFile7resolve
FNDA:786,_RNvMs_NtNtNtCseriWsCb5ev6_4koan7machine4core6sourceNtB4_16CurrentFileGuard4push
FNDA:1572,_RNvNtNtNtCseriWsCb5ev6_4koan7machine4core6source11set_current
FNDA:2793,_RNvNtNtNtCseriWsCb5ev6_4koan7machine4core6source7current
FNDA:788,_RNvNtNtNtCseriWsCb5ev6_4koan7machine4core6source8register
FNF:22
FNH:22
DA:38,832
DA:39,832
DA:40,832
DA:41,33213
DA:42,33213
DA:43,379
DA:44,32834
DA:46,832
DA:47,832
DA:50,14
DA:51,14
DA:52,7
DA:53,7
DA:55,14
DA:56,14
DA:57,14
DA:58,14
DA:59,14
DA:69,828
DA:70,828
DA:71,828
DA:72,828
DA:73,828
DA:74,828
DA:75,828
DA:76,828
DA:81,828
DA:82,828
DA:83,828
DA:84,828
DA:85,828
DA:86,828
DA:87,828
DA:88,828
DA:89,828
DA:90,828
DA:91,828
DA:94,3028
DA:95,3028
DA:96,3028
DA:100,1652
DA:101,1652
DA:102,1652
DA:113,826
DA:114,826
DA:115,826
DA:119,826
DA:120,826
DA:121,826
DA:133,861
DA:134,861
DA:135,861
DA:137,10267
DA:138,10267
DA:139,10267
DA:143,1
DA:144,1
DA:145,1
DA:153,1
DA:154,1
DA:155,1
DA:156,1
DA:157,1
DA:160,1
DA:161,1
DA:162,1
DA:163,1
DA:164,1
DA:165,1
DA:166,1
DA:169,1
DA:172,1
DA:173,1
DA:175,1
DA:177,1
DA:178,1
DA:181,1
DA:182,1
DA:183,1
DA:184,1
DA:185,1
DA:188,1
DA:189,1
DA:190,1
DA:191,1
DA:192,1
DA:194,1
DA:195,1
DA:197,1
DA:198,1
DA:201,1
DA:202,1
DA:203,1
DA:204,1
DA:205,1
DA:208,1
DA:209,1
DA:210,1
DA:211,1
BRF:0
BRH:0
LF:103
LH:103
end_of_record
SF:/var/home/jack/Code/koan/src/machine/execute/dispatch.rs
FN:290,_RNvMNtNtNtCscUx3zdyuqfq_4koan7machine7execute8dispatchNtB2_14EagerSubsTrack8fn_value
FN:283,_RNvMNtNtNtCscUx3zdyuqfq_4koan7machine7execute8dispatchNtB2_14EagerSubsTrack9keyworded
FN:319,_RNvMs_NtNtNtCscUx3zdyuqfq_4koan7machine7execute8dispatchNtB4_13DispatchState11initialized
FN:328,_RNvMs_NtNtNtCscUx3zdyuqfq_4koan7machine7execute8dispatchNtB4_13DispatchState19parked_carrier_expr
FN:153,_RNvNtNtNtCscUx3zdyuqfq_4koan7machine7execute8dispatch12bare_name_of
FN:354,_RNvNtNtNtCscUx3zdyuqfq_4koan7machine7execute8dispatch12run_dispatch
FN:204,_RNvNtNtNtCscUx3zdyuqfq_4koan7machine7execute8dispatch14bind_frame_err
FN:108,_RNvNtNtNtCscUx3zdyuqfq_4koan7machine7execute8dispatch17resolve_name_part
FN:194,_RNvNtNtNtCscUx3zdyuqfq_4koan7machine7execute8dispatch19propagate_dep_error
FN:212,_RNvNtNtNtCscUx3zdyuqfq_4koan7machine7execute8dispatch21stage_all_eager_parts
FN:74,_RNvNtNtNtCscUx3zdyuqfq_4koan7machine7execute8dispatch23classify_dispatch_shape
FN:179,_RNvNtNtNtCscUx3zdyuqfq_4koan7machine7execute8dispatch24extract_named_call_inner
FN:332,_RNCNvMs_NtNtNtCscUx3zdyuqfq_4koan7machine7execute8dispatchNtB6_13DispatchState19parked_carrier_expr0Bc_
FN:75,_RNCNvNtNtNtCscUx3zdyuqfq_4koan7machine7execute8dispatch23classify_dispatch_shape0B9_
FN:290,_RNvMNtNtNtCseriWsCb5ev6_4koan7machine7execute8dispatchNtB2_14EagerSubsTrack8fn_value
FN:332,_RNCNvMs_NtNtNtCseriWsCb5ev6_4koan7machine7execute8dispatchNtB6_13DispatchState19parked_carrier_expr0Bc_
FN:75,_RNCNvNtNtNtCseriWsCb5ev6_4koan7machine7execute8dispatch23classify_dispatch_shape0B9_
FN:283,_RNvMNtNtNtCseriWsCb5ev6_4koan7machine7execute8dispatchNtB2_14EagerSubsTrack9keyworded
FN:319,_RNvMs_NtNtNtCseriWsCb5ev6_4koan7machine7execute8dispatchNtB4_13DispatchState11initialized
FN:328,_RNvMs_NtNtNtCseriWsCb5ev6_4koan7machine7execute8dispatchNtB4_13DispatchState19parked_carrier_expr
FN:153,_RNvNtNtNtCseriWsCb5ev6_4koan7machine7execute8dispatch12bare_name_of
FN:354,_RNvNtNtNtCseriWsCb5ev6_4koan7machine7execute8dispatch12run_dispatch
FN:204,_RNvNtNtNtCseriWsCb5ev6_4koan7machine7execute8dispatch14bind_frame_err
FN:108,_RNvNtNtNtCseriWsCb5ev6_4koan7machine7execute8dispatch17resolve_name_part
FN:194,_RNvNtNtNtCseriWsCb5ev6_4koan7machine7execute8dispatch19propagate_dep_error
FN:212,_RNvNtNtNtCseriWsCb5ev6_4koan7machine7execute8dispatch21stage_all_eager_parts
FN:74,_RNvNtNtNtCseriWsCb5ev6_4koan7machine7execute8dispatch23classify_dispatch_shape
FN:179,_RNvNtNtNtCseriWsCb5ev6_4koan7machine7execute8dispatch24extract_named_call_inner
FNDA:0,_RNvMNtNtNtCscUx3zdyuqfq_4koan7machine7execute8dispatchNtB2_14EagerSubsTrack8fn_value
FNDA:0,_RNvMNtNtNtCscUx3zdyuqfq_4koan7machine7execute8dispatchNtB2_14EagerSubsTrack9keyworded
FNDA:379,_RNvMs_NtNtNtCscUx3zdyuqfq_4koan7machine7execute8dispatchNtB4_13DispatchState11initialized
FNDA:0,_RNvMs_NtNtNtCscUx3zdyuqfq_4koan7machine7execute8dispatchNtB4_13DispatchState19parked_carrier_expr
FNDA:0,_RNvNtNtNtCscUx3zdyuqfq_4koan7machine7execute8dispatch12bare_name_of
FNDA:240,_RNvNtNtNtCscUx3zdyuqfq_4koan7machine7execute8dispatch12run_dispatch
FNDA:1,_RNvNtNtNtCscUx3zdyuqfq_4koan7machine7execute8dispatch14bind_frame_err
FNDA:213,_RNvNtNtNtCscUx3zdyuqfq_4koan7machine7execute8dispatch17resolve_name_part
FNDA:2,_RNvNtNtNtCscUx3zdyuqfq_4koan7machine7execute8dispatch19propagate_dep_error
FNDA:4,_RNvNtNtNtCscUx3zdyuqfq_4koan7machine7execute8dispatch21stage_all_eager_parts
FNDA:190,_RNvNtNtNtCscUx3zdyuqfq_4koan7machine7execute8dispatch23classify_dispatch_shape
FNDA:3,_RNvNtNtNtCscUx3zdyuqfq_4koan7machine7execute8dispatch24extract_named_call_inner
FNDA:0,_RNCNvMs_NtNtNtCscUx3zdyuqfq_4koan7machine7execute8dispatchNtB6_13DispatchState19parked_carrier_expr0Bc_
FNDA:197,_RNCNvNtNtNtCscUx3zdyuqfq_4koan7machine7execute8dispatch23classify_dispatch_shape0B9_
FNDA:0,_RNvMNtNtNtCseriWsCb5ev6_4koan7machine7execute8dispatchNtB2_14EagerSubsTrack8fn_value
FNDA:3,_RNCNvMs_NtNtNtCseriWsCb5ev6_4koan7machine7execute8dispatchNtB6_13DispatchState19parked_carrier_expr0Bc_
FNDA:2410,_RNCNvNtNtNtCseriWsCb5ev6_4koan7machine7execute8dispatch23classify_dispatch_shape0B9_
FNDA:1,_RNvMNtNtNtCseriWsCb5ev6_4koan7machine7execute8dispatchNtB2_14EagerSubsTrack9keyworded
FNDA:4106,_RNvMs_NtNtNtCseriWsCb5ev6_4koan7machine7execute8dispatchNtB4_13DispatchState11initialized
FNDA:6,_RNvMs_NtNtNtCseriWsCb5ev6_4koan7machine7execute8dispatchNtB4_13DispatchState19parked_carrier_expr
FNDA:0,_RNvNtNtNtCseriWsCb5ev6_4koan7machine7execute8dispatch12bare_name_of
FNDA:2667,_RNvNtNtNtCseriWsCb5ev6_4koan7machine7execute8dispatch12run_dispatch
FNDA:7,_RNvNtNtNtCseriWsCb5ev6_4koan7machine7execute8dispatch14bind_frame_err
FNDA:1325,_RNvNtNtNtCseriWsCb5ev6_4koan7machine7execute8dispatch17resolve_name_part
FNDA:28,_RNvNtNtNtCseriWsCb5ev6_4koan7machine7execute8dispatch19propagate_dep_error
FNDA:85,_RNvNtNtNtCseriWsCb5ev6_4koan7machine7execute8dispatch21stage_all_eager_parts
FNDA:2241,_RNvNtNtNtCseriWsCb5ev6_4koan7machine7execute8dispatch23classify_dispatch_shape
FNDA:120,_RNvNtNtNtCseriWsCb5ev6_4koan7machine7execute8dispatch24extract_named_call_inner
FNF:14
FNH:12
DA:74,2431
DA:75,2607
DA:76,1720
DA:77,711
DA:78,711
DA:79,79
DA:80,190
DA:81,79
DA:82,79
DA:84,63
DA:89,249
DA:90,0
DA:92,130
DA:93,130
DA:94,0
DA:96,112
DA:97,112
DA:98,112
DA:100,18
DA:101,0
DA:103,2431
DA:108,1538
DA:109,1538
DA:110,1538
DA:111,1538
DA:112,1538
DA:113,1538
DA:114,1538
DA:115,500
DA:116,1038
DA:117,1038
DA:119,0
DA:121,1538
DA:122,1538
DA:123,523
DA:124,523
DA:125,0
DA:126,0
DA:127,0
DA:129,1
DA:131,1
DA:133,522
DA:136,72
DA:137,72
DA:139,943
DA:141,943
DA:142,651
DA:143,598
DA:144,53
DA:145,0
DA:147,292
DA:149,1538
DA:153,0
DA:154,0
DA:155,0
DA:156,0
DA:157,0
DA:159,0
DA:179,123
DA:180,123
DA:181,123
DA:182,123
DA:184,1
DA:185,1
DA:186,1
DA:187,1
DA:189,122
DA:190,123
DA:194,30
DA:195,30
DA:196,30
DA:197,17
DA:198,13
DA:200,30
DA:204,8
DA:205,8
DA:206,8
DA:207,8
DA:212,89
DA:213,89
DA:214,89
DA:215,89
DA:216,89
DA:217,193
DA:218,193
DA:219,193
DA:220,78
DA:221,78
DA:222,78
DA:223,78
DA:224,1
DA:225,1
DA:226,1
DA:227,1
DA:228,1
DA:229,1
DA:230,1
DA:231,5
DA:232,5
DA:233,5
DA:234,5
DA:235,0
DA:236,0
DA:237,0
DA:238,0
DA:239,109
DA:242,89
DA:243,89
DA:283,1
DA:284,1
DA:285,1
DA:286,1
DA:287,1
DA:288,1
DA:290,0
DA:291,0
DA:292,0
DA:293,0
DA:294,0
DA:295,0
DA:296,0
DA:319,4485
DA:320,4485
DA:321,4485
DA:328,6
DA:329,6
DA:330,6
DA:331,6
DA:332,4
DA:333,1
DA:334,1
DA:335,0
DA:336,1
DA:337,1
DA:338,1
DA:339,0
DA:340,0
DA:342,1
DA:344,6
DA:354,2907
DA:355,2907
DA:356,2907
DA:357,2907
DA:358,2907
DA:359,2907
DA:360,2907
DA:361,2907
DA:362,2907
DA:363,2427
DA:364,387
DA:365,0
DA:366,93
DA:367,0
DA:373,2427
DA:375,79
DA:376,79
DA:377,79
DA:378,0
DA:380,79
DA:383,190
DA:384,190
DA:385,190
DA:386,0
DA:388,190
DA:391,18
DA:392,18
DA:393,18
DA:396,108
DA:397,108
DA:399,1720
DA:401,63
DA:402,63
DA:405,249
DA:406,249
DA:409,2907
BRF:0
BRH:0
LF:177
LH:145
end_of_record
SF:/var/home/jack/Code/koan/src/machine/execute/dispatch/constructors.rs
FN:115,_RNCNvNtNtNtNtCscUx3zdyuqfq_4koan7machine7execute8dispatch12constructors6launch0Bb_
FN:31,_RNvNtNtNtNtCscUx3zdyuqfq_4koan7machine7execute8dispatch12constructors25dispatch_construct_struct
FN:57,_RNvNtNtNtNtCscUx3zdyuqfq_4koan7machine7execute8dispatch12constructors25dispatch_construct_tagged
FN:127,_RNvNtNtNtNtCscUx3zdyuqfq_4koan7machine7execute8dispatch12constructors6finish
FN:83,_RNvNtNtNtNtCscUx3zdyuqfq_4koan7machine7execute8dispatch12constructors6launch
FN:115,_RNCNvNtNtNtNtCseriWsCb5ev6_4koan7machine7execute8dispatch12constructors6launch0Bb_
FN:31,_RNvNtNtNtNtCseriWsCb5ev6_4koan7machine7execute8dispatch12constructors25dispatch_construct_struct
FN:57,_RNvNtNtNtNtCseriWsCb5ev6_4koan7machine7execute8dispatch12constructors25dispatch_construct_tagged
FN:127,_RNvNtNtNtNtCseriWsCb5ev6_4koan7machine7execute8dispatch12constructors6finish
FN:83,_RNvNtNtNtNtCseriWsCb5ev6_4koan7machine7execute8dispatch12constructors6launch
FNDA:0,_RNCNvNtNtNtNtCscUx3zdyuqfq_4koan7machine7execute8dispatch12constructors6launch0Bb_
FNDA:3,_RNvNtNtNtNtCscUx3zdyuqfq_4koan7machine7execute8dispatch12constructors25dispatch_construct_struct
FNDA:0,_RNvNtNtNtNtCscUx3zdyuqfq_4koan7machine7execute8dispatch12constructors25dispatch_construct_tagged
FNDA:3,_RNvNtNtNtNtCscUx3zdyuqfq_4koan7machine7execute8dispatch12constructors6finish
FNDA:3,_RNvNtNtNtNtCscUx3zdyuqfq_4koan7machine7execute8dispatch12constructors6launch
FNDA:0,_RNCNvNtNtNtNtCseriWsCb5ev6_4koan7machine7execute8dispatch12constructors6launch0Bb_
FNDA:29,_RNvNtNtNtNtCseriWsCb5ev6_4koan7machine7execute8dispatch12constructors25dispatch_construct_struct
FNDA:65,_RNvNtNtNtNtCseriWsCb5ev6_4koan7machine7execute8dispatch12constructors25dispatch_construct_tagged
FNDA:90,_RNvNtNtNtNtCseriWsCb5ev6_4koan7machine7execute8dispatch12constructors6finish
FNDA:90,_RNvNtNtNtNtCseriWsCb5ev6_4koan7machine7execute8dispatch12constructors6launch
FNF:5
FNH:4
DA:31,32
DA:32,32
DA:33,32
DA:34,32
DA:35,32
DA:36,32
DA:37,32
DA:38,32
DA:39,32
DA:40,32
DA:41,28
DA:42,4
DA:44,28
DA:45,28
DA:46,28
DA:47,28
DA:48,28
DA:49,28
DA:51,32
DA:57,65
DA:58,65
DA:59,65
DA:60,65
DA:61,65
DA:62,65
DA:63,65
DA:64,65
DA:65,65
DA:66,65
DA:67,65
DA:68,0
DA:70,65
DA:71,65
DA:72,65
DA:73,65
DA:74,65
DA:75,65
DA:77,65
DA:83,93
DA:84,93
DA:85,93
DA:86,93
DA:87,93
DA:88,93
DA:89,93
DA:90,93
DA:91,93
DA:92,93
DA:93,117
DA:94,117
DA:95,117
DA:96,117
DA:97,0
DA:98,0
DA:99,0
DA:100,0
DA:101,0
DA:102,0
DA:103,0
DA:104,0
DA:105,0
DA:106,0
DA:109,117
DA:110,117
DA:111,117
DA:112,117
DA:114,93
DA:115,0
DA:116,0
DA:117,93
DA:118,93
DA:119,93
DA:120,93
DA:121,93
DA:122,93
DA:123,93
DA:127,93
DA:128,93
DA:129,93
DA:130,93
DA:131,93
DA:132,93
DA:133,28
DA:134,28
DA:136,65
DA:137,65
DA:138,65
DA:141,93
DA:142,87
DA:143,6
DA:145,93
BRF:0
BRH:0
LF:92
LH:78
end_of_record
SF:/var/home/jack/Code/koan/src/machine/execute/dispatch/constructors/struct_value.rs
FN:20,_RNvNtNtNtNtNtCscUx3zdyuqfq_4koan7machine7execute8dispatch12constructors12struct_value19prepare_value_parts
FN:45,_RNvNtNtNtNtNtCscUx3zdyuqfq_4koan7machine7execute8dispatch12constructors12struct_value9construct
FN:26,_RNCNvNtNtNtNtNtCscUx3zdyuqfq_4koan7machine7execute8dispatch12constructors12struct_value19prepare_value_parts0Bd_
FN:26,_RNCNvNtNtNtNtNtCseriWsCb5ev6_4koan7machine7execute8dispatch12constructors12struct_value19prepare_value_parts0Bd_
FN:20,_RNvNtNtNtNtNtCseriWsCb5ev6_4koan7machine7execute8dispatch12constructors12struct_value19prepare_value_parts
FN:45,_RNvNtNtNtNtNtCseriWsCb5ev6_4koan7machine7execute8dispatch12constructors12struct_value9construct
FNDA:3,_RNvNtNtNtNtNtCscUx3zdyuqfq_4koan7machine7execute8dispatch12constructors12struct_value19prepare_value_parts
FNDA:3,_RNvNtNtNtNtNtCscUx3zdyuqfq_4koan7machine7execute8dispatch12constructors12struct_value9construct
FNDA:0,_RNCNvNtNtNtNtNtCscUx3zdyuqfq_4koan7machine7execute8dispatch12constructors12struct_value19prepare_value_parts0Bd_
FNDA:2,_RNCNvNtNtNtNtNtCseriWsCb5ev6_4koan7machine7execute8dispatch12constructors12struct_value19prepare_value_parts0Bd_
FNDA:29,_RNvNtNtNtNtNtCseriWsCb5ev6_4koan7machine7execute8dispatch12constructors12struct_value19prepare_value_parts
FNDA:25,_RNvNtNtNtNtNtCseriWsCb5ev6_4koan7machine7execute8dispatch12constructors12struct_value9construct
FNF:3
FNH:3
DA:20,32
DA:21,32
DA:22,32
DA:23,32
DA:24,32
DA:25,32
DA:26,32
DA:27,30
DA:28,56
DA:29,56
DA:30,55
DA:31,1
DA:34,29
DA:35,1
DA:36,1
DA:37,1
DA:38,28
DA:39,28
DA:40,32
DA:45,28
DA:46,28
DA:47,28
DA:48,28
DA:49,28
DA:50,28
DA:51,28
DA:52,0
DA:53,0
DA:54,0
DA:55,0
DA:56,28
DA:57,28
DA:58,50
DA:59,50
DA:60,3
DA:61,3
DA:62,3
DA:63,3
DA:64,3
DA:65,47
DA:66,47
DA:68,25
DA:69,25
DA:70,25
DA:71,25
DA:72,25
DA:73,28
BRF:0
BRH:0
LF:48
LH:44
end_of_record
SF:/var/home/jack/Code/koan/src/machine/execute/dispatch/constructors/tagged_union.rs
FN:20,_RNvNtNtNtNtNtCscUx3zdyuqfq_4koan7machine7execute8dispatch12constructors12tagged_union12prepare_args
FN:46,_RNvNtNtNtNtNtCscUx3zdyuqfq_4koan7machine7execute8dispatch12constructors12tagged_union9construct
FN:20,_RNvNtNtNtNtNtCseriWsCb5ev6_4koan7machine7execute8dispatch12constructors12tagged_union12prepare_args
FN:46,_RNvNtNtNtNtNtCseriWsCb5ev6_4koan7machine7execute8dispatch12constructors12tagged_union9construct
FNDA:0,_RNvNtNtNtNtNtCscUx3zdyuqfq_4koan7machine7execute8dispatch12constructors12tagged_union12prepare_args
FNDA:0,_RNvNtNtNtNtNtCscUx3zdyuqfq_4koan7machine7execute8dispatch12constructors12tagged_union9construct
FNDA:65,_RNvNtNtNtNtNtCseriWsCb5ev6_4koan7machine7execute8dispatch12constructors12tagged_union12prepare_args
FNDA:65,_RNvNtNtNtNtNtCseriWsCb5ev6_4koan7machine7execute8dispatch12constructors12tagged_union9construct
FNF:2
FNH:2
DA:20,65
DA:21,65
DA:22,65
DA:23,65
DA:24,0
DA:25,0
DA:26,0
DA:27,0
DA:28,65
DA:29,65
DA:30,65
DA:31,65
DA:32,65
DA:33,65
DA:34,0
DA:35,0
DA:36,0
DA:37,0
DA:38,0
DA:41,65
DA:42,65
DA:46,65
DA:47,65
DA:48,65
DA:49,65
DA:50,65
DA:51,65
DA:52,65
DA:53,65
DA:54,63
DA:56,2
DA:57,2
DA:58,2
DA:59,2
DA:60,2
DA:63,63
DA:64,1
DA:65,1
DA:66,1
DA:67,1
DA:68,1
DA:69,62
DA:70,62
DA:71,62
DA:72,62
DA:73,62
DA:74,62
DA:75,62
DA:76,62
DA:77,65
BRF:0
BRH:0
LF:50
LH:41
end_of_record
SF:/var/home/jack/Code/koan/src/machine/execute/dispatch/ctx.rs
FN:298,_RNCNvMNtNtNtNtCscUx3zdyuqfq_4koan7machine7execute8dispatch3ctxNtB4_11DispatchCtx17resume_eager_subs0Bc_
FN:206,_RNCNvMNtNtNtNtCscUx3zdyuqfq_4koan7machine7execute8dispatch3ctxNtB4_11DispatchCtx19build_bare_outcomes0Bc_
FN:60,_RNvMNtNtNtNtCscUx3zdyuqfq_4koan7machine7execute8dispatch3ctxNtB2_11DispatchCtx11chain_deref
FN:76,_RNvMNtNtNtNtCscUx3zdyuqfq_4koan7machine7execute8dispatch3ctxNtB2_11DispatchCtx11read_result
FN:66,_RNvMNtNtNtNtCscUx3zdyuqfq_4koan7machine7execute8dispatch3ctxNtB2_11DispatchCtx12active_chain
FN:86,_RNvMNtNtNtNtCscUx3zdyuqfq_4koan7machine7execute8dispatch3ctxNtB2_11DispatchCtx13add_park_edge
FN:139,_RNvMNtNtNtNtCscUx3zdyuqfq_4koan7machine7execute8dispatch3ctxNtB2_11DispatchCtx13defer_to_lift
FN:90,_RNvMNtNtNtNtCscUx3zdyuqfq_4koan7machine7execute8dispatch3ctxNtB2_11DispatchCtx14add_owned_edge
FN:151,_RNvMNtNtNtNtCscUx3zdyuqfq_4koan7machine7execute8dispatch3ctxNtB2_11DispatchCtx14invoke_to_step
FN:98,_RNvMNtNtNtNtCscUx3zdyuqfq_4koan7machine7execute8dispatch3ctxNtB2_11DispatchCtx15clear_dep_edges
FN:72,_RNvMNtNtNtNtCscUx3zdyuqfq_4koan7machine7execute8dispatch3ctxNtB2_11DispatchCtx15is_result_ready
FN:286,_RNvMNtNtNtNtCscUx3zdyuqfq_4koan7machine7execute8dispatch3ctxNtB2_11DispatchCtx17resume_eager_subs
FN:130,_RNvMNtNtNtNtCscUx3zdyuqfq_4koan7machine7execute8dispatch3ctxNtB2_11DispatchCtx17take_recent_wakes
FN:222,_RNvMNtNtNtNtCscUx3zdyuqfq_4koan7machine7execute8dispatch3ctxNtB2_11DispatchCtx18install_eager_subs
FN:94,_RNvMNtNtNtNtCscUx3zdyuqfq_4koan7machine7execute8dispatch3ctxNtB2_11DispatchCtx18would_create_cycle
FN:199,_RNvMNtNtNtNtCscUx3zdyuqfq_4koan7machine7execute8dispatch3ctxNtB2_11DispatchCtx19build_bare_outcomes
FN:179,_RNvMNtNtNtNtCscUx3zdyuqfq_4koan7machine7execute8dispatch3ctxNtB2_11DispatchCtx21invoke_to_step_pinned
FN:116,_RNvMNtNtNtNtCscUx3zdyuqfq_4koan7machine7execute8dispatch3ctxNtB2_11DispatchCtx21schedule_dict_literal
FN:108,_RNvMNtNtNtNtCscUx3zdyuqfq_4koan7machine7execute8dispatch3ctxNtB2_11DispatchCtx21schedule_list_literal
FN:265,_RNvMNtNtNtNtCscUx3zdyuqfq_4koan7machine7execute8dispatch3ctxNtB2_11DispatchCtx28replace_with_parked_dispatch
FN:52,_RNvMNtNtNtNtCscUx3zdyuqfq_4koan7machine7execute8dispatch3ctxNtB2_11DispatchCtx3new
FN:124,_RNvMNtNtNtNtCscUx3zdyuqfq_4koan7machine7execute8dispatch3ctxNtB2_11DispatchCtx4free
FN:80,_RNvMNtNtNtNtCscUx3zdyuqfq_4koan7machine7execute8dispatch3ctxNtB2_11DispatchCtx4read
FN:331,_RNvXs_NtNtNtNtCscUx3zdyuqfq_4koan7machine7execute8dispatch3ctxNtB4_11DispatchCtxNtNtNtNtBa_4core9kfunction16scheduler_handle15SchedulerHandle11add_combine
FN:377,_RNvXs_NtNtNtNtCscUx3zdyuqfq_4koan7machine7execute8dispatch3ctxNtB4_11DispatchCtxNtNtNtNtBa_4core9kfunction16scheduler_handle15SchedulerHandle11enter_block
FN:327,_RNvXs_NtNtNtNtCscUx3zdyuqfq_4koan7machine7execute8dispatch3ctxNtB4_11DispatchCtxNtNtNtNtBa_4core9kfunction16scheduler_handle15SchedulerHandle12add_dispatch
FN:350,_RNvXs_NtNtNtNtCscUx3zdyuqfq_4koan7machine7execute8dispatch3ctxNtB4_11DispatchCtxNtNtNtNtBa_4core9kfunction16scheduler_handle15SchedulerHandle13current_frame
FN:359,_RNvXs_NtNtNtNtCscUx3zdyuqfq_4koan7machine7execute8dispatch3ctxNtB4_11DispatchCtxNtNtNtNtBa_4core9kfunction16scheduler_handle15SchedulerHandle17with_active_frame
FN:373,_RNvXs_NtNtNtNtCscUx3zdyuqfq_4koan7machine7execute8dispatch3ctxNtB4_11DispatchCtxNtNtNtNtBa_4core9kfunction16scheduler_handle15SchedulerHandle21current_lexical_chain
FN:386,_RNvXs_NtNtNtNtCscUx3zdyuqfq_4koan7machine7execute8dispatch3ctxNtB4_11DispatchCtxNtNtNtNtBa_4core9kfunction16scheduler_handle15SchedulerHandle23add_dispatch_with_chain
FN:369,_RNvXs_NtNtNtNtCscUx3zdyuqfq_4koan7machine7execute8dispatch3ctxNtB4_11DispatchCtxNtNtNtNtBa_4core9kfunction16scheduler_handle15SchedulerHandle32try_take_reusable_frame_for_tail
FN:341,_RNvXs_NtNtNtNtCscUx3zdyuqfq_4koan7machine7execute8dispatch3ctxNtB4_11DispatchCtxNtNtNtNtBa_4core9kfunction16scheduler_handle15SchedulerHandle9add_catch
FN:60,_RNvMNtNtNtNtCseriWsCb5ev6_4koan7machine7execute8dispatch3ctxNtB2_11DispatchCtx11chain_deref
FN:76,_RNvMNtNtNtNtCseriWsCb5ev6_4koan7machine7execute8dispatch3ctxNtB2_11DispatchCtx11read_result
FN:66,_RNvMNtNtNtNtCseriWsCb5ev6_4koan7machine7execute8dispatch3ctxNtB2_11DispatchCtx12active_chain
FN:86,_RNvMNtNtNtNtCseriWsCb5ev6_4koan7machine7execute8dispatch3ctxNtB2_11DispatchCtx13add_park_edge
FN:139,_RNvMNtNtNtNtCseriWsCb5ev6_4koan7machine7execute8dispatch3ctxNtB2_11DispatchCtx13defer_to_lift
FN:90,_RNvMNtNtNtNtCseriWsCb5ev6_4koan7machine7execute8dispatch3ctxNtB2_11DispatchCtx14add_owned_edge
FN:151,_RNvMNtNtNtNtCseriWsCb5ev6_4koan7machine7execute8dispatch3ctxNtB2_11DispatchCtx14invoke_to_step
FN:98,_RNvMNtNtNtNtCseriWsCb5ev6_4koan7machine7execute8dispatch3ctxNtB2_11DispatchCtx15clear_dep_edges
FN:72,_RNvMNtNtNtNtCseriWsCb5ev6_4koan7machine7execute8dispatch3ctxNtB2_11DispatchCtx15is_result_ready
FN:286,_RNvMNtNtNtNtCseriWsCb5ev6_4koan7machine7execute8dispatch3ctxNtB2_11DispatchCtx17resume_eager_subs
FN:130,_RNvMNtNtNtNtCseriWsCb5ev6_4koan7machine7execute8dispatch3ctxNtB2_11DispatchCtx17take_recent_wakes
FN:222,_RNvMNtNtNtNtCseriWsCb5ev6_4koan7machine7execute8dispatch3ctxNtB2_11DispatchCtx18install_eager_subs
FN:94,_RNvMNtNtNtNtCseriWsCb5ev6_4koan7machine7execute8dispatch3ctxNtB2_11DispatchCtx18would_create_cycle
FN:199,_RNvMNtNtNtNtCseriWsCb5ev6_4koan7machine7execute8dispatch3ctxNtB2_11DispatchCtx19build_bare_outcomes
FN:179,_RNvMNtNtNtNtCseriWsCb5ev6_4koan7machine7execute8dispatch3ctxNtB2_11DispatchCtx21invoke_to_step_pinned
FN:116,_RNvMNtNtNtNtCseriWsCb5ev6_4koan7machine7execute8dispatch3ctxNtB2_11DispatchCtx21schedule_dict_literal
FN:108,_RNvMNtNtNtNtCseriWsCb5ev6_4koan7machine7execute8dispatch3ctxNtB2_11DispatchCtx21schedule_list_literal
FN:265,_RNvMNtNtNtNtCseriWsCb5ev6_4koan7machine7execute8dispatch3ctxNtB2_11DispatchCtx28replace_with_parked_dispatch
FN:52,_RNvMNtNtNtNtCseriWsCb5ev6_4koan7machine7execute8dispatch3ctxNtB2_11DispatchCtx3new
FN:124,_RNvMNtNtNtNtCseriWsCb5ev6_4koan7machine7execute8dispatch3ctxNtB2_11DispatchCtx4free
FN:80,_RNvMNtNtNtNtCseriWsCb5ev6_4koan7machine7execute8dispatch3ctxNtB2_11DispatchCtx4read
FN:331,_RNvXs_NtNtNtNtCseriWsCb5ev6_4koan7machine7execute8dispatch3ctxNtB4_11DispatchCtxNtNtNtNtBa_4core9kfunction16scheduler_handle15SchedulerHandle11add_combine
FN:377,_RNvXs_NtNtNtNtCseriWsCb5ev6_4koan7machine7execute8dispatch3ctxNtB4_11DispatchCtxNtNtNtNtBa_4core9kfunction16scheduler_handle15SchedulerHandle11enter_block
FN:327,_RNvXs_NtNtNtNtCseriWsCb5ev6_4koan7machine7execute8dispatch3ctxNtB4_11DispatchCtxNtNtNtNtBa_4core9kfunction16scheduler_handle15SchedulerHandle12add_dispatch
FN:350,_RNvXs_NtNtNtNtCseriWsCb5ev6_4koan7machine7execute8dispatch3ctxNtB4_11DispatchCtxNtNtNtNtBa_4core9kfunction16scheduler_handle15SchedulerHandle13current_frame
FN:359,_RNvXs_NtNtNtNtCseriWsCb5ev6_4koan7machine7execute8dispatch3ctxNtB4_11DispatchCtxNtNtNtNtBa_4core9kfunction16scheduler_handle15SchedulerHandle17with_active_frame
FN:373,_RNvXs_NtNtNtNtCseriWsCb5ev6_4koan7machine7execute8dispatch3ctxNtB4_11DispatchCtxNtNtNtNtBa_4core9kfunction16scheduler_handle15SchedulerHandle21current_lexical_chain
FN:386,_RNvXs_NtNtNtNtCseriWsCb5ev6_4koan7machine7execute8dispatch3ctxNtB4_11DispatchCtxNtNtNtNtBa_4core9kfunction16scheduler_handle15SchedulerHandle23add_dispatch_with_chain
FN:369,_RNvXs_NtNtNtNtCseriWsCb5ev6_4koan7machine7execute8dispatch3ctxNtB4_11DispatchCtxNtNtNtNtBa_4core9kfunction16scheduler_handle15SchedulerHandle32try_take_reusable_frame_for_tail
FN:341,_RNvXs_NtNtNtNtCseriWsCb5ev6_4koan7machine7execute8dispatch3ctxNtB4_11DispatchCtxNtNtNtNtBa_4core9kfunction16scheduler_handle15SchedulerHandle9add_catch
FN:298,_RNCNvMNtNtNtNtCseriWsCb5ev6_4koan7machine7execute8dispatch3ctxNtB4_11DispatchCtx17resume_eager_subs0Bc_
FN:206,_RNCNvMNtNtNtNtCseriWsCb5ev6_4koan7machine7execute8dispatch3ctxNtB4_11DispatchCtx19build_bare_outcomes0Bc_
FNDA:31,_RNCNvMNtNtNtNtCscUx3zdyuqfq_4koan7machine7execute8dispatch3ctxNtB4_11DispatchCtx17resume_eager_subs0Bc_
FNDA:132,_RNCNvMNtNtNtNtCscUx3zdyuqfq_4koan7machine7execute8dispatch3ctxNtB4_11DispatchCtx19build_bare_outcomes0Bc_
FNDA:223,_RNvMNtNtNtNtCscUx3zdyuqfq_4koan7machine7execute8dispatch3ctxNtB2_11DispatchCtx11chain_deref
FNDA:39,_RNvMNtNtNtNtCscUx3zdyuqfq_4koan7machine7execute8dispatch3ctxNtB2_11DispatchCtx11read_result
FNDA:161,_RNvMNtNtNtNtCscUx3zdyuqfq_4koan7machine7execute8dispatch3ctxNtB2_11DispatchCtx12active_chain
FNDA:18,_RNvMNtNtNtNtCscUx3zdyuqfq_4koan7machine7execute8dispatch3ctxNtB2_11DispatchCtx13add_park_edge
FNDA:0,_RNvMNtNtNtNtCscUx3zdyuqfq_4koan7machine7execute8dispatch3ctxNtB2_11DispatchCtx13defer_to_lift
FNDA:37,_RNvMNtNtNtNtCscUx3zdyuqfq_4koan7machine7execute8dispatch3ctxNtB2_11DispatchCtx14add_owned_edge
FNDA:148,_RNvMNtNtNtNtCscUx3zdyuqfq_4koan7machine7execute8dispatch3ctxNtB2_11DispatchCtx14invoke_to_step
FNDA:34,_RNvMNtNtNtNtCscUx3zdyuqfq_4koan7machine7execute8dispatch3ctxNtB2_11DispatchCtx15clear_dep_edges
FNDA:49,_RNvMNtNtNtNtCscUx3zdyuqfq_4koan7machine7execute8dispatch3ctxNtB2_11DispatchCtx15is_result_ready
FNDA:31,_RNvMNtNtNtNtCscUx3zdyuqfq_4koan7machine7execute8dispatch3ctxNtB2_11DispatchCtx17resume_eager_subs
FNDA:240,_RNvMNtNtNtNtCscUx3zdyuqfq_4koan7machine7execute8dispatch3ctxNtB2_11DispatchCtx17take_recent_wakes
FNDA:35,_RNvMNtNtNtNtCscUx3zdyuqfq_4koan7machine7execute8dispatch3ctxNtB2_11DispatchCtx18install_eager_subs
FNDA:18,_RNvMNtNtNtNtCscUx3zdyuqfq_4koan7machine7execute8dispatch3ctxNtB2_11DispatchCtx18would_create_cycle
FNDA:176,_RNvMNtNtNtNtCscUx3zdyuqfq_4koan7machine7execute8dispatch3ctxNtB2_11DispatchCtx19build_bare_outcomes
FNDA:33,_RNvMNtNtNtNtCscUx3zdyuqfq_4koan7machine7execute8dispatch3ctxNtB2_11DispatchCtx21invoke_to_step_pinned
FNDA:1,_RNvMNtNtNtNtCscUx3zdyuqfq_4koan7machine7execute8dispatch3ctxNtB2_11DispatchCtx21schedule_dict_literal
FNDA:0,_RNvMNtNtNtNtCscUx3zdyuqfq_4koan7machine7execute8dispatch3ctxNtB2_11DispatchCtx21schedule_list_literal
FNDA:51,_RNvMNtNtNtNtCscUx3zdyuqfq_4koan7machine7execute8dispatch3ctxNtB2_11DispatchCtx28replace_with_parked_dispatch
FNDA:240,_RNvMNtNtNtNtCscUx3zdyuqfq_4koan7machine7execute8dispatch3ctxNtB2_11DispatchCtx3new
FNDA:38,_RNvMNtNtNtNtCscUx3zdyuqfq_4koan7machine7execute8dispatch3ctxNtB2_11DispatchCtx4free
FNDA:31,_RNvMNtNtNtNtCscUx3zdyuqfq_4koan7machine7execute8dispatch3ctxNtB2_11DispatchCtx4read
FNDA:47,_RNvXs_NtNtNtNtCscUx3zdyuqfq_4koan7machine7execute8dispatch3ctxNtB4_11DispatchCtxNtNtNtNtBa_4core9kfunction16scheduler_handle15SchedulerHandle11add_combine
FNDA:30,_RNvXs_NtNtNtNtCscUx3zdyuqfq_4koan7machine7execute8dispatch3ctxNtB4_11DispatchCtxNtNtNtNtBa_4core9kfunction16scheduler_handle15SchedulerHandle11enter_block
FNDA:31,_RNvXs_NtNtNtNtCscUx3zdyuqfq_4koan7machine7execute8dispatch3ctxNtB4_11DispatchCtxNtNtNtNtBa_4core9kfunction16scheduler_handle15SchedulerHandle12add_dispatch
FNDA:17,_RNvXs_NtNtNtNtCscUx3zdyuqfq_4koan7machine7execute8dispatch3ctxNtB4_11DispatchCtxNtNtNtNtBa_4core9kfunction16scheduler_handle15SchedulerHandle13current_frame
FNDA:0,_RNvXs_NtNtNtNtCscUx3zdyuqfq_4koan7machine7execute8dispatch3ctxNtB4_11DispatchCtxNtNtNtNtBa_4core9kfunction16scheduler_handle15SchedulerHandle17with_active_frame
FNDA:111,_RNvXs_NtNtNtNtCscUx3zdyuqfq_4koan7machine7execute8dispatch3ctxNtB4_11DispatchCtxNtNtNtNtBa_4core9kfunction16scheduler_handle15SchedulerHandle21current_lexical_chain
FNDA:0,_RNvXs_NtNtNtNtCscUx3zdyuqfq_4koan7machine7execute8dispatch3ctxNtB4_11DispatchCtxNtNtNtNtBa_4core9kfunction16scheduler_handle15SchedulerHandle23add_dispatch_with_chain
FNDA:7,_RNvXs_NtNtNtNtCscUx3zdyuqfq_4koan7machine7execute8dispatch3ctxNtB4_11DispatchCtxNtNtNtNtBa_4core9kfunction16scheduler_handle15SchedulerHandle32try_take_reusable_frame_for_tail
FNDA:0,_RNvXs_NtNtNtNtCscUx3zdyuqfq_4koan7machine7execute8dispatch3ctxNtB4_11DispatchCtxNtNtNtNtBa_4core9kfunction16scheduler_handle15SchedulerHandle9add_catch
FNDA:2329,_RNvMNtNtNtNtCseriWsCb5ev6_4koan7machine7execute8dispatch3ctxNtB2_11DispatchCtx11chain_deref
FNDA:471,_RNvMNtNtNtNtCseriWsCb5ev6_4koan7machine7execute8dispatch3ctxNtB2_11DispatchCtx11read_result
FNDA:1477,_RNvMNtNtNtNtCseriWsCb5ev6_4koan7machine7execute8dispatch3ctxNtB2_11DispatchCtx12active_chain
FNDA:67,_RNvMNtNtNtNtCseriWsCb5ev6_4koan7machine7execute8dispatch3ctxNtB2_11DispatchCtx13add_park_edge
FNDA:11,_RNvMNtNtNtNtCseriWsCb5ev6_4koan7machine7execute8dispatch3ctxNtB2_11DispatchCtx13defer_to_lift
FNDA:427,_RNvMNtNtNtNtCseriWsCb5ev6_4koan7machine7execute8dispatch3ctxNtB2_11DispatchCtx14add_owned_edge
FNDA:1534,_RNvMNtNtNtNtCseriWsCb5ev6_4koan7machine7execute8dispatch3ctxNtB2_11DispatchCtx14invoke_to_step
FNDA:386,_RNvMNtNtNtNtCseriWsCb5ev6_4koan7machine7execute8dispatch3ctxNtB2_11DispatchCtx15clear_dep_edges
FNDA:538,_RNvMNtNtNtNtCseriWsCb5ev6_4koan7machine7execute8dispatch3ctxNtB2_11DispatchCtx15is_result_ready
FNDA:302,_RNvMNtNtNtNtCseriWsCb5ev6_4koan7machine7execute8dispatch3ctxNtB2_11DispatchCtx17resume_eager_subs
FNDA:2667,_RNvMNtNtNtNtCseriWsCb5ev6_4koan7machine7execute8dispatch3ctxNtB2_11DispatchCtx17take_recent_wakes
FNDA:367,_RNvMNtNtNtNtCseriWsCb5ev6_4koan7machine7execute8dispatch3ctxNtB2_11DispatchCtx18install_eager_subs
FNDA:62,_RNvMNtNtNtNtCseriWsCb5ev6_4koan7machine7execute8dispatch3ctxNtB2_11DispatchCtx18would_create_cycle
FNDA:1598,_RNvMNtNtNtNtCseriWsCb5ev6_4koan7machine7execute8dispatch3ctxNtB2_11DispatchCtx19build_bare_outcomes
FNDA:353,_RNvMNtNtNtNtCseriWsCb5ev6_4koan7machine7execute8dispatch3ctxNtB2_11DispatchCtx21invoke_to_step_pinned
FNDA:12,_RNvMNtNtNtNtCseriWsCb5ev6_4koan7machine7execute8dispatch3ctxNtB2_11DispatchCtx21schedule_dict_literal
FNDA:34,_RNvMNtNtNtNtCseriWsCb5ev6_4koan7machine7execute8dispatch3ctxNtB2_11DispatchCtx21schedule_list_literal
FNDA:433,_RNvMNtNtNtNtCseriWsCb5ev6_4koan7machine7execute8dispatch3ctxNtB2_11DispatchCtx28replace_with_parked_dispatch
FNDA:2667,_RNvMNtNtNtNtCseriWsCb5ev6_4koan7machine7execute8dispatch3ctxNtB2_11DispatchCtx3new
FNDA:464,_RNvMNtNtNtNtCseriWsCb5ev6_4koan7machine7execute8dispatch3ctxNtB2_11DispatchCtx4free
FNDA:297,_RNvMNtNtNtNtCseriWsCb5ev6_4koan7machine7execute8dispatch3ctxNtB2_11DispatchCtx4read
FNDA:276,_RNvXs_NtNtNtNtCseriWsCb5ev6_4koan7machine7execute8dispatch3ctxNtB4_11DispatchCtxNtNtNtNtBa_4core9kfunction16scheduler_handle15SchedulerHandle11add_combine
FNDA:161,_RNvXs_NtNtNtNtCseriWsCb5ev6_4koan7machine7execute8dispatch3ctxNtB4_11DispatchCtxNtNtNtNtBa_4core9kfunction16scheduler_handle15SchedulerHandle11enter_block
FNDA:440,_RNvXs_NtNtNtNtCseriWsCb5ev6_4koan7machine7execute8dispatch3ctxNtB4_11DispatchCtxNtNtNtNtBa_4core9kfunction16scheduler_handle15SchedulerHandle12add_dispatch
FNDA:170,_RNvXs_NtNtNtNtCseriWsCb5ev6_4koan7machine7execute8dispatch3ctxNtB4_11DispatchCtxNtNtNtNtBa_4core9kfunction16scheduler_handle15SchedulerHandle13current_frame
FNDA:16,_RNvXs_NtNtNtNtCseriWsCb5ev6_4koan7machine7execute8dispatch3ctxNtB4_11DispatchCtxNtNtNtNtBa_4core9kfunction16scheduler_handle15SchedulerHandle17with_active_frame
FNDA:834,_RNvXs_NtNtNtNtCseriWsCb5ev6_4koan7machine7execute8dispatch3ctxNtB4_11DispatchCtxNtNtNtNtBa_4core9kfunction16scheduler_handle15SchedulerHandle21current_lexical_chain
FNDA:15,_RNvXs_NtNtNtNtCseriWsCb5ev6_4koan7machine7execute8dispatch3ctxNtB4_11DispatchCtxNtNtNtNtBa_4core9kfunction16scheduler_handle15SchedulerHandle23add_dispatch_with_chain
FNDA:293,_RNvXs_NtNtNtNtCseriWsCb5ev6_4koan7machine7execute8dispatch3ctxNtB4_11DispatchCtxNtNtNtNtBa_4core9kfunction16scheduler_handle15SchedulerHandle32try_take_reusable_frame_for_tail
FNDA:25,_RNvXs_NtNtNtNtCseriWsCb5ev6_4koan7machine7execute8dispatch3ctxNtB4_11DispatchCtxNtNtNtNtBa_4core9kfunction16scheduler_handle15SchedulerHandle9add_catch
FNDA:297,_RNCNvMNtNtNtNtCseriWsCb5ev6_4koan7machine7execute8dispatch3ctxNtB4_11DispatchCtx17resume_eager_subs0Bc_
FNDA:905,_RNCNvMNtNtNtNtCseriWsCb5ev6_4koan7machine7execute8dispatch3ctxNtB4_11DispatchCtx19build_bare_outcomes0Bc_
FNF:32
FNH:32
DA:52,2907
DA:53,2907
DA:54,2907
DA:60,2552
DA:61,2552
DA:62,2552
DA:66,1638
DA:67,1638
DA:68,1638
DA:72,587
DA:73,587
DA:74,587
DA:76,510
DA:77,510
DA:78,510
DA:80,328
DA:81,328
DA:82,328
DA:86,85
DA:87,85
DA:88,85
DA:90,464
DA:91,464
DA:92,464
DA:94,80
DA:95,80
DA:96,80
DA:98,420
DA:99,420
DA:100,420
DA:108,34
DA:109,34
DA:110,34
DA:111,34
DA:112,34
DA:113,34
DA:114,34
DA:116,13
DA:117,13
DA:118,13
DA:119,13
DA:120,13
DA:121,13
DA:122,13
DA:124,502
DA:125,502
DA:126,502
DA:130,2907
DA:131,2907
DA:132,2907
DA:139,11
DA:140,11
DA:141,11
DA:151,1682
DA:152,1682
DA:153,1682
DA:154,1682
DA:155,1682
DA:156,1682
DA:158,1682
DA:159,912
DA:160,370
DA:161,370
DA:162,370
DA:163,370
DA:164,370
DA:165,370
DA:166,370
DA:167,370
DA:169,347
DA:170,53
DA:172,1682
DA:179,386
DA:180,386
DA:181,386
DA:182,386
DA:183,386
DA:184,386
DA:185,386
DA:186,14
DA:187,14
DA:188,14
DA:189,14
DA:191,372
DA:192,372
DA:194,386
DA:199,1774
DA:200,1774
DA:201,1774
DA:202,1774
DA:203,1774
DA:204,1774
DA:205,1774
DA:206,1774
DA:208,493
DA:210,1037
DA:211,1037
DA:213,4605
DA:214,6135
DA:215,1774
DA:216,1774
DA:222,402
DA:223,402
DA:224,402
DA:225,402
DA:226,402
DA:227,402
DA:228,402
DA:229,402
DA:230,402
DA:231,402
DA:232,397
DA:233,147
DA:234,212
DA:235,25
DA:236,13
DA:238,397
DA:239,59
DA:240,2
DA:241,57
DA:242,57
DA:243,57
DA:244,57
DA:246,338
DA:247,338
DA:248,338
DA:249,338
DA:251,400
DA:252,64
DA:254,336
DA:255,336
DA:256,336
DA:257,336
DA:258,336
DA:260,402
DA:265,484
DA:266,484
DA:267,484
DA:268,484
DA:269,484
DA:270,484
DA:271,484
DA:272,484
DA:273,484
DA:274,484
DA:275,484
DA:276,484
DA:286,333
DA:287,333
DA:288,333
DA:289,333
DA:290,333
DA:291,333
DA:292,333
DA:293,334
DA:294,334
DA:295,6
DA:296,328
DA:298,328
DA:299,328
DA:300,328
DA:301,328
DA:302,328
DA:303,327
DA:304,328
DA:305,328
DA:306,328
DA:307,327
DA:308,327
DA:309,0
DA:310,0
DA:311,0
DA:314,333
DA:327,471
DA:328,471
DA:329,471
DA:331,323
DA:332,323
DA:333,323
DA:334,323
DA:335,323
DA:336,323
DA:337,323
DA:338,323
DA:339,323
DA:341,25
DA:342,25
DA:343,25
DA:344,25
DA:345,25
DA:346,25
DA:347,25
DA:348,25
DA:350,187
DA:351,187
DA:352,187
DA:359,16
DA:360,16
DA:361,16
DA:362,16
DA:363,16
DA:364,16
DA:365,16
DA:366,16
DA:367,16
DA:369,300
DA:370,300
DA:371,300
DA:373,945
DA:374,945
DA:375,945
DA:377,191
DA:378,191
DA:379,191
DA:380,191
DA:381,191
DA:382,191
DA:383,191
DA:384,191
DA:386,15
DA:387,15
DA:388,15
DA:389,15
DA:390,15
DA:391,15
DA:392,15
DA:393,15
BRF:0
BRH:0
LF:229
LH:226
end_of_record
SF:/var/home/jack/Code/koan/src/machine/execute/dispatch/fn_value.rs
FN:44,_RNvMs_NtNtNtNtCscUx3zdyuqfq_4koan7machine7execute8dispatch8fn_valueNtB4_12FnValueState9from_init
FN:38,_RNvMNtNtNtNtCscUx3zdyuqfq_4koan7machine7execute8dispatch8fn_valueNtB2_27FnValueHeadPlaceholderTrack3new
FN:48,_RNvMs_NtNtNtNtCscUx3zdyuqfq_4koan7machine7execute8dispatch8fn_valueNtB4_12FnValueState15with_eager_subs
FN:202,_RNvMs_NtNtNtNtCscUx3zdyuqfq_4koan7machine7execute8dispatch8fn_valueNtB4_12FnValueState17install_head_park
FN:55,_RNvMs_NtNtNtNtCscUx3zdyuqfq_4koan7machine7execute8dispatch8fn_valueNtB4_12FnValueState21with_head_placeholder
FN:106,_RNvMs_NtNtNtNtCscUx3zdyuqfq_4koan7machine7execute8dispatch8fn_valueNtB4_12FnValueState23dispatch_callable_value
FN:177,_RNvMs_NtNtNtNtCscUx3zdyuqfq_4koan7machine7execute8dispatch8fn_valueNtB4_12FnValueState24install_eager_subs_track
FN:84,_RNvMs_NtNtNtNtCscUx3zdyuqfq_4koan7machine7execute8dispatch8fn_valueNtB4_12FnValueState6resume
FN:62,_RNvMs_NtNtNtNtCscUx3zdyuqfq_4koan7machine7execute8dispatch8fn_valueNtB4_12FnValueState7initial
FN:44,_RNvMs_NtNtNtNtCseriWsCb5ev6_4koan7machine7execute8dispatch8fn_valueNtB4_12FnValueState9from_init
FN:38,_RNvMNtNtNtNtCseriWsCb5ev6_4koan7machine7execute8dispatch8fn_valueNtB2_27FnValueHeadPlaceholderTrack3new
FN:48,_RNvMs_NtNtNtNtCseriWsCb5ev6_4koan7machine7execute8dispatch8fn_valueNtB4_12FnValueState15with_eager_subs
FN:202,_RNvMs_NtNtNtNtCseriWsCb5ev6_4koan7machine7execute8dispatch8fn_valueNtB4_12FnValueState17install_head_park
FN:55,_RNvMs_NtNtNtNtCseriWsCb5ev6_4koan7machine7execute8dispatch8fn_valueNtB4_12FnValueState21with_head_placeholder
FN:106,_RNvMs_NtNtNtNtCseriWsCb5ev6_4koan7machine7execute8dispatch8fn_valueNtB4_12FnValueState23dispatch_callable_value
FN:177,_RNvMs_NtNtNtNtCseriWsCb5ev6_4koan7machine7execute8dispatch8fn_valueNtB4_12FnValueState24install_eager_subs_track
FN:84,_RNvMs_NtNtNtNtCseriWsCb5ev6_4koan7machine7execute8dispatch8fn_valueNtB4_12FnValueState6resume
FN:62,_RNvMs_NtNtNtNtCseriWsCb5ev6_4koan7machine7execute8dispatch8fn_valueNtB4_12FnValueState7initial
FNDA:0,_RNvMs_NtNtNtNtCscUx3zdyuqfq_4koan7machine7execute8dispatch8fn_valueNtB4_12FnValueState9from_init
FNDA:0,_RNvMNtNtNtNtCscUx3zdyuqfq_4koan7machine7execute8dispatch8fn_valueNtB2_27FnValueHeadPlaceholderTrack3new
FNDA:0,_RNvMs_NtNtNtNtCscUx3zdyuqfq_4koan7machine7execute8dispatch8fn_valueNtB4_12FnValueState15with_eager_subs
FNDA:0,_RNvMs_NtNtNtNtCscUx3zdyuqfq_4koan7machine7execute8dispatch8fn_valueNtB4_12FnValueState17install_head_park
FNDA:0,_RNvMs_NtNtNtNtCscUx3zdyuqfq_4koan7machine7execute8dispatch8fn_valueNtB4_12FnValueState21with_head_placeholder
FNDA:0,_RNvMs_NtNtNtNtCscUx3zdyuqfq_4koan7machine7execute8dispatch8fn_valueNtB4_12FnValueState23dispatch_callable_value
FNDA:0,_RNvMs_NtNtNtNtCscUx3zdyuqfq_4koan7machine7execute8dispatch8fn_valueNtB4_12FnValueState24install_eager_subs_track
FNDA:0,_RNvMs_NtNtNtNtCscUx3zdyuqfq_4koan7machine7execute8dispatch8fn_valueNtB4_12FnValueState6resume
FNDA:0,_RNvMs_NtNtNtNtCscUx3zdyuqfq_4koan7machine7execute8dispatch8fn_valueNtB4_12FnValueState7initial
FNDA:0,_RNvMs_NtNtNtNtCseriWsCb5ev6_4koan7machine7execute8dispatch8fn_valueNtB4_12FnValueState9from_init
FNDA:1,_RNvMNtNtNtNtCseriWsCb5ev6_4koan7machine7execute8dispatch8fn_valueNtB2_27FnValueHeadPlaceholderTrack3new
FNDA:0,_RNvMs_NtNtNtNtCseriWsCb5ev6_4koan7machine7execute8dispatch8fn_valueNtB4_12FnValueState15with_eager_subs
FNDA:1,_RNvMs_NtNtNtNtCseriWsCb5ev6_4koan7machine7execute8dispatch8fn_valueNtB4_12FnValueState17install_head_park
FNDA:1,_RNvMs_NtNtNtNtCseriWsCb5ev6_4koan7machine7execute8dispatch8fn_valueNtB4_12FnValueState21with_head_placeholder
FNDA:15,_RNvMs_NtNtNtNtCseriWsCb5ev6_4koan7machine7execute8dispatch8fn_valueNtB4_12FnValueState23dispatch_callable_value
FNDA:7,_RNvMs_NtNtNtNtCseriWsCb5ev6_4koan7machine7execute8dispatch8fn_valueNtB4_12FnValueState24install_eager_subs_track
FNDA:0,_RNvMs_NtNtNtNtCseriWsCb5ev6_4koan7machine7execute8dispatch8fn_valueNtB4_12FnValueState6resume
FNDA:18,_RNvMs_NtNtNtNtCseriWsCb5ev6_4koan7machine7execute8dispatch8fn_valueNtB4_12FnValueState7initial
FNF:9
FNH:6
DA:38,1
DA:39,1
DA:40,1
DA:44,0
DA:45,0
DA:46,0
DA:48,0
DA:49,0
DA:50,0
DA:51,0
DA:52,0
DA:53,0
DA:55,1
DA:56,1
DA:57,1
DA:58,1
DA:59,1
DA:60,1
DA:62,18
DA:63,18
DA:64,18
DA:65,18
DA:66,18
DA:67,18
DA:68,18
DA:69,18
DA:70,0
DA:72,18
DA:73,18
DA:74,15
DA:75,1
DA:76,1
DA:78,2
DA:79,2
DA:80,2
DA:82,18
DA:84,0
DA:85,0
DA:86,0
DA:87,0
DA:88,0
DA:89,0
DA:90,0
DA:91,0
DA:92,0
DA:93,0
DA:94,0
DA:97,0
DA:98,0
DA:99,0
DA:100,0
DA:101,0
DA:102,0
DA:103,0
DA:104,0
DA:106,15
DA:107,15
DA:108,15
DA:109,15
DA:110,15
DA:111,15
DA:112,15
DA:113,15
DA:114,15
DA:115,0
DA:117,3
DA:118,11
DA:119,7
DA:120,4
DA:126,3
DA:127,3
DA:128,1
DA:129,1
DA:130,1
DA:131,1
DA:132,1
DA:133,1
DA:134,1
DA:135,1
DA:136,1
DA:137,2
DA:138,0
DA:139,2
DA:140,2
DA:141,2
DA:142,2
DA:143,2
DA:144,2
DA:145,2
DA:146,2
DA:147,2
DA:150,0
DA:151,0
DA:152,0
DA:153,0
DA:154,0
DA:155,0
DA:156,0
DA:157,0
DA:158,0
DA:159,0
DA:161,0
DA:165,1
DA:166,1
DA:167,1
DA:168,1
DA:169,1
DA:170,1
DA:171,1
DA:173,15
DA:177,7
DA:178,7
DA:179,7
DA:180,7
DA:181,7
DA:182,7
DA:183,7
DA:184,7
DA:185,7
DA:186,7
DA:187,0
DA:188,7
DA:189,7
DA:190,0
DA:192,0
DA:194,0
DA:195,0
DA:196,0
DA:197,0
DA:200,7
DA:202,1
DA:203,1
DA:204,1
DA:205,1
DA:206,1
DA:207,1
DA:208,1
DA:209,1
DA:210,1
DA:211,1
DA:212,1
DA:213,1
DA:214,1
BRF:0
BRH:0
LF:143
LH:94
end_of_record
SF:/var/home/jack/Code/koan/src/machine/execute/dispatch/keyworded.rs
FN:87,_RNvMs1_NtNtNtNtCscUx3zdyuqfq_4koan7machine7execute8dispatch9keywordedNtB5_14KeywordedState9from_init
FN:40,_RNvMNtNtNtNtCscUx3zdyuqfq_4koan7machine7execute8dispatch9keywordedNtB2_9ParkTrack12carrier_expr
FN:78,_RNvMs0_NtNtNtNtCscUx3zdyuqfq_4koan7machine7execute8dispatch9keywordedNtB5_17OverloadParkTrack3new
FN:91,_RNvMs1_NtNtNtNtCscUx3zdyuqfq_4koan7machine7execute8dispatch9keywordedNtB5_14KeywordedState15with_eager_subs
FN:312,_RNvMs1_NtNtNtNtCscUx3zdyuqfq_4koan7machine7execute8dispatch9keywordedNtB5_14KeywordedState18install_eager_only
FN:105,_RNvMs1_NtNtNtNtCscUx3zdyuqfq_4koan7machine7execute8dispatch9keywordedNtB5_14KeywordedState18with_overload_park
FN:98,_RNvMs1_NtNtNtNtCscUx3zdyuqfq_4koan7machine7execute8dispatch9keywordedNtB5_14KeywordedState19with_bare_name_park
FN:276,_RNvMs1_NtNtNtNtCscUx3zdyuqfq_4koan7machine7execute8dispatch9keywordedNtB5_14KeywordedState21install_overload_park
FN:328,_RNvMs1_NtNtNtNtCscUx3zdyuqfq_4koan7machine7execute8dispatch9keywordedNtB5_14KeywordedState22install_bare_name_park
FN:345,_RNvMs1_NtNtNtNtCscUx3zdyuqfq_4koan7machine7execute8dispatch9keywordedNtB5_14KeywordedState24install_eager_subs_track
FN:240,_RNvMs1_NtNtNtNtCscUx3zdyuqfq_4koan7machine7execute8dispatch9keywordedNtB5_14KeywordedState6finish
FN:217,_RNvMs1_NtNtNtNtCscUx3zdyuqfq_4koan7machine7execute8dispatch9keywordedNtB5_14KeywordedState6resume
FN:115,_RNvMs1_NtNtNtNtCscUx3zdyuqfq_4koan7machine7execute8dispatch9keywordedNtB5_14KeywordedState7initial
FN:60,_RNvMs_NtNtNtNtCscUx3zdyuqfq_4koan7machine7execute8dispatch9keywordedNtB4_17BareNameParkTrack3new
FN:373,_RNvNtNtNtNtCscUx3zdyuqfq_4koan7machine7execute8dispatch9keyworded9part_walk
FN:392,_RNCNvNtNtNtNtCscUx3zdyuqfq_4koan7machine7execute8dispatch9keyworded9part_walk0Bb_
FN:454,_RNCNvNtNtNtNtCscUx3zdyuqfq_4koan7machine7execute8dispatch9keyworded9part_walks_0Bb_
FN:392,_RNCNvNtNtNtNtCseriWsCb5ev6_4koan7machine7execute8dispatch9keyworded9part_walk0Bb_
FN:454,_RNCNvNtNtNtNtCseriWsCb5ev6_4koan7machine7execute8dispatch9keyworded9part_walks_0Bb_
FN:40,_RNvMNtNtNtNtCseriWsCb5ev6_4koan7machine7execute8dispatch9keywordedNtB2_9ParkTrack12carrier_expr
FN:78,_RNvMs0_NtNtNtNtCseriWsCb5ev6_4koan7machine7execute8dispatch9keywordedNtB5_17OverloadParkTrack3new
FN:91,_RNvMs1_NtNtNtNtCseriWsCb5ev6_4koan7machine7execute8dispatch9keywordedNtB5_14KeywordedState15with_eager_subs
FN:312,_RNvMs1_NtNtNtNtCseriWsCb5ev6_4koan7machine7execute8dispatch9keywordedNtB5_14KeywordedState18install_eager_only
FN:105,_RNvMs1_NtNtNtNtCseriWsCb5ev6_4koan7machine7execute8dispatch9keywordedNtB5_14KeywordedState18with_overload_park
FN:98,_RNvMs1_NtNtNtNtCseriWsCb5ev6_4koan7machine7execute8dispatch9keywordedNtB5_14KeywordedState19with_bare_name_park
FN:276,_RNvMs1_NtNtNtNtCseriWsCb5ev6_4koan7machine7execute8dispatch9keywordedNtB5_14KeywordedState21install_overload_park
FN:328,_RNvMs1_NtNtNtNtCseriWsCb5ev6_4koan7machine7execute8dispatch9keywordedNtB5_14KeywordedState22install_bare_name_park
FN:345,_RNvMs1_NtNtNtNtCseriWsCb5ev6_4koan7machine7execute8dispatch9keywordedNtB5_14KeywordedState24install_eager_subs_track
FN:240,_RNvMs1_NtNtNtNtCseriWsCb5ev6_4koan7machine7execute8dispatch9keywordedNtB5_14KeywordedState6finish
FN:217,_RNvMs1_NtNtNtNtCseriWsCb5ev6_4koan7machine7execute8dispatch9keywordedNtB5_14KeywordedState6resume
FN:115,_RNvMs1_NtNtNtNtCseriWsCb5ev6_4koan7machine7execute8dispatch9keywordedNtB5_14KeywordedState7initial
FN:87,_RNvMs1_NtNtNtNtCseriWsCb5ev6_4koan7machine7execute8dispatch9keywordedNtB5_14KeywordedState9from_init
FN:60,_RNvMs_NtNtNtNtCseriWsCb5ev6_4koan7machine7execute8dispatch9keywordedNtB4_17BareNameParkTrack3new
FN:373,_RNvNtNtNtNtCseriWsCb5ev6_4koan7machine7execute8dispatch9keyworded9part_walk
FNDA:0,_RNvMs1_NtNtNtNtCscUx3zdyuqfq_4koan7machine7execute8dispatch9keywordedNtB5_14KeywordedState9from_init
FNDA:0,_RNvMNtNtNtNtCscUx3zdyuqfq_4koan7machine7execute8dispatch9keywordedNtB2_9ParkTrack12carrier_expr
FNDA:7,_RNvMs0_NtNtNtNtCscUx3zdyuqfq_4koan7machine7execute8dispatch9keywordedNtB5_17OverloadParkTrack3new
FNDA:32,_RNvMs1_NtNtNtNtCscUx3zdyuqfq_4koan7machine7execute8dispatch9keywordedNtB5_14KeywordedState15with_eager_subs
FNDA:4,_RNvMs1_NtNtNtNtCscUx3zdyuqfq_4koan7machine7execute8dispatch9keywordedNtB5_14KeywordedState18install_eager_only
FNDA:7,_RNvMs1_NtNtNtNtCscUx3zdyuqfq_4koan7machine7execute8dispatch9keywordedNtB5_14KeywordedState18with_overload_park
FNDA:9,_RNvMs1_NtNtNtNtCscUx3zdyuqfq_4koan7machine7execute8dispatch9keywordedNtB5_14KeywordedState19with_bare_name_park
FNDA:7,_RNvMs1_NtNtNtNtCscUx3zdyuqfq_4koan7machine7execute8dispatch9keywordedNtB5_14KeywordedState21install_overload_park
FNDA:9,_RNvMs1_NtNtNtNtCscUx3zdyuqfq_4koan7machine7execute8dispatch9keywordedNtB5_14KeywordedState22install_bare_name_park
FNDA:35,_RNvMs1_NtNtNtNtCscUx3zdyuqfq_4koan7machine7execute8dispatch9keywordedNtB5_14KeywordedState24install_eager_subs_track
FNDA:33,_RNvMs1_NtNtNtNtCscUx3zdyuqfq_4koan7machine7execute8dispatch9keywordedNtB5_14KeywordedState6finish
FNDA:47,_RNvMs1_NtNtNtNtCscUx3zdyuqfq_4koan7machine7execute8dispatch9keywordedNtB5_14KeywordedState6resume
FNDA:176,_RNvMs1_NtNtNtNtCscUx3zdyuqfq_4koan7machine7execute8dispatch9keywordedNtB5_14KeywordedState7initial
FNDA:9,_RNvMs_NtNtNtNtCscUx3zdyuqfq_4koan7machine7execute8dispatch9keywordedNtB4_17BareNameParkTrack3new
FNDA:159,_RNvNtNtNtNtCscUx3zdyuqfq_4koan7machine7execute8dispatch9keyworded9part_walk
FNDA:72,_RNCNvNtNtNtNtCscUx3zdyuqfq_4koan7machine7execute8dispatch9keyworded9part_walk0Bb_
FNDA:235,_RNCNvNtNtNtNtCscUx3zdyuqfq_4koan7machine7execute8dispatch9keyworded9part_walks_0Bb_
FNDA:516,_RNCNvNtNtNtNtCseriWsCb5ev6_4koan7machine7execute8dispatch9keyworded9part_walk0Bb_
FNDA:2332,_RNCNvNtNtNtNtCseriWsCb5ev6_4koan7machine7execute8dispatch9keyworded9part_walks_0Bb_
FNDA:3,_RNvMNtNtNtNtCseriWsCb5ev6_4koan7machine7execute8dispatch9keywordedNtB2_9ParkTrack12carrier_expr
FNDA:32,_RNvMs0_NtNtNtNtCseriWsCb5ev6_4koan7machine7execute8dispatch9keywordedNtB5_17OverloadParkTrack3new
FNDA:305,_RNvMs1_NtNtNtNtCseriWsCb5ev6_4koan7machine7execute8dispatch9keywordedNtB5_14KeywordedState15with_eager_subs
FNDA:78,_RNvMs1_NtNtNtNtCseriWsCb5ev6_4koan7machine7execute8dispatch9keywordedNtB5_14KeywordedState18install_eager_only
FNDA:32,_RNvMs1_NtNtNtNtCseriWsCb5ev6_4koan7machine7execute8dispatch9keywordedNtB5_14KeywordedState18with_overload_park
FNDA:8,_RNvMs1_NtNtNtNtCseriWsCb5ev6_4koan7machine7execute8dispatch9keywordedNtB5_14KeywordedState19with_bare_name_park
FNDA:31,_RNvMs1_NtNtNtNtCseriWsCb5ev6_4koan7machine7execute8dispatch9keywordedNtB5_14KeywordedState21install_overload_park
FNDA:7,_RNvMs1_NtNtNtNtCseriWsCb5ev6_4koan7machine7execute8dispatch9keywordedNtB5_14KeywordedState22install_bare_name_park
FNDA:360,_RNvMs1_NtNtNtNtCseriWsCb5ev6_4koan7machine7execute8dispatch9keywordedNtB5_14KeywordedState24install_eager_subs_track
FNDA:351,_RNvMs1_NtNtNtNtCseriWsCb5ev6_4koan7machine7execute8dispatch9keywordedNtB5_14KeywordedState6finish
FNDA:340,_RNvMs1_NtNtNtNtCseriWsCb5ev6_4koan7machine7execute8dispatch9keywordedNtB5_14KeywordedState6resume
FNDA:1598,_RNvMs1_NtNtNtNtCseriWsCb5ev6_4koan7machine7execute8dispatch9keywordedNtB5_14KeywordedState7initial
FNDA:1,_RNvMs1_NtNtNtNtCseriWsCb5ev6_4koan7machine7execute8dispatch9keywordedNtB5_14KeywordedState9from_init
FNDA:8,_RNvMs_NtNtNtNtCseriWsCb5ev6_4koan7machine7execute8dispatch9keywordedNtB4_17BareNameParkTrack3new
FNDA:1477,_RNvNtNtNtNtCseriWsCb5ev6_4koan7machine7execute8dispatch9keyworded9part_walk
FNF:17
FNH:17
DA:40,3
DA:41,3
DA:42,1
DA:43,1
DA:44,1
DA:46,3
DA:60,17
DA:61,17
DA:62,17
DA:63,17
DA:64,17
DA:65,17
DA:78,39
DA:79,39
DA:80,39
DA:81,39
DA:82,39
DA:83,39
DA:87,1
DA:88,1
DA:89,1
DA:91,337
DA:92,337
DA:93,337
DA:94,337
DA:95,337
DA:96,337
DA:98,17
DA:99,17
DA:100,17
DA:101,17
DA:102,17
DA:103,17
DA:105,39
DA:106,39
DA:107,39
DA:108,39
DA:109,39
DA:110,39
DA:115,1774
DA:116,1774
DA:117,1774
DA:118,1774
DA:119,1774
DA:120,1774
DA:121,1774
DA:122,1774
DA:124,1774
DA:125,1530
DA:126,0
DA:127,0
DA:128,1530
DA:130,1774
DA:131,1774
DA:132,1774
DA:133,1638
DA:134,0
DA:135,0
DA:136,0
DA:137,0
DA:138,0
DA:141,12
DA:142,12
DA:143,12
DA:144,12
DA:146,4
DA:147,4
DA:150,82
DA:151,82
DA:155,82
DA:157,38
DA:158,38
DA:161,1638
DA:162,1638
DA:163,1638
DA:164,1638
DA:165,1638
DA:166,1638
DA:167,1638
DA:168,1638
DA:169,1638
DA:170,765
DA:171,2
DA:172,763
DA:173,873
DA:174,1636
DA:175,0
DA:176,204
DA:178,0
DA:179,204
DA:180,1432
DA:181,1636
DA:182,1636
DA:183,1636
DA:184,1636
DA:185,1636
DA:186,1636
DA:187,1636
DA:188,1636
DA:189,1625
DA:190,11
DA:192,1625
DA:193,1625
DA:194,1625
DA:197,16
DA:198,16
DA:199,16
DA:200,16
DA:201,16
DA:202,16
DA:203,16
DA:204,16
DA:205,1609
DA:206,1609
DA:207,1296
DA:208,1296
DA:209,0
DA:211,313
DA:212,313
DA:213,313
DA:214,1774
DA:217,387
DA:218,387
DA:219,387
DA:220,387
DA:221,387
DA:222,387
DA:223,387
DA:224,387
DA:225,387
DA:227,387
DA:228,38
DA:229,38
DA:231,16
DA:232,16
DA:234,333
DA:236,387
DA:240,384
DA:241,384
DA:242,384
DA:243,384
DA:244,384
DA:245,384
DA:246,384
DA:247,379
DA:248,379
DA:249,379
DA:251,0
DA:252,0
DA:253,0
DA:254,0
DA:256,5
DA:257,5
DA:258,5
DA:259,5
DA:261,0
DA:262,0
DA:263,0
DA:264,0
DA:265,0
DA:266,0
DA:267,0
DA:268,0
DA:270,384
DA:276,38
DA:277,38
DA:278,38
DA:279,38
DA:280,38
DA:281,38
DA:282,38
DA:283,38
DA:284,64
DA:285,64
DA:286,0
DA:287,0
DA:288,0
DA:289,0
DA:290,64
DA:291,64
DA:292,64
DA:294,38
DA:295,0
DA:296,0
DA:297,0
DA:298,0
DA:299,38
DA:300,64
DA:301,64
DA:302,64
DA:303,38
DA:304,38
DA:305,38
DA:306,38
DA:307,38
DA:308,38
DA:312,82
DA:313,82
DA:314,82
DA:315,82
DA:316,82
DA:317,82
DA:318,82
DA:319,82
DA:320,82
DA:324,82
DA:325,82
DA:326,82
DA:328,16
DA:329,16
DA:330,16
DA:331,16
DA:332,16
DA:333,16
DA:334,16
DA:335,16
DA:336,16
DA:337,16
DA:338,16
DA:339,16
DA:340,16
DA:341,16
DA:342,16
DA:343,16
DA:345,395
DA:346,395
DA:347,395
DA:348,395
DA:349,395
DA:350,395
DA:351,395
DA:352,395
DA:353,395
DA:354,2
DA:355,57
DA:356,57
DA:358,336
DA:359,336
DA:360,336
DA:361,336
DA:362,336
DA:365,395
DA:373,1636
DA:374,1636
DA:375,1636
DA:376,1636
DA:377,1636
DA:378,1636
DA:379,1636
DA:380,1636
DA:384,1636
DA:385,1636
DA:386,1636
DA:387,1636
DA:388,1636
DA:389,1636
DA:390,5807
DA:391,5807
DA:392,5807
DA:393,147
DA:394,147
DA:395,147
DA:396,5660
DA:397,5660
DA:398,338
DA:399,322
DA:400,322
DA:401,322
DA:402,5
DA:403,5
DA:404,0
DA:405,0
DA:406,0
DA:407,0
DA:408,0
DA:409,5
DA:410,5
DA:411,5
DA:412,5
DA:413,5
DA:415,11
DA:416,11
DA:419,0
DA:422,0
DA:425,0
DA:426,0
DA:429,327
DA:430,5322
DA:431,5322
DA:432,266
DA:433,217
DA:434,217
DA:435,217
DA:437,266
DA:438,266
DA:439,11
DA:440,0
DA:441,0
DA:442,0
DA:443,0
DA:444,0
DA:445,11
DA:446,11
DA:447,11
DA:448,11
DA:449,255
DA:450,0
DA:451,266
DA:452,266
DA:453,5056
DA:454,5056
DA:455,5056
DA:456,2565
DA:457,111
DA:458,111
DA:459,111
DA:460,111
DA:462,22
DA:463,22
DA:464,22
DA:466,22
DA:467,22
DA:468,22
DA:470,20
DA:471,20
DA:472,20
DA:473,20
DA:475,13
DA:476,13
DA:477,13
DA:478,13
DA:480,2399
DA:482,2491
DA:483,2491
DA:484,2491
DA:486,1625
DA:487,1636
BRF:0
BRH:0
LF:339
LH:294
end_of_record
SF:/var/home/jack/Code/koan/src/machine/execute/dispatch/resolve_dispatch.rs
FN:101,_RNCNCNvMNtNtNtNtCscUx3zdyuqfq_4koan7machine7execute8dispatch16resolve_dispatchNtNtNtBc_4core5scope5Scope16resolve_dispatch00Be_
FN:247,_RNCNCNvNtNtNtNtCscUx3zdyuqfq_4koan7machine7execute8dispatch16resolve_dispatch23signature_admits_stricts_00Bd_
FN:100,_RNCNvMNtNtNtNtCscUx3zdyuqfq_4koan7machine7execute8dispatch16resolve_dispatchNtNtNtBa_4core5scope5Scope16resolve_dispatch0Bc_
FN:148,_RNCNvMNtNtNtNtCscUx3zdyuqfq_4koan7machine7execute8dispatch16resolve_dispatchNtNtNtBa_4core5scope5Scope16resolve_dispatchs_0Bc_
FN:177,_RNCNvMs_NtNtNtNtCscUx3zdyuqfq_4koan7machine7execute8dispatch16resolve_dispatchNtB6_14OverloadBucket11pick_strict0Be_
FN:284,_RNCNvNtNtNtNtCscUx3zdyuqfq_4koan7machine7execute8dispatch16resolve_dispatch14build_resolved0Bb_
FN:285,_RNCNvNtNtNtNtCscUx3zdyuqfq_4koan7machine7execute8dispatch16resolve_dispatch14build_resolveds_0Bb_
FN:268,_RNCNvNtNtNtNtCscUx3zdyuqfq_4koan7machine7execute8dispatch16resolve_dispatch19expr_has_eager_part0Bb_
FN:211,_RNCNvNtNtNtNtCscUx3zdyuqfq_4koan7machine7execute8dispatch16resolve_dispatch23signature_admits_strict0Bb_
FN:219,_RNCNvNtNtNtNtCscUx3zdyuqfq_4koan7machine7execute8dispatch16resolve_dispatch23signature_admits_stricts_0Bb_
FN:168,_RNvMs_NtNtNtNtCscUx3zdyuqfq_4koan7machine7execute8dispatch16resolve_dispatchNtB4_14OverloadBucket11pick_strict
FN:281,_RNvNtNtNtNtCscUx3zdyuqfq_4koan7machine7execute8dispatch16resolve_dispatch14build_resolved
FN:266,_RNvNtNtNtNtCscUx3zdyuqfq_4koan7machine7execute8dispatch16resolve_dispatch19expr_has_eager_part
FN:198,_RNvNtNtNtNtCscUx3zdyuqfq_4koan7machine7execute8dispatch16resolve_dispatch23signature_admits_strict
FN:88,_RNvMNtNtNtNtCscUx3zdyuqfq_4koan7machine7execute8dispatch16resolve_dispatchNtNtNtB8_4core5scope5Scope16resolve_dispatch
FN:88,_RNvMNtNtNtNtCseriWsCb5ev6_4koan7machine7execute8dispatch16resolve_dispatchNtNtNtB8_4core5scope5Scope16resolve_dispatch
FN:101,_RNCNCNvMNtNtNtNtCseriWsCb5ev6_4koan7machine7execute8dispatch16resolve_dispatchNtNtNtBc_4core5scope5Scope16resolve_dispatchs_00Be_
FN:247,_RNCNCNvNtNtNtNtCseriWsCb5ev6_4koan7machine7execute8dispatch16resolve_dispatch23signature_admits_stricts_00Bd_
FN:95,_RNCNvMNtNtNtNtCseriWsCb5ev6_4koan7machine7execute8dispatch16resolve_dispatchNtNtNtBa_4core5scope5Scope16resolve_dispatch0Bc_
FN:148,_RNCNvMNtNtNtNtCseriWsCb5ev6_4koan7machine7execute8dispatch16resolve_dispatchNtNtNtBa_4core5scope5Scope16resolve_dispatchs0_0Bc_
FN:100,_RNCNvMNtNtNtNtCseriWsCb5ev6_4koan7machine7execute8dispatch16resolve_dispatchNtNtNtBa_4core5scope5Scope16resolve_dispatchs_0Bc_
FN:177,_RNCNvMs_NtNtNtNtCseriWsCb5ev6_4koan7machine7execute8dispatch16resolve_dispatchNtB6_14OverloadBucket11pick_strict0Be_
FN:284,_RNCNvNtNtNtNtCseriWsCb5ev6_4koan7machine7execute8dispatch16resolve_dispatch14build_resolved0Bb_
FN:285,_RNCNvNtNtNtNtCseriWsCb5ev6_4koan7machine7execute8dispatch16resolve_dispatch14build_resolveds_0Bb_
FN:268,_RNCNvNtNtNtNtCseriWsCb5ev6_4koan7machine7execute8dispatch16resolve_dispatch19expr_has_eager_part0Bb_
FN:211,_RNCNvNtNtNtNtCseriWsCb5ev6_4koan7machine7execute8dispatch16resolve_dispatch23signature_admits_strict0Bb_
FN:219,_RNCNvNtNtNtNtCseriWsCb5ev6_4koan7machine7execute8dispatch16resolve_dispatch23signature_admits_stricts_0Bb_
FN:41,_RNCNvNtNtNtNtCseriWsCb5ev6_4koan7machine7execute8dispatch16resolve_dispatch28resolve_dispatch_entry_count0Bb_
FN:46,_RNCNvNtNtNtNtCseriWsCb5ev6_4koan7machine7execute8dispatch16resolve_dispatch34reset_resolve_dispatch_entry_count0Bb_
FN:168,_RNvMs_NtNtNtNtCseriWsCb5ev6_4koan7machine7execute8dispatch16resolve_dispatchNtB4_14OverloadBucket11pick_strict
FN:281,_RNvNtNtNtNtCseriWsCb5ev6_4koan7machine7execute8dispatch16resolve_dispatch14build_resolved
FN:266,_RNvNtNtNtNtCseriWsCb5ev6_4koan7machine7execute8dispatch16resolve_dispatch19expr_has_eager_part
FN:198,_RNvNtNtNtNtCseriWsCb5ev6_4koan7machine7execute8dispatch16resolve_dispatch23signature_admits_strict
FN:40,_RNvNtNtNtNtCseriWsCb5ev6_4koan7machine7execute8dispatch16resolve_dispatch28resolve_dispatch_entry_count
FN:45,_RNvNtNtNtNtCseriWsCb5ev6_4koan7machine7execute8dispatch16resolve_dispatch34reset_resolve_dispatch_entry_count
FNDA:262,_RNCNCNvMNtNtNtNtCscUx3zdyuqfq_4koan7machine7execute8dispatch16resolve_dispatchNtNtNtBc_4core5scope5Scope16resolve_dispatch00Be_
FNDA:255,_RNCNCNvNtNtNtNtCscUx3zdyuqfq_4koan7machine7execute8dispatch16resolve_dispatch23signature_admits_stricts_00Bd_
FNDA:262,_RNCNvMNtNtNtNtCscUx3zdyuqfq_4koan7machine7execute8dispatch16resolve_dispatchNtNtNtBa_4core5scope5Scope16resolve_dispatch0Bc_
FNDA:2,_RNCNvMNtNtNtNtCscUx3zdyuqfq_4koan7machine7execute8dispatch16resolve_dispatchNtNtNtBa_4core5scope5Scope16resolve_dispatchs_0Bc_
FNDA:384,_RNCNvMs_NtNtNtNtCscUx3zdyuqfq_4koan7machine7execute8dispatch16resolve_dispatchNtB6_14OverloadBucket11pick_strict0Be_
FNDA:130,_RNCNvNtNtNtNtCscUx3zdyuqfq_4koan7machine7execute8dispatch16resolve_dispatch14build_resolved0Bb_
FNDA:16,_RNCNvNtNtNtNtCscUx3zdyuqfq_4koan7machine7execute8dispatch16resolve_dispatch14build_resolveds_0Bb_
FNDA:17,_RNCNvNtNtNtNtCscUx3zdyuqfq_4koan7machine7execute8dispatch16resolve_dispatch19expr_has_eager_part0Bb_
FNDA:1288,_RNCNvNtNtNtNtCscUx3zdyuqfq_4koan7machine7execute8dispatch16resolve_dispatch23signature_admits_strict0Bb_
FNDA:1169,_RNCNvNtNtNtNtCscUx3zdyuqfq_4koan7machine7execute8dispatch16resolve_dispatch23signature_admits_stricts_0Bb_
FNDA:202,_RNvMs_NtNtNtNtCscUx3zdyuqfq_4koan7machine7execute8dispatch16resolve_dispatchNtB4_14OverloadBucket11pick_strict
FNDA:194,_RNvNtNtNtNtCscUx3zdyuqfq_4koan7machine7execute8dispatch16resolve_dispatch14build_resolved
FNDA:8,_RNvNtNtNtNtCscUx3zdyuqfq_4koan7machine7execute8dispatch16resolve_dispatch19expr_has_eager_part
FNDA:384,_RNvNtNtNtNtCscUx3zdyuqfq_4koan7machine7execute8dispatch16resolve_dispatch23signature_admits_strict
FNDA:209,_RNvMNtNtNtNtCscUx3zdyuqfq_4koan7machine7execute8dispatch16resolve_dispatchNtNtNtB8_4core5scope5Scope16resolve_dispatch
FNDA:1970,_RNvMNtNtNtNtCseriWsCb5ev6_4koan7machine7execute8dispatch16resolve_dispatchNtNtNtB8_4core5scope5Scope16resolve_dispatch
FNDA:2566,_RNCNCNvMNtNtNtNtCseriWsCb5ev6_4koan7machine7execute8dispatch16resolve_dispatchNtNtNtBc_4core5scope5Scope16resolve_dispatchs_00Be_
FNDA:2162,_RNCNCNvNtNtNtNtCseriWsCb5ev6_4koan7machine7execute8dispatch16resolve_dispatch23signature_admits_stricts_00Bd_
FNDA:1970,_RNCNvMNtNtNtNtCseriWsCb5ev6_4koan7machine7execute8dispatch16resolve_dispatchNtNtNtBa_4core5scope5Scope16resolve_dispatch0Bc_
FNDA:8,_RNCNvMNtNtNtNtCseriWsCb5ev6_4koan7machine7execute8dispatch16resolve_dispatchNtNtNtBa_4core5scope5Scope16resolve_dispatchs0_0Bc_
FNDA:2566,_RNCNvMNtNtNtNtCseriWsCb5ev6_4koan7machine7execute8dispatch16resolve_dispatchNtNtNtBa_4core5scope5Scope16resolve_dispatchs_0Bc_
FNDA:2926,_RNCNvMs_NtNtNtNtCseriWsCb5ev6_4koan7machine7execute8dispatch16resolve_dispatchNtB6_14OverloadBucket11pick_strict0Be_
FNDA:809,_RNCNvNtNtNtNtCseriWsCb5ev6_4koan7machine7execute8dispatch16resolve_dispatch14build_resolved0Bb_
FNDA:202,_RNCNvNtNtNtNtCseriWsCb5ev6_4koan7machine7execute8dispatch16resolve_dispatch14build_resolveds_0Bb_
FNDA:222,_RNCNvNtNtNtNtCseriWsCb5ev6_4koan7machine7execute8dispatch16resolve_dispatch19expr_has_eager_part0Bb_
FNDA:8999,_RNCNvNtNtNtNtCseriWsCb5ev6_4koan7machine7execute8dispatch16resolve_dispatch23signature_admits_strict0Bb_
FNDA:9006,_RNCNvNtNtNtNtCseriWsCb5ev6_4koan7machine7execute8dispatch16resolve_dispatch23signature_admits_stricts_0Bb_
FNDA:20,_RNCNvNtNtNtNtCseriWsCb5ev6_4koan7machine7execute8dispatch16resolve_dispatch28resolve_dispatch_entry_count0Bb_
FNDA:20,_RNCNvNtNtNtNtCseriWsCb5ev6_4koan7machine7execute8dispatch16resolve_dispatch34reset_resolve_dispatch_entry_count0Bb_
FNDA:1953,_RNvMs_NtNtNtNtCseriWsCb5ev6_4koan7machine7execute8dispatch16resolve_dispatchNtB4_14OverloadBucket11pick_strict
FNDA:1837,_RNvNtNtNtNtCseriWsCb5ev6_4koan7machine7execute8dispatch16resolve_dispatch14build_resolved
FNDA:105,_RNvNtNtNtNtCseriWsCb5ev6_4koan7machine7execute8dispatch16resolve_dispatch19expr_has_eager_part
FNDA:2926,_RNvNtNtNtNtCseriWsCb5ev6_4koan7machine7execute8dispatch16resolve_dispatch23signature_admits_strict
FNDA:20,_RNvNtNtNtNtCseriWsCb5ev6_4koan7machine7execute8dispatch16resolve_dispatch28resolve_dispatch_entry_count
FNDA:20,_RNvNtNtNtNtCseriWsCb5ev6_4koan7machine7execute8dispatch16resolve_dispatch34reset_resolve_dispatch_entry_count
FNF:20
FNH:20
DA:40,20
DA:41,20
DA:42,20
DA:45,20
DA:46,20
DA:47,20
DA:88,2179
DA:89,2179
DA:90,2179
DA:91,2179
DA:92,2179
DA:93,2179
DA:95,1970
DA:96,2179
DA:99,2179
DA:100,2828
DA:101,2828
DA:102,2828
DA:103,661
DA:104,12
DA:105,12
DA:106,12
DA:107,12
DA:108,12
DA:110,2155
DA:111,2155
DA:112,2155
DA:113,2031
DA:119,7
DA:120,5
DA:121,5
DA:123,2
DA:124,117
DA:128,2828
DA:129,2179
DA:130,2038
DA:131,141
DA:134,141
DA:135,141
DA:136,80
DA:137,61
DA:138,61
DA:139,61
DA:140,19
DA:142,141
DA:143,35
DA:144,106
DA:145,106
DA:146,78
DA:147,28
DA:148,28
DA:149,4
DA:150,36
DA:151,40
DA:152,4
DA:153,24
DA:154,24
DA:155,5
DA:156,19
DA:157,19
DA:158,2179
DA:168,2155
DA:169,2155
DA:170,2155
DA:171,2155
DA:172,2155
DA:173,2155
DA:174,2155
DA:175,2155
DA:176,2155
DA:177,3310
DA:178,2155
DA:179,2155
DA:180,2155
DA:181,2031
DA:182,124
DA:183,117
DA:185,2155
DA:198,3310
DA:199,3310
DA:200,3310
DA:201,3310
DA:202,3310
DA:203,3310
DA:204,0
DA:205,3310
DA:210,3310
DA:211,10287
DA:212,10287
DA:214,1410
DA:215,1410
DA:217,8877
DA:218,10287
DA:219,10175
DA:220,10175
DA:221,5019
DA:222,0
DA:223,5156
DA:227,5156
DA:228,2149
DA:229,23
DA:230,2126
DA:231,2126
DA:232,3007
DA:235,3007
DA:236,15
DA:238,1
DA:239,3006
DA:241,3006
DA:242,1517
DA:243,1207
DA:245,62
DA:246,2944
DA:247,2944
DA:248,603
DA:249,603
DA:254,108
DA:256,0
DA:257,2233
DA:261,10175
DA:262,3310
DA:266,113
DA:268,239
DA:269,156
DA:270,239
DA:276,239
DA:277,113
DA:281,2031
DA:283,2031
DA:284,2031
DA:285,2031
DA:286,2031
DA:288,2031
BRF:0
BRH:0
LF:145
LH:142
end_of_record
SF:/var/home/jack/Code/koan/src/machine/execute/dispatch/resolve_type_expr.rs
FN:112,_RNCNvMs_NtNtNtNtCscUx3zdyuqfq_4koan7machine7execute8dispatch17resolve_type_exprNtB6_12FinalizeGate17pending_producers0Be_
FN:146,_RNvMs0_NtNtNtNtCscUx3zdyuqfq_4koan7machine7execute8dispatch17resolve_type_exprNtB5_13KTypeUserRefs2of
FN:109,_RNvMs_NtNtNtNtCscUx3zdyuqfq_4koan7machine7execute8dispatch17resolve_type_exprNtB4_12FinalizeGate17pending_producers
FN:71,_RNvNtNtNtNtCscUx3zdyuqfq_4koan7machine7execute8dispatch17resolve_type_expr23coerce_type_token_value
FN:154,_RNvXs1_NtNtNtNtCscUx3zdyuqfq_4koan7machine7execute8dispatch17resolve_type_exprNtB5_13KTypeUserRefsNtNtNtNtCs27Vx93FoQ6z_4core4iter6traits8iterator8Iterator4next
FN:36,_RNvMNtNtNtNtCscUx3zdyuqfq_4koan7machine7execute8dispatch17resolve_type_exprNtNtNtB8_4core5scope5Scope17resolve_type_expr
FN:36,_RNvMNtNtNtNtCseriWsCb5ev6_4koan7machine7execute8dispatch17resolve_type_exprNtNtNtB8_4core5scope5Scope17resolve_type_expr
FN:290,_RNCNvNtNtNtNtNtCseriWsCb5ev6_4koan7machine7execute8dispatch17resolve_type_expr5testss_54ktype_user_refs_yields_nested_structural_refs_in_order0Bd_
FN:312,_RNCNvNtNtNtNtNtCseriWsCb5ev6_4koan7machine7execute8dispatch17resolve_type_expr5testss_55ktype_user_refs_does_not_recurse_into_user_type_payload0Bd_
FN:112,_RNCNvMs_NtNtNtNtCseriWsCb5ev6_4koan7machine7execute8dispatch17resolve_type_exprNtB6_12FinalizeGate17pending_producers0Be_
FN:377,_RNvNtNtNtNtNtNtCseriWsCb5ev6_4koan7machine7execute8dispatch17resolve_type_expr5tests23coerce_type_token_values_21recovers_paired_value
FN:364,_RNvNtNtNtNtNtNtCseriWsCb5ev6_4koan7machine7execute8dispatch17resolve_type_expr5tests23coerce_type_token_values_21unbound_returns_error
FN:342,_RNvNtNtNtNtNtNtCseriWsCb5ev6_4koan7machine7execute8dispatch17resolve_type_expr5tests23coerce_type_token_values_28rejects_parameterized_shapes
FN:332,_RNvNtNtNtNtNtNtCseriWsCb5ev6_4koan7machine7execute8dispatch17resolve_type_expr5tests23coerce_type_token_values_30builtin_synthesizes_ktypevalue
FN:401,_RNvNtNtNtNtNtNtCseriWsCb5ev6_4koan7machine7execute8dispatch17resolve_type_expr5tests23coerce_type_token_values_38falls_through_when_paired_value_absent
FN:220,_RNvNtNtNtNtNtCseriWsCb5ev6_4koan7machine7execute8dispatch17resolve_type_expr5testss_37resolve_type_expr_builtin_leaf_caches
FN:318,_RNvNtNtNtNtNtCseriWsCb5ev6_4koan7machine7execute8dispatch17resolve_type_expr5testss_39ktype_user_refs_yields_nothing_for_leaf
FN:237,_RNvNtNtNtNtNtCseriWsCb5ev6_4koan7machine7execute8dispatch17resolve_type_expr5testss_41resolve_type_expr_unbound_returns_unbound
FN:250,_RNvNtNtNtNtNtCseriWsCb5ev6_4koan7machine7execute8dispatch17resolve_type_expr5testss_51resolve_type_expr_user_struct_caches_after_finalize
FN:273,_RNvNtNtNtNtNtCseriWsCb5ev6_4koan7machine7execute8dispatch17resolve_type_expr5testss_54ktype_user_refs_yields_nested_structural_refs_in_order
FN:297,_RNvNtNtNtNtNtCseriWsCb5ev6_4koan7machine7execute8dispatch17resolve_type_expr5testss_55ktype_user_refs_does_not_recurse_into_user_type_payload
FN:146,_RNvMs0_NtNtNtNtCseriWsCb5ev6_4koan7machine7execute8dispatch17resolve_type_exprNtB5_13KTypeUserRefs2of
FN:109,_RNvMs_NtNtNtNtCseriWsCb5ev6_4koan7machine7execute8dispatch17resolve_type_exprNtB4_12FinalizeGate17pending_producers
FN:71,_RNvNtNtNtNtCseriWsCb5ev6_4koan7machine7execute8dispatch17resolve_type_expr23coerce_type_token_value
FN:154,_RNvXs1_NtNtNtNtCseriWsCb5ev6_4koan7machine7execute8dispatch17resolve_type_exprNtB5_13KTypeUserRefsNtNtNtNtCs27Vx93FoQ6z_4core4iter6traits8iterator8Iterator4next
FNDA:3,_RNCNvMs_NtNtNtNtCscUx3zdyuqfq_4koan7machine7execute8dispatch17resolve_type_exprNtB6_12FinalizeGate17pending_producers0Be_
FNDA:6,_RNvMs0_NtNtNtNtCscUx3zdyuqfq_4koan7machine7execute8dispatch17resolve_type_exprNtB5_13KTypeUserRefs2of
FNDA:6,_RNvMs_NtNtNtNtCscUx3zdyuqfq_4koan7machine7execute8dispatch17resolve_type_exprNtB4_12FinalizeGate17pending_producers
FNDA:90,_RNvNtNtNtNtCscUx3zdyuqfq_4koan7machine7execute8dispatch17resolve_type_expr23coerce_type_token_value
FNDA:8,_RNvXs1_NtNtNtNtCscUx3zdyuqfq_4koan7machine7execute8dispatch17resolve_type_exprNtB5_13KTypeUserRefsNtNtNtNtCs27Vx93FoQ6z_4core4iter6traits8iterator8Iterator4next
FNDA:7,_RNvMNtNtNtNtCscUx3zdyuqfq_4koan7machine7execute8dispatch17resolve_type_exprNtNtNtB8_4core5scope5Scope17resolve_type_expr
FNDA:20,_RNvMNtNtNtNtCseriWsCb5ev6_4koan7machine7execute8dispatch17resolve_type_exprNtNtNtB8_4core5scope5Scope17resolve_type_expr
FNDA:2,_RNCNvNtNtNtNtNtCseriWsCb5ev6_4koan7machine7execute8dispatch17resolve_type_expr5testss_54ktype_user_refs_yields_nested_structural_refs_in_order0Bd_
FNDA:1,_RNCNvNtNtNtNtNtCseriWsCb5ev6_4koan7machine7execute8dispatch17resolve_type_expr5testss_55ktype_user_refs_does_not_recurse_into_user_type_payload0Bd_
FNDA:2,_RNCNvMs_NtNtNtNtCseriWsCb5ev6_4koan7machine7execute8dispatch17resolve_type_exprNtB6_12FinalizeGate17pending_producers0Be_
FNDA:1,_RNvNtNtNtNtNtNtCseriWsCb5ev6_4koan7machine7execute8dispatch17resolve_type_expr5tests23coerce_type_token_values_21recovers_paired_value
FNDA:1,_RNvNtNtNtNtNtNtCseriWsCb5ev6_4koan7machine7execute8dispatch17resolve_type_expr5tests23coerce_type_token_values_21unbound_returns_error
FNDA:1,_RNvNtNtNtNtNtNtCseriWsCb5ev6_4koan7machine7execute8dispatch17resolve_type_expr5tests23coerce_type_token_values_28rejects_parameterized_shapes
FNDA:1,_RNvNtNtNtNtNtNtCseriWsCb5ev6_4koan7machine7execute8dispatch17resolve_type_expr5tests23coerce_type_token_values_30builtin_synthesizes_ktypevalue
FNDA:1,_RNvNtNtNtNtNtNtCseriWsCb5ev6_4koan7machine7execute8dispatch17resolve_type_expr5tests23coerce_type_token_values_38falls_through_when_paired_value_absent
FNDA:1,_RNvNtNtNtNtNtCseriWsCb5ev6_4koan7machine7execute8dispatch17resolve_type_expr5testss_37resolve_type_expr_builtin_leaf_caches
FNDA:1,_RNvNtNtNtNtNtCseriWsCb5ev6_4koan7machine7execute8dispatch17resolve_type_expr5testss_39ktype_user_refs_yields_nothing_for_leaf
FNDA:1,_RNvNtNtNtNtNtCseriWsCb5ev6_4koan7machine7execute8dispatch17resolve_type_expr5testss_41resolve_type_expr_unbound_returns_unbound
FNDA:1,_RNvNtNtNtNtNtCseriWsCb5ev6_4koan7machine7execute8dispatch17resolve_type_expr5testss_51resolve_type_expr_user_struct_caches_after_finalize
FNDA:1,_RNvNtNtNtNtNtCseriWsCb5ev6_4koan7machine7execute8dispatch17resolve_type_expr5testss_54ktype_user_refs_yields_nested_structural_refs_in_order
FNDA:1,_RNvNtNtNtNtNtCseriWsCb5ev6_4koan7machine7execute8dispatch17resolve_type_expr5testss_55ktype_user_refs_does_not_recurse_into_user_type_payload
FNDA:17,_RNvMs0_NtNtNtNtCseriWsCb5ev6_4koan7machine7execute8dispatch17resolve_type_exprNtB5_13KTypeUserRefs2of
FNDA:14,_RNvMs_NtNtNtNtCseriWsCb5ev6_4koan7machine7execute8dispatch17resolve_type_exprNtB4_12FinalizeGate17pending_producers
FNDA:645,_RNvNtNtNtNtCseriWsCb5ev6_4koan7machine7execute8dispatch17resolve_type_expr23coerce_type_token_value
FNDA:22,_RNvXs1_NtNtNtNtCseriWsCb5ev6_4koan7machine7execute8dispatch17resolve_type_exprNtB5_13KTypeUserRefsNtNtNtNtCs27Vx93FoQ6z_4core4iter6traits8iterator8Iterator4next
FNF:19
FNH:19
DA:36,27
DA:38,27
DA:39,3
DA:40,24
DA:41,24
DA:42,24
DA:43,20
DA:44,20
DA:45,20
DA:46,20
DA:47,20
DA:48,20
DA:50,0
DA:53,1
DA:54,3
DA:56,27
DA:71,735
DA:72,735
DA:73,735
DA:74,735
DA:75,735
DA:76,735
DA:77,1
DA:78,1
DA:79,1
DA:80,1
DA:81,734
DA:82,734
DA:83,734
DA:84,679
DA:85,679
DA:86,130
DA:87,1
DA:88,129
DA:90,549
DA:91,678
DA:93,55
DA:95,735
DA:109,20
DA:110,20
DA:111,20
DA:112,5
DA:113,3
DA:115,1
DA:116,1
DA:117,0
DA:122,0
DA:123,0
DA:125,0
DA:126,0
DA:127,0
DA:128,0
DA:130,20
DA:131,20
DA:146,23
DA:147,23
DA:148,23
DA:154,30
DA:155,49
DA:156,26
DA:157,4
DA:158,4
DA:160,3
DA:161,3
DA:163,0
DA:164,0
DA:166,0
DA:167,0
DA:169,1
DA:170,1
DA:171,1
DA:172,1
DA:173,1
DA:174,0
DA:175,0
DA:176,0
DA:177,0
DA:178,0
DA:180,0
DA:181,0
DA:182,0
DA:183,0
DA:184,0
DA:186,0
DA:187,0
DA:188,0
DA:189,0
DA:190,0
DA:191,0
DA:206,17
DA:209,23
DA:210,30
DA:220,1
DA:221,1
DA:222,1
DA:223,1
DA:224,1
DA:225,1
DA:226,0
DA:228,1
DA:229,1
DA:230,1
DA:231,0
DA:233,1
DA:234,1
DA:237,1
DA:238,1
DA:239,1
DA:240,1
DA:241,1
DA:242,1
DA:243,0
DA:245,1
DA:250,1
DA:252,1
DA:253,1
DA:254,1
DA:255,1
DA:256,1
DA:257,1
DA:258,0
DA:260,1
DA:261,1
DA:262,0
DA:264,1
DA:265,1
DA:266,0
DA:268,1
DA:269,1
DA:273,1
DA:275,1
DA:276,1
DA:277,1
DA:278,1
DA:279,1
DA:280,1
DA:281,1
DA:282,1
DA:283,1
DA:284,1
DA:285,1
DA:286,1
DA:288,1
DA:289,1
DA:290,2
DA:291,1
DA:292,1
DA:297,1
DA:299,1
DA:300,1
DA:301,1
DA:302,1
DA:303,1
DA:304,1
DA:305,1
DA:306,1
DA:307,1
DA:308,1
DA:309,1
DA:310,1
DA:311,1
DA:312,1
DA:313,1
DA:314,1
DA:318,1
DA:319,1
DA:320,1
DA:321,1
DA:332,1
DA:333,1
DA:334,1
DA:335,1
DA:336,1
DA:337,1
DA:338,1
DA:339,1
DA:342,1
DA:344,1
DA:345,1
DA:346,1
DA:347,1
DA:348,1
DA:349,1
DA:350,1
DA:351,1
DA:352,1
DA:353,1
DA:354,1
DA:355,1
DA:359,0
DA:361,1
DA:364,1
DA:365,1
DA:366,1
DA:367,1
DA:368,1
DA:369,1
DA:370,1
DA:372,0
DA:374,1
DA:377,1
DA:379,1
DA:380,1
DA:381,1
DA:382,1
DA:383,1
DA:384,1
DA:385,1
DA:386,1
DA:387,1
DA:388,1
DA:389,1
DA:391,1
DA:392,1
DA:393,1
DA:394,1
DA:401,1
DA:403,1
DA:404,1
DA:405,1
DA:406,1
DA:407,1
DA:408,1
DA:409,1
DA:411,1
DA:413,1
DA:414,1
DA:415,1
DA:416,1
DA:417,1
DA:419,0
DA:421,1
BRF:0
BRH:0
LF:235
LH:197
end_of_record
SF:/var/home/jack/Code/koan/src/machine/execute/dispatch/single_poll.rs
FN:129,_RNCNvMs0_NtNtNtNtCscUx3zdyuqfq_4koan7machine7execute8dispatch11single_pollNtB7_9CtorState6resume0Bf_
FN:79,_RNvMNtNtNtNtCscUx3zdyuqfq_4koan7machine7execute8dispatch11single_pollNtB2_11BareIdState9from_init
FN:91,_RNvMs0_NtNtNtNtCscUx3zdyuqfq_4koan7machine7execute8dispatch11single_pollNtB5_9CtorState9from_init
FN:135,_RNvMs1_NtNtNtNtCscUx3zdyuqfq_4koan7machine7execute8dispatch11single_pollNtB5_10SigilState9from_init
FN:141,_RNvMs2_NtNtNtNtCscUx3zdyuqfq_4koan7machine7execute8dispatch11single_pollNtB5_8LitState9from_init
FN:85,_RNvMs_NtNtNtNtCscUx3zdyuqfq_4koan7machine7execute8dispatch11single_pollNtB4_13BareTypeState9from_init
FN:95,_RNvMs0_NtNtNtNtCscUx3zdyuqfq_4koan7machine7execute8dispatch11single_pollNtB5_9CtorState10with_track
FN:102,_RNvMs0_NtNtNtNtCscUx3zdyuqfq_4koan7machine7execute8dispatch11single_pollNtB5_9CtorState6resume
FN:174,_RNvNtNtNtNtCscUx3zdyuqfq_4koan7machine7execute8dispatch11single_poll14bare_type_leaf
FN:148,_RNvNtNtNtNtCscUx3zdyuqfq_4koan7machine7execute8dispatch11single_poll15bare_identifier
FN:267,_RNvNtNtNtNtCscUx3zdyuqfq_4koan7machine7execute8dispatch11single_poll16constructor_call
FN:189,_RNvNtNtNtNtCscUx3zdyuqfq_4koan7machine7execute8dispatch11single_poll17sigiled_type_expr
FN:206,_RNvNtNtNtNtCscUx3zdyuqfq_4koan7machine7execute8dispatch11single_poll20literal_pass_through
FN:240,_RNvNtNtNtNtCscUx3zdyuqfq_4koan7machine7execute8dispatch11single_poll24park_on_literal_producer
FN:353,_RNvNtNtNtNtCscUx3zdyuqfq_4koan7machine7execute8dispatch11single_poll25schedule_constructor_body
FN:79,_RNvMNtNtNtNtCseriWsCb5ev6_4koan7machine7execute8dispatch11single_pollNtB2_11BareIdState9from_init
FN:91,_RNvMs0_NtNtNtNtCseriWsCb5ev6_4koan7machine7execute8dispatch11single_pollNtB5_9CtorState9from_init
FN:135,_RNvMs1_NtNtNtNtCseriWsCb5ev6_4koan7machine7execute8dispatch11single_pollNtB5_10SigilState9from_init
FN:141,_RNvMs2_NtNtNtNtCseriWsCb5ev6_4koan7machine7execute8dispatch11single_pollNtB5_8LitState9from_init
FN:85,_RNvMs_NtNtNtNtCseriWsCb5ev6_4koan7machine7execute8dispatch11single_pollNtB4_13BareTypeState9from_init
FN:95,_RNvMs0_NtNtNtNtCseriWsCb5ev6_4koan7machine7execute8dispatch11single_pollNtB5_9CtorState10with_track
FN:102,_RNvMs0_NtNtNtNtCseriWsCb5ev6_4koan7machine7execute8dispatch11single_pollNtB5_9CtorState6resume
FN:174,_RNvNtNtNtNtCseriWsCb5ev6_4koan7machine7execute8dispatch11single_poll14bare_type_leaf
FN:148,_RNvNtNtNtNtCseriWsCb5ev6_4koan7machine7execute8dispatch11single_poll15bare_identifier
FN:267,_RNvNtNtNtNtCseriWsCb5ev6_4koan7machine7execute8dispatch11single_poll16constructor_call
FN:189,_RNvNtNtNtNtCseriWsCb5ev6_4koan7machine7execute8dispatch11single_poll17sigiled_type_expr
FN:206,_RNvNtNtNtNtCseriWsCb5ev6_4koan7machine7execute8dispatch11single_poll20literal_pass_through
FN:240,_RNvNtNtNtNtCseriWsCb5ev6_4koan7machine7execute8dispatch11single_poll24park_on_literal_producer
FN:353,_RNvNtNtNtNtCseriWsCb5ev6_4koan7machine7execute8dispatch11single_poll25schedule_constructor_body
FN:129,_RNCNvMs0_NtNtNtNtCseriWsCb5ev6_4koan7machine7execute8dispatch11single_pollNtB7_9CtorState6resume0Bf_
FNDA:5,_RNCNvMs0_NtNtNtNtCscUx3zdyuqfq_4koan7machine7execute8dispatch11single_pollNtB7_9CtorState6resume0Bf_
FNDA:0,_RNvMNtNtNtNtCscUx3zdyuqfq_4koan7machine7execute8dispatch11single_pollNtB2_11BareIdState9from_init
FNDA:0,_RNvMs0_NtNtNtNtCscUx3zdyuqfq_4koan7machine7execute8dispatch11single_pollNtB5_9CtorState9from_init
FNDA:0,_RNvMs1_NtNtNtNtCscUx3zdyuqfq_4koan7machine7execute8dispatch11single_pollNtB5_10SigilState9from_init
FNDA:0,_RNvMs2_NtNtNtNtCscUx3zdyuqfq_4koan7machine7execute8dispatch11single_pollNtB5_8LitState9from_init
FNDA:0,_RNvMs_NtNtNtNtCscUx3zdyuqfq_4koan7machine7execute8dispatch11single_pollNtB4_13BareTypeState9from_init
FNDA:3,_RNvMs0_NtNtNtNtCscUx3zdyuqfq_4koan7machine7execute8dispatch11single_pollNtB5_9CtorState10with_track
FNDA:3,_RNvMs0_NtNtNtNtCscUx3zdyuqfq_4koan7machine7execute8dispatch11single_pollNtB5_9CtorState6resume
FNDA:8,_RNvNtNtNtNtCscUx3zdyuqfq_4koan7machine7execute8dispatch11single_poll14bare_type_leaf
FNDA:3,_RNvNtNtNtNtCscUx3zdyuqfq_4koan7machine7execute8dispatch11single_poll15bare_identifier
FNDA:3,_RNvNtNtNtNtCscUx3zdyuqfq_4koan7machine7execute8dispatch11single_poll16constructor_call
FNDA:10,_RNvNtNtNtNtCscUx3zdyuqfq_4koan7machine7execute8dispatch11single_poll17sigiled_type_expr
FNDA:6,_RNvNtNtNtNtCscUx3zdyuqfq_4koan7machine7execute8dispatch11single_poll20literal_pass_through
FNDA:0,_RNvNtNtNtNtCscUx3zdyuqfq_4koan7machine7execute8dispatch11single_poll24park_on_literal_producer
FNDA:0,_RNvNtNtNtNtCscUx3zdyuqfq_4koan7machine7execute8dispatch11single_poll25schedule_constructor_body
FNDA:0,_RNvMNtNtNtNtCseriWsCb5ev6_4koan7machine7execute8dispatch11single_pollNtB2_11BareIdState9from_init
FNDA:0,_RNvMs0_NtNtNtNtCseriWsCb5ev6_4koan7machine7execute8dispatch11single_pollNtB5_9CtorState9from_init
FNDA:0,_RNvMs1_NtNtNtNtCseriWsCb5ev6_4koan7machine7execute8dispatch11single_pollNtB5_10SigilState9from_init
FNDA:0,_RNvMs2_NtNtNtNtCseriWsCb5ev6_4koan7machine7execute8dispatch11single_pollNtB5_8LitState9from_init
FNDA:0,_RNvMs_NtNtNtNtCseriWsCb5ev6_4koan7machine7execute8dispatch11single_pollNtB4_13BareTypeState9from_init
FNDA:90,_RNvMs0_NtNtNtNtCseriWsCb5ev6_4koan7machine7execute8dispatch11single_pollNtB5_9CtorState10with_track
FNDA:90,_RNvMs0_NtNtNtNtCseriWsCb5ev6_4koan7machine7execute8dispatch11single_pollNtB5_9CtorState6resume
FNDA:71,_RNvNtNtNtNtCseriWsCb5ev6_4koan7machine7execute8dispatch11single_poll14bare_type_leaf
FNDA:187,_RNvNtNtNtNtCseriWsCb5ev6_4koan7machine7execute8dispatch11single_poll15bare_identifier
FNDA:105,_RNvNtNtNtNtCseriWsCb5ev6_4koan7machine7execute8dispatch11single_poll16constructor_call
FNDA:53,_RNvNtNtNtNtCseriWsCb5ev6_4koan7machine7execute8dispatch11single_poll17sigiled_type_expr
FNDA:243,_RNvNtNtNtNtCseriWsCb5ev6_4koan7machine7execute8dispatch11single_poll20literal_pass_through
FNDA:9,_RNvNtNtNtNtCseriWsCb5ev6_4koan7machine7execute8dispatch11single_poll24park_on_literal_producer
FNDA:12,_RNvNtNtNtNtCseriWsCb5ev6_4koan7machine7execute8dispatch11single_poll25schedule_constructor_body
FNDA:112,_RNCNvMs0_NtNtNtNtCseriWsCb5ev6_4koan7machine7execute8dispatch11single_pollNtB7_9CtorState6resume0Bf_
FNF:15
FNH:10
DA:79,0
DA:80,0
DA:81,0
DA:85,0
DA:86,0
DA:87,0
DA:91,0
DA:92,0
DA:93,0
DA:95,93
DA:96,93
DA:97,93
DA:102,93
DA:103,93
DA:104,93
DA:105,93
DA:106,93
DA:107,93
DA:108,93
DA:109,93
DA:110,93
DA:111,93
DA:112,117
DA:113,117
DA:114,117
DA:115,0
DA:116,0
DA:117,0
DA:118,0
DA:119,0
DA:120,0
DA:121,0
DA:125,93
DA:126,117
DA:127,117
DA:128,117
DA:129,117
DA:130,93
DA:131,93
DA:135,0
DA:136,0
DA:137,0
DA:141,0
DA:142,0
DA:143,0
DA:148,190
DA:149,190
DA:150,190
DA:151,190
DA:152,190
DA:153,190
DA:154,190
DA:155,169
DA:156,4
DA:159,4
DA:160,4
DA:161,4
DA:162,4
DA:163,4
DA:164,4
DA:165,4
DA:166,4
DA:169,17
DA:172,190
DA:174,79
DA:175,79
DA:176,79
DA:177,79
DA:178,79
DA:179,79
DA:180,79
DA:181,78
DA:182,1
DA:183,1
DA:185,0
DA:187,79
DA:189,63
DA:190,63
DA:191,63
DA:192,0
DA:194,63
DA:195,63
DA:196,63
DA:197,63
DA:198,63
DA:199,63
DA:200,63
DA:201,63
DA:206,249
DA:207,249
DA:208,249
DA:209,249
DA:210,249
DA:211,249
DA:212,249
DA:213,249
DA:215,239
DA:216,239
DA:218,0
DA:219,1
DA:220,1
DA:221,1
DA:222,1
DA:223,1
DA:224,1
DA:225,1
DA:226,9
DA:227,9
DA:228,9
DA:230,0
DA:231,0
DA:232,0
DA:234,0
DA:236,249
DA:240,9
DA:241,9
DA:242,9
DA:243,9
DA:244,9
DA:245,9
DA:246,0
DA:247,0
DA:248,0
DA:250,0
DA:251,0
DA:252,9
DA:253,9
DA:254,9
DA:255,9
DA:256,9
DA:257,9
DA:258,9
DA:259,9
DA:260,9
DA:261,9
DA:267,108
DA:268,108
DA:269,108
DA:270,108
DA:271,108
DA:272,108
DA:273,108
DA:274,108
DA:275,0
DA:277,108
DA:278,107
DA:279,1
DA:281,107
DA:282,107
DA:283,0
DA:284,0
DA:285,0
DA:286,0
DA:287,0
DA:288,0
DA:289,0
DA:292,107
DA:298,107
DA:299,106
DA:301,1
DA:302,1
DA:303,1
DA:306,106
DA:307,31
DA:308,31
DA:309,31
DA:310,31
DA:311,31
DA:312,31
DA:313,31
DA:314,31
DA:315,31
DA:318,58
DA:319,58
DA:320,58
DA:321,58
DA:322,58
DA:323,58
DA:324,58
DA:325,58
DA:326,58
DA:330,12
DA:331,12
DA:333,5
DA:334,5
DA:335,5
DA:336,5
DA:337,5
DA:338,5
DA:339,5
DA:340,5
DA:341,5
DA:344,0
DA:345,0
DA:346,0
DA:347,0
DA:348,0
DA:350,108
DA:353,12
DA:354,12
DA:355,12
DA:356,12
DA:357,12
DA:358,12
DA:359,0
DA:360,0
DA:361,0
DA:362,0
DA:363,0
DA:364,0
DA:365,0
DA:366,0
DA:367,11
DA:368,1
DA:370,12
BRF:0
BRH:0
LF:216
LH:161
end_of_record
SF:/var/home/jack/Code/koan/src/machine/execute/interpret.rs
FN:15,_RNvNtNtNtCscUx3zdyuqfq_4koan7machine7execute9interpret21interpret_with_writer
FN:23,_RNvNtNtNtCscUx3zdyuqfq_4koan7machine7execute9interpret26interpret_with_writer_path
FN:8,_RNvNtNtNtCscUx3zdyuqfq_4koan7machine7execute9interpret9interpret
FN:15,_RNvNtNtNtCseriWsCb5ev6_4koan7machine7execute9interpret21interpret_with_writer
FN:23,_RNvNtNtNtCseriWsCb5ev6_4koan7machine7execute9interpret26interpret_with_writer_path
FN:8,_RNvNtNtNtCseriWsCb5ev6_4koan7machine7execute9interpret9interpret
FNDA:8,_RNvNtNtNtCscUx3zdyuqfq_4koan7machine7execute9interpret21interpret_with_writer
FNDA:8,_RNvNtNtNtCscUx3zdyuqfq_4koan7machine7execute9interpret26interpret_with_writer_path
FNDA:0,_RNvNtNtNtCscUx3zdyuqfq_4koan7machine7execute9interpret9interpret
FNDA:10,_RNvNtNtNtCseriWsCb5ev6_4koan7machine7execute9interpret21interpret_with_writer
FNDA:11,_RNvNtNtNtCseriWsCb5ev6_4koan7machine7execute9interpret26interpret_with_writer_path
FNDA:0,_RNvNtNtNtCseriWsCb5ev6_4koan7machine7execute9interpret9interpret
FNF:3
FNH:2
DA:8,0
DA:9,0
DA:10,0
DA:15,18
DA:16,18
DA:17,18
DA:18,18
DA:19,18
DA:20,18
DA:23,19
DA:24,19
DA:25,19
DA:26,19
DA:27,19
DA:28,19
DA:29,1
DA:30,18
DA:32,18
DA:33,18
DA:34,18
DA:38,18
DA:39,18
DA:43,38
DA:44,38
DA:45,9
DA:46,29
DA:47,0
DA:48,0
DA:49,0
DA:50,0
DA:51,0
DA:53,29
DA:56,7
DA:57,19
BRF:0
BRH:0
LF:34
LH:25
end_of_record
SF:/var/home/jack/Code/koan/src/machine/execute/lift.rs
FN:114,_RINvNtNtNtCscUx3zdyuqfq_4koan7machine7execute4lift14any_descendantNCNvB2_10needs_lift0EB8_
FN:114,_RINvNtNtNtCscUx3zdyuqfq_4koan7machine7execute4lift14any_descendantNCNvB2_21kobject_borrows_arena0EB8_
FN:122,_RNCINvNtNtNtCscUx3zdyuqfq_4koan7machine7execute4lift14any_descendantNCNvB4_10needs_lift0E0Ba_
FN:127,_RNCINvNtNtNtCscUx3zdyuqfq_4koan7machine7execute4lift14any_descendantNCNvB4_10needs_lift0Es0_0Ba_
FN:128,_RNCINvNtNtNtCscUx3zdyuqfq_4koan7machine7execute4lift14any_descendantNCNvB4_10needs_lift0Es1_0Ba_
FN:123,_RNCINvNtNtNtCscUx3zdyuqfq_4koan7machine7execute4lift14any_descendantNCNvB4_10needs_lift0Es_0Ba_
FN:122,_RNCINvNtNtNtCscUx3zdyuqfq_4koan7machine7execute4lift14any_descendantNCNvB4_21kobject_borrows_arena0E0Ba_
FN:127,_RNCINvNtNtNtCscUx3zdyuqfq_4koan7machine7execute4lift14any_descendantNCNvB4_21kobject_borrows_arena0Es0_0Ba_
FN:128,_RNCINvNtNtNtCscUx3zdyuqfq_4koan7machine7execute4lift14any_descendantNCNvB4_21kobject_borrows_arena0Es1_0Ba_
FN:123,_RNCINvNtNtNtCscUx3zdyuqfq_4koan7machine7execute4lift14any_descendantNCNvB4_21kobject_borrows_arena0Es_0Ba_
FN:131,_RNCNCINvNtNtNtCscUx3zdyuqfq_4koan7machine7execute4lift14any_descendantNCNvB6_10needs_lift0Es1_00Bc_
FN:131,_RNCNCINvNtNtNtCscUx3zdyuqfq_4koan7machine7execute4lift14any_descendantNCNvB6_21kobject_borrows_arena0Es1_00Bc_
FN:151,_RNCNvNtNtNtCscUx3zdyuqfq_4koan7machine7execute4lift10needs_lift0B9_
FN:64,_RNCNvNtNtNtCscUx3zdyuqfq_4koan7machine7execute4lift12lift_kobject0B9_
FN:75,_RNCNvNtNtNtCscUx3zdyuqfq_4koan7machine7execute4lift12lift_kobjects0_0B9_
FN:78,_RNCNvNtNtNtCscUx3zdyuqfq_4koan7machine7execute4lift12lift_kobjects1_0B9_
FN:67,_RNCNvNtNtNtCscUx3zdyuqfq_4koan7machine7execute4lift12lift_kobjects_0B9_
FN:197,_RNCNvNtNtNtCscUx3zdyuqfq_4koan7machine7execute4lift18part_borrows_arena0B9_
FN:198,_RNCNvNtNtNtCscUx3zdyuqfq_4koan7machine7execute4lift18part_borrows_arenas_0B9_
FN:210,_RNCNvNtNtNtCscUx3zdyuqfq_4koan7machine7execute4lift21kobject_borrows_arena0B9_
FN:187,_RNCNvNtNtNtCscUx3zdyuqfq_4koan7machine7execute4lift24expression_borrows_arena0B9_
FN:183,_RNCNvNtNtNtCscUx3zdyuqfq_4koan7machine7execute4lift27kfuture_borrows_dying_arena0B9_
FN:149,_RNvNtNtNtCscUx3zdyuqfq_4koan7machine7execute4lift10needs_lift
FN:16,_RNvNtNtNtCscUx3zdyuqfq_4koan7machine7execute4lift12lift_kobject
FN:190,_RNvNtNtNtCscUx3zdyuqfq_4koan7machine7execute4lift18part_borrows_arena
FN:209,_RNvNtNtNtCscUx3zdyuqfq_4koan7machine7execute4lift21kobject_borrows_arena
FN:186,_RNvNtNtNtCscUx3zdyuqfq_4koan7machine7execute4lift24expression_borrows_arena
FN:173,_RNvNtNtNtCscUx3zdyuqfq_4koan7machine7execute4lift27kfuture_borrows_dying_arena
FN:114,_RINvNtNtNtCseriWsCb5ev6_4koan7machine7execute4lift14any_descendantNCNvB2_10needs_lift0EB8_
FN:114,_RINvNtNtNtCseriWsCb5ev6_4koan7machine7execute4lift14any_descendantNCNvB2_21kobject_borrows_arena0EB8_
FN:122,_RNCINvNtNtNtCseriWsCb5ev6_4koan7machine7execute4lift14any_descendantNCNvB4_10needs_lift0E0Ba_
FN:127,_RNCINvNtNtNtCseriWsCb5ev6_4koan7machine7execute4lift14any_descendantNCNvB4_10needs_lift0Es0_0Ba_
FN:128,_RNCINvNtNtNtCseriWsCb5ev6_4koan7machine7execute4lift14any_descendantNCNvB4_10needs_lift0Es1_0Ba_
FN:123,_RNCINvNtNtNtCseriWsCb5ev6_4koan7machine7execute4lift14any_descendantNCNvB4_10needs_lift0Es_0Ba_
FN:122,_RNCINvNtNtNtCseriWsCb5ev6_4koan7machine7execute4lift14any_descendantNCNvB4_21kobject_borrows_arena0E0Ba_
FN:127,_RNCINvNtNtNtCseriWsCb5ev6_4koan7machine7execute4lift14any_descendantNCNvB4_21kobject_borrows_arena0Es0_0Ba_
FN:128,_RNCINvNtNtNtCseriWsCb5ev6_4koan7machine7execute4lift14any_descendantNCNvB4_21kobject_borrows_arena0Es1_0Ba_
FN:123,_RNCINvNtNtNtCseriWsCb5ev6_4koan7machine7execute4lift14any_descendantNCNvB4_21kobject_borrows_arena0Es_0Ba_
FN:131,_RNCNCINvNtNtNtCseriWsCb5ev6_4koan7machine7execute4lift14any_descendantNCNvB6_10needs_lift0Es1_00Bc_
FN:131,_RNCNCINvNtNtNtCseriWsCb5ev6_4koan7machine7execute4lift14any_descendantNCNvB6_21kobject_borrows_arena0Es1_00Bc_
FN:151,_RNCNvNtNtNtCseriWsCb5ev6_4koan7machine7execute4lift10needs_lift0B9_
FN:64,_RNCNvNtNtNtCseriWsCb5ev6_4koan7machine7execute4lift12lift_kobject0B9_
FN:75,_RNCNvNtNtNtCseriWsCb5ev6_4koan7machine7execute4lift12lift_kobjects0_0B9_
FN:78,_RNCNvNtNtNtCseriWsCb5ev6_4koan7machine7execute4lift12lift_kobjects1_0B9_
FN:67,_RNCNvNtNtNtCseriWsCb5ev6_4koan7machine7execute4lift12lift_kobjects_0B9_
FN:197,_RNCNvNtNtNtCseriWsCb5ev6_4koan7machine7execute4lift18part_borrows_arena0B9_
FN:198,_RNCNvNtNtNtCseriWsCb5ev6_4koan7machine7execute4lift18part_borrows_arenas_0B9_
FN:210,_RNCNvNtNtNtCseriWsCb5ev6_4koan7machine7execute4lift21kobject_borrows_arena0B9_
FN:187,_RNCNvNtNtNtCseriWsCb5ev6_4koan7machine7execute4lift24expression_borrows_arena0B9_
FN:183,_RNCNvNtNtNtCseriWsCb5ev6_4koan7machine7execute4lift27kfuture_borrows_dying_arena0B9_
FN:149,_RNvNtNtNtCseriWsCb5ev6_4koan7machine7execute4lift10needs_lift
FN:16,_RNvNtNtNtCseriWsCb5ev6_4koan7machine7execute4lift12lift_kobject
FN:190,_RNvNtNtNtCseriWsCb5ev6_4koan7machine7execute4lift18part_borrows_arena
FN:209,_RNvNtNtNtCseriWsCb5ev6_4koan7machine7execute4lift21kobject_borrows_arena
FN:12,_RNvNtNtNtCseriWsCb5ev6_4koan7machine7execute4lift21lift_kobject_for_test
FN:186,_RNvNtNtNtCseriWsCb5ev6_4koan7machine7execute4lift24expression_borrows_arena
FN:173,_RNvNtNtNtCseriWsCb5ev6_4koan7machine7execute4lift27kfuture_borrows_dying_arena
FNDA:0,_RINvNtNtNtCscUx3zdyuqfq_4koan7machine7execute4lift14any_descendantNCNvB2_10needs_lift0EB8_
FNDA:0,_RINvNtNtNtCscUx3zdyuqfq_4koan7machine7execute4lift14any_descendantNCNvB2_21kobject_borrows_arena0EB8_
FNDA:0,_RNCINvNtNtNtCscUx3zdyuqfq_4koan7machine7execute4lift14any_descendantNCNvB4_10needs_lift0E0Ba_
FNDA:0,_RNCINvNtNtNtCscUx3zdyuqfq_4koan7machine7execute4lift14any_descendantNCNvB4_10needs_lift0Es0_0Ba_
FNDA:0,_RNCINvNtNtNtCscUx3zdyuqfq_4koan7machine7execute4lift14any_descendantNCNvB4_10needs_lift0Es1_0Ba_
FNDA:0,_RNCINvNtNtNtCscUx3zdyuqfq_4koan7machine7execute4lift14any_descendantNCNvB4_10needs_lift0Es_0Ba_
FNDA:0,_RNCINvNtNtNtCscUx3zdyuqfq_4koan7machine7execute4lift14any_descendantNCNvB4_21kobject_borrows_arena0E0Ba_
FNDA:0,_RNCINvNtNtNtCscUx3zdyuqfq_4koan7machine7execute4lift14any_descendantNCNvB4_21kobject_borrows_arena0Es0_0Ba_
FNDA:0,_RNCINvNtNtNtCscUx3zdyuqfq_4koan7machine7execute4lift14any_descendantNCNvB4_21kobject_borrows_arena0Es1_0Ba_
FNDA:0,_RNCINvNtNtNtCscUx3zdyuqfq_4koan7machine7execute4lift14any_descendantNCNvB4_21kobject_borrows_arena0Es_0Ba_
FNDA:0,_RNCNCINvNtNtNtCscUx3zdyuqfq_4koan7machine7execute4lift14any_descendantNCNvB6_10needs_lift0Es1_00Bc_
FNDA:0,_RNCNCINvNtNtNtCscUx3zdyuqfq_4koan7machine7execute4lift14any_descendantNCNvB6_21kobject_borrows_arena0Es1_00Bc_
FNDA:0,_RNCNvNtNtNtCscUx3zdyuqfq_4koan7machine7execute4lift10needs_lift0B9_
FNDA:0,_RNCNvNtNtNtCscUx3zdyuqfq_4koan7machine7execute4lift12lift_kobject0B9_
FNDA:0,_RNCNvNtNtNtCscUx3zdyuqfq_4koan7machine7execute4lift12lift_kobjects0_0B9_
FNDA:0,_RNCNvNtNtNtCscUx3zdyuqfq_4koan7machine7execute4lift12lift_kobjects1_0B9_
FNDA:0,_RNCNvNtNtNtCscUx3zdyuqfq_4koan7machine7execute4lift12lift_kobjects_0B9_
FNDA:0,_RNCNvNtNtNtCscUx3zdyuqfq_4koan7machine7execute4lift18part_borrows_arena0B9_
FNDA:0,_RNCNvNtNtNtCscUx3zdyuqfq_4koan7machine7execute4lift18part_borrows_arenas_0B9_
FNDA:0,_RNCNvNtNtNtCscUx3zdyuqfq_4koan7machine7execute4lift21kobject_borrows_arena0B9_
FNDA:0,_RNCNvNtNtNtCscUx3zdyuqfq_4koan7machine7execute4lift24expression_borrows_arena0B9_
FNDA:0,_RNCNvNtNtNtCscUx3zdyuqfq_4koan7machine7execute4lift27kfuture_borrows_dying_arena0B9_
FNDA:0,_RNvNtNtNtCscUx3zdyuqfq_4koan7machine7execute4lift10needs_lift
FNDA:15,_RNvNtNtNtCscUx3zdyuqfq_4koan7machine7execute4lift12lift_kobject
FNDA:0,_RNvNtNtNtCscUx3zdyuqfq_4koan7machine7execute4lift18part_borrows_arena
FNDA:0,_RNvNtNtNtCscUx3zdyuqfq_4koan7machine7execute4lift21kobject_borrows_arena
FNDA:0,_RNvNtNtNtCscUx3zdyuqfq_4koan7machine7execute4lift24expression_borrows_arena
FNDA:0,_RNvNtNtNtCscUx3zdyuqfq_4koan7machine7execute4lift27kfuture_borrows_dying_arena
FNDA:22,_RINvNtNtNtCseriWsCb5ev6_4koan7machine7execute4lift14any_descendantNCNvB2_10needs_lift0EB8_
FNDA:14,_RINvNtNtNtCseriWsCb5ev6_4koan7machine7execute4lift14any_descendantNCNvB2_21kobject_borrows_arena0EB8_
FNDA:0,_RNCINvNtNtNtCseriWsCb5ev6_4koan7machine7execute4lift14any_descendantNCNvB4_10needs_lift0E0Ba_
FNDA:0,_RNCINvNtNtNtCseriWsCb5ev6_4koan7machine7execute4lift14any_descendantNCNvB4_10needs_lift0Es0_0Ba_
FNDA:0,_RNCINvNtNtNtCseriWsCb5ev6_4koan7machine7execute4lift14any_descendantNCNvB4_10needs_lift0Es1_0Ba_
FNDA:1,_RNCINvNtNtNtCseriWsCb5ev6_4koan7machine7execute4lift14any_descendantNCNvB4_10needs_lift0Es_0Ba_
FNDA:1,_RNCINvNtNtNtCseriWsCb5ev6_4koan7machine7execute4lift14any_descendantNCNvB4_21kobject_borrows_arena0E0Ba_
FNDA:1,_RNCINvNtNtNtCseriWsCb5ev6_4koan7machine7execute4lift14any_descendantNCNvB4_21kobject_borrows_arena0Es0_0Ba_
FNDA:0,_RNCINvNtNtNtCseriWsCb5ev6_4koan7machine7execute4lift14any_descendantNCNvB4_21kobject_borrows_arena0Es1_0Ba_
FNDA:0,_RNCINvNtNtNtCseriWsCb5ev6_4koan7machine7execute4lift14any_descendantNCNvB4_21kobject_borrows_arena0Es_0Ba_
FNDA:0,_RNCNCINvNtNtNtCseriWsCb5ev6_4koan7machine7execute4lift14any_descendantNCNvB6_10needs_lift0Es1_00Bc_
FNDA:0,_RNCNCINvNtNtNtCseriWsCb5ev6_4koan7machine7execute4lift14any_descendantNCNvB6_21kobject_borrows_arena0Es1_00Bc_
FNDA:2,_RNCNvNtNtNtCseriWsCb5ev6_4koan7machine7execute4lift10needs_lift0B9_
FNDA:14,_RNCNvNtNtNtCseriWsCb5ev6_4koan7machine7execute4lift12lift_kobject0B9_
FNDA:3,_RNCNvNtNtNtCseriWsCb5ev6_4koan7machine7execute4lift12lift_kobjects0_0B9_
FNDA:2,_RNCNvNtNtNtCseriWsCb5ev6_4koan7machine7execute4lift12lift_kobjects1_0B9_
FNDA:5,_RNCNvNtNtNtCseriWsCb5ev6_4koan7machine7execute4lift12lift_kobjects_0B9_
FNDA:1,_RNCNvNtNtNtCseriWsCb5ev6_4koan7machine7execute4lift18part_borrows_arena0B9_
FNDA:1,_RNCNvNtNtNtCseriWsCb5ev6_4koan7machine7execute4lift18part_borrows_arenas_0B9_
FNDA:1,_RNCNvNtNtNtCseriWsCb5ev6_4koan7machine7execute4lift21kobject_borrows_arena0B9_
FNDA:28,_RNCNvNtNtNtCseriWsCb5ev6_4koan7machine7execute4lift24expression_borrows_arena0B9_
FNDA:12,_RNCNvNtNtNtCseriWsCb5ev6_4koan7machine7execute4lift27kfuture_borrows_dying_arena0B9_
FNDA:20,_RNvNtNtNtCseriWsCb5ev6_4koan7machine7execute4lift10needs_lift
FNDA:499,_RNvNtNtNtCseriWsCb5ev6_4koan7machine7execute4lift12lift_kobject
FNDA:31,_RNvNtNtNtCseriWsCb5ev6_4koan7machine7execute4lift18part_borrows_arena
FNDA:12,_RNvNtNtNtCseriWsCb5ev6_4koan7machine7execute4lift21kobject_borrows_arena
FNDA:1,_RNvNtNtNtCseriWsCb5ev6_4koan7machine7execute4lift21lift_kobject_for_test
FNDA:13,_RNvNtNtNtCseriWsCb5ev6_4koan7machine7execute4lift24expression_borrows_arena
FNDA:15,_RNvNtNtNtCseriWsCb5ev6_4koan7machine7execute4lift27kfuture_borrows_dying_arena
FNF:23
FNH:21
DA:12,1
DA:13,1
DA:14,1
DA:16,514
DA:17,514
DA:18,467
DA:19,47
DA:20,5
DA:21,11
DA:22,11
DA:23,1
DA:25,10
DA:26,10
DA:27,10
DA:28,9
DA:30,1
DA:33,11
DA:35,14
DA:36,14
DA:37,1
DA:38,13
DA:39,12
DA:41,1
DA:43,14
DA:47,5
DA:48,5
DA:49,1
DA:51,4
DA:52,4
DA:53,4
DA:54,3
DA:56,1
DA:59,5
DA:63,10
DA:64,14
DA:65,5
DA:66,5
DA:67,5
DA:68,5
DA:69,5
DA:71,5
DA:74,3
DA:75,3
DA:76,2
DA:77,2
DA:78,2
DA:79,2
DA:80,2
DA:82,1
DA:85,3
DA:86,3
DA:87,2
DA:88,2
DA:89,2
DA:90,2
DA:91,2
DA:92,2
DA:93,2
DA:95,1
DA:96,1
DA:97,1
DA:98,1
DA:99,1
DA:100,1
DA:101,1
DA:104,1
DA:106,514
DA:114,36
DA:115,36
DA:116,36
DA:118,36
DA:119,32
DA:120,4
DA:121,4
DA:122,1
DA:123,1
DA:124,1
DA:125,1
DA:126,1
DA:127,1
DA:128,0
DA:129,0
DA:130,0
DA:131,0
DA:132,0
DA:133,0
DA:134,0
DA:136,0
DA:137,0
DA:140,0
DA:142,36
DA:149,20
DA:150,20
DA:151,20
DA:152,3
DA:153,7
DA:154,7
DA:155,7
DA:157,1
DA:158,1
DA:159,1
DA:160,1
DA:161,1
DA:162,1
DA:164,2
DA:165,2
DA:166,4
DA:167,22
DA:168,20
DA:173,15
DA:174,15
DA:175,4
DA:176,11
DA:177,11
DA:178,4
DA:179,7
DA:180,7
DA:181,7
DA:182,7
DA:183,12
DA:184,15
DA:186,13
DA:187,28
DA:188,13
DA:190,31
DA:191,31
DA:192,5
DA:193,1
DA:196,0
DA:197,1
DA:198,1
DA:199,1
DA:200,1
DA:201,23
DA:203,31
DA:209,12
DA:210,12
DA:211,1
DA:212,1
DA:213,3
DA:214,3
DA:215,3
DA:216,3
DA:217,1
DA:218,1
DA:219,1
DA:220,1
DA:224,2
DA:225,6
DA:226,14
DA:227,12
BRF:0
BRH:0
LF:166
LH:151
end_of_record
SF:/var/home/jack/Code/koan/src/machine/execute/nodes.rs
FN:90,_RNvMNtNtNtCscUx3zdyuqfq_4koan7machine7execute5nodesNtB2_8NodeWork8dispatch
FN:152,_RNvNtNtNtCscUx3zdyuqfq_4koan7machine7execute5nodes19work_park_producers
FN:137,_RNvNtNtNtCscUx3zdyuqfq_4koan7machine7execute5nodes9work_deps
FN:90,_RNvMNtNtNtCseriWsCb5ev6_4koan7machine7execute5nodesNtB2_8NodeWork8dispatch
FN:152,_RNvNtNtNtCseriWsCb5ev6_4koan7machine7execute5nodes19work_park_producers
FN:137,_RNvNtNtNtCseriWsCb5ev6_4koan7machine7execute5nodes9work_deps
FN:171,_RNvNtNtNtNtCseriWsCb5ev6_4koan7machine7execute5nodes5testss_33work_deps_lift_ready_returns_none
FN:165,_RNvNtNtNtNtCseriWsCb5ev6_4koan7machine7execute5nodes5testss_40work_deps_lift_pending_returns_from_node
FNDA:198,_RNvMNtNtNtCscUx3zdyuqfq_4koan7machine7execute5nodesNtB2_8NodeWork8dispatch
FNDA:458,_RNvNtNtNtCscUx3zdyuqfq_4koan7machine7execute5nodes19work_park_producers
FNDA:229,_RNvNtNtNtCscUx3zdyuqfq_4koan7machine7execute5nodes9work_deps
FNDA:2268,_RNvMNtNtNtCseriWsCb5ev6_4koan7machine7execute5nodesNtB2_8NodeWork8dispatch
FNDA:4386,_RNvNtNtNtCseriWsCb5ev6_4koan7machine7execute5nodes19work_park_producers
FNDA:2195,_RNvNtNtNtCseriWsCb5ev6_4koan7machine7execute5nodes9work_deps
FNDA:1,_RNvNtNtNtNtCseriWsCb5ev6_4koan7machine7execute5nodes5testss_33work_deps_lift_ready_returns_none
FNDA:1,_RNvNtNtNtNtCseriWsCb5ev6_4koan7machine7execute5nodes5testss_40work_deps_lift_pending_returns_from_node
FNF:5
FNH:5
DA:90,2466
DA:91,2466
DA:92,2466
DA:93,2466
DA:94,2466
DA:95,2466
DA:137,2424
DA:138,3
DA:141,2018
DA:142,378
DA:143,25
DA:144,2
DA:145,1
DA:147,2424
DA:152,4844
DA:153,4844
DA:154,756
DA:155,4088
DA:157,4844
DA:165,1
DA:166,1
DA:167,1
DA:168,1
DA:171,1
DA:172,1
DA:173,1
DA:174,1
DA:175,1
DA:176,1
BRF:0
BRH:0
LF:29
LH:29
end_of_record
SF:/var/home/jack/Code/koan/src/machine/execute/scheduler.rs
FN:205,_RNvMNtNtNtCscUx3zdyuqfq_4koan7machine7execute9schedulerNtB2_9Scheduler11chain_deref
FN:140,_RNvMNtNtNtCscUx3zdyuqfq_4koan7machine7execute9schedulerNtB2_9Scheduler11read_result
FN:159,_RNvMNtNtNtCscUx3zdyuqfq_4koan7machine7execute9schedulerNtB2_9Scheduler13add_park_edge
FN:170,_RNvMNtNtNtCscUx3zdyuqfq_4koan7machine7execute9schedulerNtB2_9Scheduler14add_owned_edge
FN:97,_RNvMNtNtNtCscUx3zdyuqfq_4koan7machine7execute9schedulerNtB2_9Scheduler14exit_slot_step
FN:190,_RNvMNtNtNtCscUx3zdyuqfq_4koan7machine7execute9schedulerNtB2_9Scheduler15clear_dep_edges
FN:76,_RNvMNtNtNtCscUx3zdyuqfq_4koan7machine7execute9schedulerNtB2_9Scheduler15enter_slot_step
FN:134,_RNvMNtNtNtCscUx3zdyuqfq_4koan7machine7execute9schedulerNtB2_9Scheduler15is_result_ready
FN:196,_RNvMNtNtNtCscUx3zdyuqfq_4koan7machine7execute9schedulerNtB2_9Scheduler17take_recent_wakes
FN:211,_RNvMNtNtNtCscUx3zdyuqfq_4koan7machine7execute9schedulerNtB2_9Scheduler18active_chain_clone
FN:218,_RNvMNtNtNtCscUx3zdyuqfq_4koan7machine7execute9schedulerNtB2_9Scheduler18active_frame_clone
FN:180,_RNvMNtNtNtCscUx3zdyuqfq_4koan7machine7execute9schedulerNtB2_9Scheduler18would_create_cycle
FN:225,_RNvMNtNtNtCscUx3zdyuqfq_4koan7machine7execute9schedulerNtB2_9Scheduler19active_reserve_take
FN:232,_RNvMNtNtNtCscUx3zdyuqfq_4koan7machine7execute9schedulerNtB2_9Scheduler20active_frame_replace
FN:130,_RNvMNtNtNtCscUx3zdyuqfq_4koan7machine7execute9schedulerNtB2_9Scheduler3len
FN:107,_RNvMNtNtNtCscUx3zdyuqfq_4koan7machine7execute9schedulerNtB2_9Scheduler3new
FN:145,_RNvMNtNtNtCscUx3zdyuqfq_4koan7machine7execute9schedulerNtB2_9Scheduler4read
FN:131,_RNvMNtNtNtCscUx3zdyuqfq_4koan7machine7execute9schedulerNtB2_9Scheduler8is_empty
FN:249,_RNvXs0_NtNtNtCscUx3zdyuqfq_4koan7machine7execute9schedulerNtB5_9SchedulerNtNtNtNtB9_4core9kfunction16scheduler_handle15SchedulerHandle11add_combine
FN:304,_RNvXs0_NtNtNtCscUx3zdyuqfq_4koan7machine7execute9schedulerNtB5_9SchedulerNtNtNtNtB9_4core9kfunction16scheduler_handle15SchedulerHandle11enter_block
FN:245,_RNvXs0_NtNtNtCscUx3zdyuqfq_4koan7machine7execute9schedulerNtB5_9SchedulerNtNtNtNtB9_4core9kfunction16scheduler_handle15SchedulerHandle12add_dispatch
FN:268,_RNvXs0_NtNtNtCscUx3zdyuqfq_4koan7machine7execute9schedulerNtB5_9SchedulerNtNtNtNtB9_4core9kfunction16scheduler_handle15SchedulerHandle13current_frame
FN:274,_RNvXs0_NtNtNtCscUx3zdyuqfq_4koan7machine7execute9schedulerNtB5_9SchedulerNtNtNtNtB9_4core9kfunction16scheduler_handle15SchedulerHandle17with_active_frame
FN:300,_RNvXs0_NtNtNtCscUx3zdyuqfq_4koan7machine7execute9schedulerNtB5_9SchedulerNtNtNtNtB9_4core9kfunction16scheduler_handle15SchedulerHandle21current_lexical_chain
FN:323,_RNvXs0_NtNtNtCscUx3zdyuqfq_4koan7machine7execute9schedulerNtB5_9SchedulerNtNtNtNtB9_4core9kfunction16scheduler_handle15SchedulerHandle23add_dispatch_with_chain
FN:288,_RNvXs0_NtNtNtCscUx3zdyuqfq_4koan7machine7execute9schedulerNtB5_9SchedulerNtNtNtNtB9_4core9kfunction16scheduler_handle15SchedulerHandle32try_take_reusable_frame_for_tail
FN:259,_RNvXs0_NtNtNtCscUx3zdyuqfq_4koan7machine7execute9schedulerNtB5_9SchedulerNtNtNtNtB9_4core9kfunction16scheduler_handle15SchedulerHandle9add_catch
FN:241,_RNvXs_NtNtNtCscUx3zdyuqfq_4koan7machine7execute9schedulerNtB4_9SchedulerNtNtCs27Vx93FoQ6z_4core7default7Default7default
FN:316,_RNCNvXs0_NtNtNtCscUx3zdyuqfq_4koan7machine7execute9schedulerNtB7_9SchedulerNtNtNtNtBb_4core9kfunction16scheduler_handle15SchedulerHandle11enter_block0Bd_
FN:131,_RNvMNtNtNtCseriWsCb5ev6_4koan7machine7execute9schedulerNtB2_9Scheduler8is_empty
FN:241,_RNvXs_NtNtNtCseriWsCb5ev6_4koan7machine7execute9schedulerNtB4_9SchedulerNtNtCs27Vx93FoQ6z_4core7default7Default7default
FN:316,_RNCNvXs0_NtNtNtCseriWsCb5ev6_4koan7machine7execute9schedulerNtB7_9SchedulerNtNtNtNtBb_4core9kfunction16scheduler_handle15SchedulerHandle11enter_block0Bd_
FN:205,_RNvMNtNtNtCseriWsCb5ev6_4koan7machine7execute9schedulerNtB2_9Scheduler11chain_deref
FN:140,_RNvMNtNtNtCseriWsCb5ev6_4koan7machine7execute9schedulerNtB2_9Scheduler11read_result
FN:159,_RNvMNtNtNtCseriWsCb5ev6_4koan7machine7execute9schedulerNtB2_9Scheduler13add_park_edge
FN:170,_RNvMNtNtNtCseriWsCb5ev6_4koan7machine7execute9schedulerNtB2_9Scheduler14add_owned_edge
FN:97,_RNvMNtNtNtCseriWsCb5ev6_4koan7machine7execute9schedulerNtB2_9Scheduler14exit_slot_step
FN:190,_RNvMNtNtNtCseriWsCb5ev6_4koan7machine7execute9schedulerNtB2_9Scheduler15clear_dep_edges
FN:76,_RNvMNtNtNtCseriWsCb5ev6_4koan7machine7execute9schedulerNtB2_9Scheduler15enter_slot_step
FN:134,_RNvMNtNtNtCseriWsCb5ev6_4koan7machine7execute9schedulerNtB2_9Scheduler15is_result_ready
FN:121,_RNvMNtNtNtCseriWsCb5ev6_4koan7machine7execute9schedulerNtB2_9Scheduler16tail_reuse_count
FN:196,_RNvMNtNtNtCseriWsCb5ev6_4koan7machine7execute9schedulerNtB2_9Scheduler17take_recent_wakes
FN:211,_RNvMNtNtNtCseriWsCb5ev6_4koan7machine7execute9schedulerNtB2_9Scheduler18active_chain_clone
FN:218,_RNvMNtNtNtCseriWsCb5ev6_4koan7machine7execute9schedulerNtB2_9Scheduler18active_frame_clone
FN:180,_RNvMNtNtNtCseriWsCb5ev6_4koan7machine7execute9schedulerNtB2_9Scheduler18would_create_cycle
FN:225,_RNvMNtNtNtCseriWsCb5ev6_4koan7machine7execute9schedulerNtB2_9Scheduler19active_reserve_take
FN:232,_RNvMNtNtNtCseriWsCb5ev6_4koan7machine7execute9schedulerNtB2_9Scheduler20active_frame_replace
FN:130,_RNvMNtNtNtCseriWsCb5ev6_4koan7machine7execute9schedulerNtB2_9Scheduler3len
FN:107,_RNvMNtNtNtCseriWsCb5ev6_4koan7machine7execute9schedulerNtB2_9Scheduler3new
FN:145,_RNvMNtNtNtCseriWsCb5ev6_4koan7machine7execute9schedulerNtB2_9Scheduler4read
FN:126,_RNvMNtNtNtCseriWsCb5ev6_4koan7machine7execute9schedulerNtB2_9Scheduler8chain_of
FN:249,_RNvXs0_NtNtNtCseriWsCb5ev6_4koan7machine7execute9schedulerNtB5_9SchedulerNtNtNtNtB9_4core9kfunction16scheduler_handle15SchedulerHandle11add_combine
FN:304,_RNvXs0_NtNtNtCseriWsCb5ev6_4koan7machine7execute9schedulerNtB5_9SchedulerNtNtNtNtB9_4core9kfunction16scheduler_handle15SchedulerHandle11enter_block
FN:245,_RNvXs0_NtNtNtCseriWsCb5ev6_4koan7machine7execute9schedulerNtB5_9SchedulerNtNtNtNtB9_4core9kfunction16scheduler_handle15SchedulerHandle12add_dispatch
FN:268,_RNvXs0_NtNtNtCseriWsCb5ev6_4koan7machine7execute9schedulerNtB5_9SchedulerNtNtNtNtB9_4core9kfunction16scheduler_handle15SchedulerHandle13current_frame
FN:274,_RNvXs0_NtNtNtCseriWsCb5ev6_4koan7machine7execute9schedulerNtB5_9SchedulerNtNtNtNtB9_4core9kfunction16scheduler_handle15SchedulerHandle17with_active_frame
FN:300,_RNvXs0_NtNtNtCseriWsCb5ev6_4koan7machine7execute9schedulerNtB5_9SchedulerNtNtNtNtB9_4core9kfunction16scheduler_handle15SchedulerHandle21current_lexical_chain
FN:323,_RNvXs0_NtNtNtCseriWsCb5ev6_4koan7machine7execute9schedulerNtB5_9SchedulerNtNtNtNtB9_4core9kfunction16scheduler_handle15SchedulerHandle23add_dispatch_with_chain
FN:288,_RNvXs0_NtNtNtCseriWsCb5ev6_4koan7machine7execute9schedulerNtB5_9SchedulerNtNtNtNtB9_4core9kfunction16scheduler_handle15SchedulerHandle32try_take_reusable_frame_for_tail
FN:259,_RNvXs0_NtNtNtCseriWsCb5ev6_4koan7machine7execute9schedulerNtB5_9SchedulerNtNtNtNtB9_4core9kfunction16scheduler_handle15SchedulerHandle9add_catch
FNDA:436,_RNvMNtNtNtCscUx3zdyuqfq_4koan7machine7execute9schedulerNtB2_9Scheduler11chain_deref
FNDA:125,_RNvMNtNtNtCscUx3zdyuqfq_4koan7machine7execute9schedulerNtB2_9Scheduler11read_result
FNDA:18,_RNvMNtNtNtCscUx3zdyuqfq_4koan7machine7execute9schedulerNtB2_9Scheduler13add_park_edge
FNDA:37,_RNvMNtNtNtCscUx3zdyuqfq_4koan7machine7execute9schedulerNtB2_9Scheduler14add_owned_edge
FNDA:332,_RNvMNtNtNtCscUx3zdyuqfq_4koan7machine7execute9schedulerNtB2_9Scheduler14exit_slot_step
FNDA:34,_RNvMNtNtNtCscUx3zdyuqfq_4koan7machine7execute9schedulerNtB2_9Scheduler15clear_dep_edges
FNDA:336,_RNvMNtNtNtCscUx3zdyuqfq_4koan7machine7execute9schedulerNtB2_9Scheduler15enter_slot_step
FNDA:155,_RNvMNtNtNtCscUx3zdyuqfq_4koan7machine7execute9schedulerNtB2_9Scheduler15is_result_ready
FNDA:240,_RNvMNtNtNtCscUx3zdyuqfq_4koan7machine7execute9schedulerNtB2_9Scheduler17take_recent_wakes
FNDA:161,_RNvMNtNtNtCscUx3zdyuqfq_4koan7machine7execute9schedulerNtB2_9Scheduler18active_chain_clone
FNDA:33,_RNvMNtNtNtCscUx3zdyuqfq_4koan7machine7execute9schedulerNtB2_9Scheduler18active_frame_clone
FNDA:18,_RNvMNtNtNtCscUx3zdyuqfq_4koan7machine7execute9schedulerNtB2_9Scheduler18would_create_cycle
FNDA:33,_RNvMNtNtNtCscUx3zdyuqfq_4koan7machine7execute9schedulerNtB2_9Scheduler19active_reserve_take
FNDA:0,_RNvMNtNtNtCscUx3zdyuqfq_4koan7machine7execute9schedulerNtB2_9Scheduler20active_frame_replace
FNDA:0,_RNvMNtNtNtCscUx3zdyuqfq_4koan7machine7execute9schedulerNtB2_9Scheduler3len
FNDA:40,_RNvMNtNtNtCscUx3zdyuqfq_4koan7machine7execute9schedulerNtB2_9Scheduler3new
FNDA:78,_RNvMNtNtNtCscUx3zdyuqfq_4koan7machine7execute9schedulerNtB2_9Scheduler4read
FNDA:0,_RNvMNtNtNtCscUx3zdyuqfq_4koan7machine7execute9schedulerNtB2_9Scheduler8is_empty
FNDA:0,_RNvXs0_NtNtNtCscUx3zdyuqfq_4koan7machine7execute9schedulerNtB5_9SchedulerNtNtNtNtB9_4core9kfunction16scheduler_handle15SchedulerHandle11add_combine
FNDA:53,_RNvXs0_NtNtNtCscUx3zdyuqfq_4koan7machine7execute9schedulerNtB5_9SchedulerNtNtNtNtB9_4core9kfunction16scheduler_handle15SchedulerHandle11enter_block
FNDA:0,_RNvXs0_NtNtNtCscUx3zdyuqfq_4koan7machine7execute9schedulerNtB5_9SchedulerNtNtNtNtB9_4core9kfunction16scheduler_handle15SchedulerHandle12add_dispatch
FNDA:17,_RNvXs0_NtNtNtCscUx3zdyuqfq_4koan7machine7execute9schedulerNtB5_9SchedulerNtNtNtNtB9_4core9kfunction16scheduler_handle15SchedulerHandle13current_frame
FNDA:0,_RNvXs0_NtNtNtCscUx3zdyuqfq_4koan7machine7execute9schedulerNtB5_9SchedulerNtNtNtNtB9_4core9kfunction16scheduler_handle15SchedulerHandle17with_active_frame
FNDA:111,_RNvXs0_NtNtNtCscUx3zdyuqfq_4koan7machine7execute9schedulerNtB5_9SchedulerNtNtNtNtB9_4core9kfunction16scheduler_handle15SchedulerHandle21current_lexical_chain
FNDA:94,_RNvXs0_NtNtNtCscUx3zdyuqfq_4koan7machine7execute9schedulerNtB5_9SchedulerNtNtNtNtB9_4core9kfunction16scheduler_handle15SchedulerHandle23add_dispatch_with_chain
FNDA:7,_RNvXs0_NtNtNtCscUx3zdyuqfq_4koan7machine7execute9schedulerNtB5_9SchedulerNtNtNtNtB9_4core9kfunction16scheduler_handle15SchedulerHandle32try_take_reusable_frame_for_tail
FNDA:0,_RNvXs0_NtNtNtCscUx3zdyuqfq_4koan7machine7execute9schedulerNtB5_9SchedulerNtNtNtNtB9_4core9kfunction16scheduler_handle15SchedulerHandle9add_catch
FNDA:0,_RNvXs_NtNtNtCscUx3zdyuqfq_4koan7machine7execute9schedulerNtB4_9SchedulerNtNtCs27Vx93FoQ6z_4core7default7Default7default
FNDA:94,_RNCNvXs0_NtNtNtCscUx3zdyuqfq_4koan7machine7execute9schedulerNtB7_9SchedulerNtNtNtNtBb_4core9kfunction16scheduler_handle15SchedulerHandle11enter_block0Bd_
FNDA:0,_RNvMNtNtNtCseriWsCb5ev6_4koan7machine7execute9schedulerNtB2_9Scheduler8is_empty
FNDA:0,_RNvXs_NtNtNtCseriWsCb5ev6_4koan7machine7execute9schedulerNtB4_9SchedulerNtNtCs27Vx93FoQ6z_4core7default7Default7default
FNDA:271,_RNCNvXs0_NtNtNtCseriWsCb5ev6_4koan7machine7execute9schedulerNtB7_9SchedulerNtNtNtNtBb_4core9kfunction16scheduler_handle15SchedulerHandle11enter_block0Bd_
FNDA:3654,_RNvMNtNtNtCseriWsCb5ev6_4koan7machine7execute9schedulerNtB2_9Scheduler11chain_deref
FNDA:941,_RNvMNtNtNtCseriWsCb5ev6_4koan7machine7execute9schedulerNtB2_9Scheduler11read_result
FNDA:67,_RNvMNtNtNtCseriWsCb5ev6_4koan7machine7execute9schedulerNtB2_9Scheduler13add_park_edge
FNDA:427,_RNvMNtNtNtCseriWsCb5ev6_4koan7machine7execute9schedulerNtB2_9Scheduler14add_owned_edge
FNDA:3327,_RNvMNtNtNtCseriWsCb5ev6_4koan7machine7execute9schedulerNtB2_9Scheduler14exit_slot_step
FNDA:386,_RNvMNtNtNtCseriWsCb5ev6_4koan7machine7execute9schedulerNtB2_9Scheduler15clear_dep_edges
FNDA:3344,_RNvMNtNtNtCseriWsCb5ev6_4koan7machine7execute9schedulerNtB2_9Scheduler15enter_slot_step
FNDA:1370,_RNvMNtNtNtCseriWsCb5ev6_4koan7machine7execute9schedulerNtB2_9Scheduler15is_result_ready
FNDA:1,_RNvMNtNtNtCseriWsCb5ev6_4koan7machine7execute9schedulerNtB2_9Scheduler16tail_reuse_count
FNDA:2667,_RNvMNtNtNtCseriWsCb5ev6_4koan7machine7execute9schedulerNtB2_9Scheduler17take_recent_wakes
FNDA:1477,_RNvMNtNtNtCseriWsCb5ev6_4koan7machine7execute9schedulerNtB2_9Scheduler18active_chain_clone
FNDA:339,_RNvMNtNtNtCseriWsCb5ev6_4koan7machine7execute9schedulerNtB2_9Scheduler18active_frame_clone
FNDA:63,_RNvMNtNtNtCseriWsCb5ev6_4koan7machine7execute9schedulerNtB2_9Scheduler18would_create_cycle
FNDA:353,_RNvMNtNtNtCseriWsCb5ev6_4koan7machine7execute9schedulerNtB2_9Scheduler19active_reserve_take
FNDA:60,_RNvMNtNtNtCseriWsCb5ev6_4koan7machine7execute9schedulerNtB2_9Scheduler20active_frame_replace
FNDA:5,_RNvMNtNtNtCseriWsCb5ev6_4koan7machine7execute9schedulerNtB2_9Scheduler3len
FNDA:718,_RNvMNtNtNtCseriWsCb5ev6_4koan7machine7execute9schedulerNtB2_9Scheduler3new
FNDA:874,_RNvMNtNtNtCseriWsCb5ev6_4koan7machine7execute9schedulerNtB2_9Scheduler4read
FNDA:6,_RNvMNtNtNtCseriWsCb5ev6_4koan7machine7execute9schedulerNtB2_9Scheduler8chain_of
FNDA:0,_RNvXs0_NtNtNtCseriWsCb5ev6_4koan7machine7execute9schedulerNtB5_9SchedulerNtNtNtNtB9_4core9kfunction16scheduler_handle15SchedulerHandle11add_combine
FNDA:193,_RNvXs0_NtNtNtCseriWsCb5ev6_4koan7machine7execute9schedulerNtB5_9SchedulerNtNtNtNtB9_4core9kfunction16scheduler_handle15SchedulerHandle11enter_block
FNDA:0,_RNvXs0_NtNtNtCseriWsCb5ev6_4koan7machine7execute9schedulerNtB5_9SchedulerNtNtNtNtB9_4core9kfunction16scheduler_handle15SchedulerHandle12add_dispatch
FNDA:170,_RNvXs0_NtNtNtCseriWsCb5ev6_4koan7machine7execute9schedulerNtB5_9SchedulerNtNtNtNtB9_4core9kfunction16scheduler_handle15SchedulerHandle13current_frame
FNDA:0,_RNvXs0_NtNtNtCseriWsCb5ev6_4koan7machine7execute9schedulerNtB5_9SchedulerNtNtNtNtB9_4core9kfunction16scheduler_handle15SchedulerHandle17with_active_frame
FNDA:835,_RNvXs0_NtNtNtCseriWsCb5ev6_4koan7machine7execute9schedulerNtB5_9SchedulerNtNtNtNtB9_4core9kfunction16scheduler_handle15SchedulerHandle21current_lexical_chain
FNDA:286,_RNvXs0_NtNtNtCseriWsCb5ev6_4koan7machine7execute9schedulerNtB5_9SchedulerNtNtNtNtB9_4core9kfunction16scheduler_handle15SchedulerHandle23add_dispatch_with_chain
FNDA:293,_RNvXs0_NtNtNtCseriWsCb5ev6_4koan7machine7execute9schedulerNtB5_9SchedulerNtNtNtNtB9_4core9kfunction16scheduler_handle15SchedulerHandle32try_take_reusable_frame_for_tail
FNDA:0,_RNvXs0_NtNtNtCseriWsCb5ev6_4koan7machine7execute9schedulerNtB5_9SchedulerNtNtNtNtB9_4core9kfunction16scheduler_handle15SchedulerHandle9add_catch
FNF:31
FNH:25
DA:76,3680
DA:77,3680
DA:78,3680
DA:79,3680
DA:80,3680
DA:81,3680
DA:82,3680
DA:83,3680
DA:84,3680
DA:85,3680
DA:86,3680
DA:97,3659
DA:98,3659
DA:99,3659
DA:100,3659
DA:101,3659
DA:102,3659
DA:103,3659
DA:104,3659
DA:105,3659
DA:107,758
DA:108,758
DA:109,758
DA:110,758
DA:111,758
DA:112,758
DA:113,758
DA:114,758
DA:115,758
DA:116,758
DA:117,758
DA:118,758
DA:121,1
DA:126,6
DA:127,6
DA:128,6
DA:130,5
DA:131,0
DA:134,1525
DA:135,1525
DA:136,1525
DA:140,1066
DA:141,1066
DA:142,1066
DA:145,952
DA:146,952
DA:147,952
DA:159,85
DA:160,85
DA:161,85
DA:162,85
DA:163,85
DA:164,85
DA:165,85
DA:170,464
DA:171,464
DA:172,464
DA:173,464
DA:174,464
DA:175,464
DA:176,464
DA:180,81
DA:181,81
DA:182,81
DA:183,81
DA:184,81
DA:185,81
DA:186,81
DA:190,420
DA:191,420
DA:192,420
DA:196,2907
DA:197,2907
DA:198,2907
DA:199,2907
DA:200,2907
DA:201,2907
DA:205,4090
DA:206,4090
DA:207,4090
DA:211,1638
DA:212,1638
DA:213,1638
DA:218,372
DA:219,372
DA:220,372
DA:225,386
DA:226,386
DA:227,386
DA:232,60
DA:233,60
DA:234,60
DA:235,60
DA:236,60
DA:237,60
DA:241,0
DA:245,0
DA:246,0
DA:247,0
DA:249,0
DA:250,0
DA:251,0
DA:252,0
DA:253,0
DA:254,0
DA:255,0
DA:256,0
DA:257,0
DA:259,0
DA:260,0
DA:261,0
DA:262,0
DA:263,0
DA:264,0
DA:265,0
DA:266,0
DA:268,187
DA:269,187
DA:270,187
DA:274,0
DA:275,0
DA:276,0
DA:277,0
DA:278,0
DA:279,0
DA:280,0
DA:281,0
DA:282,0
DA:283,0
DA:288,300
DA:289,300
DA:290,13
DA:292,6
DA:293,6
DA:295,7
DA:296,7
DA:298,300
DA:300,946
DA:301,946
DA:302,946
DA:304,246
DA:305,246
DA:306,246
DA:307,246
DA:308,246
DA:309,246
DA:310,246
DA:313,246
DA:314,246
DA:315,246
DA:316,365
DA:317,365
DA:318,365
DA:319,365
DA:320,246
DA:321,246
DA:323,380
DA:324,380
DA:325,380
DA:326,380
DA:327,380
DA:328,380
DA:329,380
DA:330,380
BRF:0
BRH:0
LF:165
LH:133
end_of_record
SF:/var/home/jack/Code/koan/src/machine/execute/scheduler/dep_graph.rs
FN:165,_RNCNvMs_NtNtNtNtCscUx3zdyuqfq_4koan7machine7execute9scheduler9dep_graphNtB6_8DepGraph14owned_children0Be_
FN:21,_RNvMNtNtNtNtCscUx3zdyuqfq_4koan7machine7execute9scheduler9dep_graphNtB2_7DepEdge7node_id
FN:149,_RNvMs_NtNtNtNtCscUx3zdyuqfq_4koan7machine7execute9scheduler9dep_graphNtB4_8DepGraph12drain_notify
FN:109,_RNvMs_NtNtNtNtCscUx3zdyuqfq_4koan7machine7execute9scheduler9dep_graphNtB4_8DepGraph13add_park_edge
FN:177,_RNvMs_NtNtNtNtCscUx3zdyuqfq_4koan7machine7execute9scheduler9dep_graphNtB4_8DepGraph13pending_count
FN:94,_RNvMs_NtNtNtNtCscUx3zdyuqfq_4koan7machine7execute9scheduler9dep_graphNtB4_8DepGraph14add_owned_edge
FN:163,_RNvMs_NtNtNtNtCscUx3zdyuqfq_4koan7machine7execute9scheduler9dep_graphNtB4_8DepGraph14owned_children
FN:173,_RNvMs_NtNtNtNtCscUx3zdyuqfq_4koan7machine7execute9scheduler9dep_graphNtB4_8DepGraph15clear_dep_edges
FN:66,_RNvMs_NtNtNtNtCscUx3zdyuqfq_4koan7machine7execute9scheduler9dep_graphNtB4_8DepGraph16install_for_slot
FN:181,_RNvMs_NtNtNtNtCscUx3zdyuqfq_4koan7machine7execute9scheduler9dep_graphNtB4_8DepGraph18is_dep_edges_empty
FN:124,_RNvMs_NtNtNtNtCscUx3zdyuqfq_4koan7machine7execute9scheduler9dep_graphNtB4_8DepGraph18would_create_cycle
FN:57,_RNvMs_NtNtNtNtCscUx3zdyuqfq_4koan7machine7execute9scheduler9dep_graphNtB4_8DepGraph3new
FN:30,_RNvNtNtNtNtCscUx3zdyuqfq_4koan7machine7execute9scheduler9dep_graph16work_owned_edges
FN:21,_RNvMNtNtNtNtCseriWsCb5ev6_4koan7machine7execute9scheduler9dep_graphNtB2_7DepEdge7node_id
FN:186,_RNvMs_NtNtNtNtCseriWsCb5ev6_4koan7machine7execute9scheduler9dep_graphNtB4_8DepGraph12dep_edges_at
FN:149,_RNvMs_NtNtNtNtCseriWsCb5ev6_4koan7machine7execute9scheduler9dep_graphNtB4_8DepGraph12drain_notify
FN:109,_RNvMs_NtNtNtNtCseriWsCb5ev6_4koan7machine7execute9scheduler9dep_graphNtB4_8DepGraph13add_park_edge
FN:177,_RNvMs_NtNtNtNtCseriWsCb5ev6_4koan7machine7execute9scheduler9dep_graphNtB4_8DepGraph13pending_count
FN:191,_RNvMs_NtNtNtNtCseriWsCb5ev6_4koan7machine7execute9scheduler9dep_graphNtB4_8DepGraph13set_dep_edges
FN:94,_RNvMs_NtNtNtNtCseriWsCb5ev6_4koan7machine7execute9scheduler9dep_graphNtB4_8DepGraph14add_owned_edge
FN:163,_RNvMs_NtNtNtNtCseriWsCb5ev6_4koan7machine7execute9scheduler9dep_graphNtB4_8DepGraph14owned_children
FN:173,_RNvMs_NtNtNtNtCseriWsCb5ev6_4koan7machine7execute9scheduler9dep_graphNtB4_8DepGraph15clear_dep_edges
FN:66,_RNvMs_NtNtNtNtCseriWsCb5ev6_4koan7machine7execute9scheduler9dep_graphNtB4_8DepGraph16install_for_slot
FN:196,_RNvMs_NtNtNtNtCseriWsCb5ev6_4koan7machine7execute9scheduler9dep_graphNtB4_8DepGraph16notify_list_iter
FN:181,_RNvMs_NtNtNtNtCseriWsCb5ev6_4koan7machine7execute9scheduler9dep_graphNtB4_8DepGraph18is_dep_edges_empty
FN:124,_RNvMs_NtNtNtNtCseriWsCb5ev6_4koan7machine7execute9scheduler9dep_graphNtB4_8DepGraph18would_create_cycle
FN:57,_RNvMs_NtNtNtNtCseriWsCb5ev6_4koan7machine7execute9scheduler9dep_graphNtB4_8DepGraph3new
FN:30,_RNvNtNtNtNtCseriWsCb5ev6_4koan7machine7execute9scheduler9dep_graph16work_owned_edges
FN:165,_RNCNvMs_NtNtNtNtCseriWsCb5ev6_4koan7machine7execute9scheduler9dep_graphNtB6_8DepGraph14owned_children0Be_
FN:197,_RNCNvMs_NtNtNtNtCseriWsCb5ev6_4koan7machine7execute9scheduler9dep_graphNtB6_8DepGraph16notify_list_iter0Be_
FNDA:28,_RNCNvMs_NtNtNtNtCscUx3zdyuqfq_4koan7machine7execute9scheduler9dep_graphNtB6_8DepGraph14owned_children0Be_
FNDA:41,_RNvMNtNtNtNtCscUx3zdyuqfq_4koan7machine7execute9scheduler9dep_graphNtB2_7DepEdge7node_id
FNDA:216,_RNvMs_NtNtNtNtCscUx3zdyuqfq_4koan7machine7execute9scheduler9dep_graphNtB4_8DepGraph12drain_notify
FNDA:26,_RNvMs_NtNtNtNtCscUx3zdyuqfq_4koan7machine7execute9scheduler9dep_graphNtB4_8DepGraph13add_park_edge
FNDA:116,_RNvMs_NtNtNtNtCscUx3zdyuqfq_4koan7machine7execute9scheduler9dep_graphNtB4_8DepGraph13pending_count
FNDA:85,_RNvMs_NtNtNtNtCscUx3zdyuqfq_4koan7machine7execute9scheduler9dep_graphNtB4_8DepGraph14add_owned_edge
FNDA:91,_RNvMs_NtNtNtNtCscUx3zdyuqfq_4koan7machine7execute9scheduler9dep_graphNtB4_8DepGraph14owned_children
FNDA:81,_RNvMs_NtNtNtNtCscUx3zdyuqfq_4koan7machine7execute9scheduler9dep_graphNtB4_8DepGraph15clear_dep_edges
FNDA:229,_RNvMs_NtNtNtNtCscUx3zdyuqfq_4koan7machine7execute9scheduler9dep_graphNtB4_8DepGraph16install_for_slot
FNDA:0,_RNvMs_NtNtNtNtCscUx3zdyuqfq_4koan7machine7execute9scheduler9dep_graphNtB4_8DepGraph18is_dep_edges_empty
FNDA:18,_RNvMs_NtNtNtNtCscUx3zdyuqfq_4koan7machine7execute9scheduler9dep_graphNtB4_8DepGraph18would_create_cycle
FNDA:40,_RNvMs_NtNtNtNtCscUx3zdyuqfq_4koan7machine7execute9scheduler9dep_graphNtB4_8DepGraph3new
FNDA:229,_RNvNtNtNtNtCscUx3zdyuqfq_4koan7machine7execute9scheduler9dep_graph16work_owned_edges
FNDA:352,_RNvMNtNtNtNtCseriWsCb5ev6_4koan7machine7execute9scheduler9dep_graphNtB2_7DepEdge7node_id
FNDA:4,_RNvMs_NtNtNtNtCseriWsCb5ev6_4koan7machine7execute9scheduler9dep_graphNtB4_8DepGraph12dep_edges_at
FNDA:2143,_RNvMs_NtNtNtNtCseriWsCb5ev6_4koan7machine7execute9scheduler9dep_graphNtB4_8DepGraph12drain_notify
FNDA:82,_RNvMs_NtNtNtNtCseriWsCb5ev6_4koan7machine7execute9scheduler9dep_graphNtB4_8DepGraph13add_park_edge
FNDA:1186,_RNvMs_NtNtNtNtCseriWsCb5ev6_4koan7machine7execute9scheduler9dep_graphNtB4_8DepGraph13pending_count
FNDA:6,_RNvMs_NtNtNtNtCseriWsCb5ev6_4koan7machine7execute9scheduler9dep_graphNtB4_8DepGraph13set_dep_edges
FNDA:737,_RNvMs_NtNtNtNtCseriWsCb5ev6_4koan7machine7execute9scheduler9dep_graphNtB4_8DepGraph14add_owned_edge
FNDA:905,_RNvMs_NtNtNtNtCseriWsCb5ev6_4koan7machine7execute9scheduler9dep_graphNtB4_8DepGraph14owned_children
FNDA:733,_RNvMs_NtNtNtNtCseriWsCb5ev6_4koan7machine7execute9scheduler9dep_graphNtB4_8DepGraph15clear_dep_edges
FNDA:2193,_RNvMs_NtNtNtNtCseriWsCb5ev6_4koan7machine7execute9scheduler9dep_graphNtB4_8DepGraph16install_for_slot
FNDA:1,_RNvMs_NtNtNtNtCseriWsCb5ev6_4koan7machine7execute9scheduler9dep_graphNtB4_8DepGraph16notify_list_iter
FNDA:1,_RNvMs_NtNtNtNtCseriWsCb5ev6_4koan7machine7execute9scheduler9dep_graphNtB4_8DepGraph18is_dep_edges_empty
FNDA:63,_RNvMs_NtNtNtNtCseriWsCb5ev6_4koan7machine7execute9scheduler9dep_graphNtB4_8DepGraph18would_create_cycle
FNDA:718,_RNvMs_NtNtNtNtCseriWsCb5ev6_4koan7machine7execute9scheduler9dep_graphNtB4_8DepGraph3new
FNDA:2193,_RNvNtNtNtNtCseriWsCb5ev6_4koan7machine7execute9scheduler9dep_graph16work_owned_edges
FNDA:154,_RNCNvMs_NtNtNtNtCseriWsCb5ev6_4koan7machine7execute9scheduler9dep_graphNtB6_8DepGraph14owned_children0Be_
FNDA:4,_RNCNvMs_NtNtNtNtCseriWsCb5ev6_4koan7machine7execute9scheduler9dep_graphNtB6_8DepGraph16notify_list_iter0Be_
FNF:17
FNH:17
DA:21,393
DA:22,393
DA:23,393
DA:25,393
DA:30,2422
DA:31,2422
DA:32,404
DA:33,2018
DA:35,2422
DA:57,758
DA:58,758
DA:59,758
DA:66,2422
DA:67,2422
DA:68,2422
DA:69,2422
DA:70,2422
DA:71,2422
DA:72,2422
DA:73,2422
DA:74,187
DA:75,187
DA:76,187
DA:77,187
DA:78,2235
DA:79,2235
DA:80,2235
DA:81,2235
DA:82,2235
DA:83,2235
DA:84,2235
DA:85,2422
DA:86,391
DA:87,391
DA:88,2422
DA:89,2422
DA:94,822
DA:95,822
DA:96,822
DA:97,822
DA:98,822
DA:99,822
DA:100,822
DA:101,822
DA:102,822
DA:103,822
DA:109,108
DA:110,108
DA:111,108
DA:112,108
DA:113,108
DA:114,108
DA:115,108
DA:116,108
DA:117,108
DA:118,108
DA:124,81
DA:125,81
DA:126,1
DA:127,80
DA:128,80
DA:129,80
DA:130,168
DA:131,88
DA:132,0
DA:133,88
DA:134,88
DA:135,8
DA:136,0
DA:137,8
DA:138,8
DA:141,80
DA:142,81
DA:149,2359
DA:150,2359
DA:151,2359
DA:152,2359
DA:153,1315
DA:154,1315
DA:155,1315
DA:156,1315
DA:157,2359
DA:158,2359
DA:163,996
DA:164,996
DA:165,996
DA:166,110
DA:167,72
DA:168,182
DA:169,996
DA:173,814
DA:174,814
DA:175,814
DA:177,1302
DA:178,1302
DA:179,1302
DA:181,1
DA:182,1
DA:183,1
DA:186,4
DA:187,4
DA:188,4
DA:191,6
DA:192,6
DA:193,6
DA:196,1
DA:197,4
DA:198,1
BRF:0
BRH:0
LF:110
LH:107
end_of_record
SF:/var/home/jack/Code/koan/src/machine/execute/scheduler/execute.rs
FN:205,_RNvMNtNtNtNtCscUx3zdyuqfq_4koan7machine7execute9scheduler7executeNtB4_9Scheduler13defer_to_lift
FN:184,_RNvMNtNtNtNtCscUx3zdyuqfq_4koan7machine7execute9scheduler7executeNtB4_9Scheduler4free
FN:14,_RNvMNtNtNtNtCscUx3zdyuqfq_4koan7machine7execute9scheduler7executeNtB4_9Scheduler7execute
FN:161,_RNvMNtNtNtNtCscUx3zdyuqfq_4koan7machine7execute9scheduler7executeNtB4_9Scheduler8finalize
FN:224,_RNvNtNtNtNtCscUx3zdyuqfq_4koan7machine7execute9scheduler7execute21compute_replace_chain
FN:205,_RNvMNtNtNtNtCseriWsCb5ev6_4koan7machine7execute9scheduler7executeNtB4_9Scheduler13defer_to_lift
FN:184,_RNvMNtNtNtNtCseriWsCb5ev6_4koan7machine7execute9scheduler7executeNtB4_9Scheduler4free
FN:14,_RNvMNtNtNtNtCseriWsCb5ev6_4koan7machine7execute9scheduler7executeNtB4_9Scheduler7execute
FN:161,_RNvMNtNtNtNtCseriWsCb5ev6_4koan7machine7execute9scheduler7executeNtB4_9Scheduler8finalize
FN:224,_RNvNtNtNtNtCseriWsCb5ev6_4koan7machine7execute9scheduler7execute21compute_replace_chain
FNDA:48,_RNvMNtNtNtNtCscUx3zdyuqfq_4koan7machine7execute9scheduler7executeNtB4_9Scheduler13defer_to_lift
FNDA:77,_RNvMNtNtNtNtCscUx3zdyuqfq_4koan7machine7execute9scheduler7executeNtB4_9Scheduler4free
FNDA:40,_RNvMNtNtNtNtCscUx3zdyuqfq_4koan7machine7execute9scheduler7executeNtB4_9Scheduler7execute
FNDA:216,_RNvMNtNtNtNtCscUx3zdyuqfq_4koan7machine7execute9scheduler7executeNtB4_9Scheduler8finalize
FNDA:116,_RNvNtNtNtNtCscUx3zdyuqfq_4koan7machine7execute9scheduler7execute21compute_replace_chain
FNDA:310,_RNvMNtNtNtNtCseriWsCb5ev6_4koan7machine7execute9scheduler7executeNtB4_9Scheduler13defer_to_lift
FNDA:811,_RNvMNtNtNtNtCseriWsCb5ev6_4koan7machine7execute9scheduler7executeNtB4_9Scheduler4free
FNDA:731,_RNvMNtNtNtNtCseriWsCb5ev6_4koan7machine7execute9scheduler7executeNtB4_9Scheduler7execute
FNDA:2143,_RNvMNtNtNtNtCseriWsCb5ev6_4koan7machine7execute9scheduler7executeNtB4_9Scheduler8finalize
FNDA:1186,_RNvNtNtNtNtCseriWsCb5ev6_4koan7machine7execute9scheduler7execute21compute_replace_chain
FNF:5
FNH:5
DA:14,771
DA:15,4430
DA:16,3680
DA:17,3680
DA:18,3680
DA:19,3680
DA:20,3680
DA:21,3680
DA:22,3680
DA:23,3680
DA:24,3680
DA:25,3680
DA:27,3680
DA:28,2907
DA:29,2907
DA:30,2907
DA:31,2907
DA:32,21
DA:34,378
DA:35,378
DA:37,25
DA:38,370
DA:40,3659
DA:41,3659
DA:44,3659
DA:45,3659
DA:46,2357
DA:47,2357
DA:48,473
DA:49,473
DA:50,473
DA:51,473
DA:52,473
DA:53,473
DA:54,473
DA:59,280
DA:60,280
DA:61,280
DA:63,280
DA:64,17
DA:65,17
DA:66,17
DA:67,17
DA:68,17
DA:69,17
DA:70,17
DA:71,17
DA:72,263
DA:76,263
DA:77,0
DA:78,193
DA:79,456
DA:80,456
DA:82,12
DA:83,12
DA:84,6
DA:85,6
DA:87,12
DA:89,1872
DA:90,1872
DA:91,1872
DA:95,1302
DA:96,1302
DA:97,1302
DA:98,1302
DA:99,1302
DA:101,1302
DA:102,1302
DA:103,1302
DA:104,1302
DA:105,1302
DA:106,1302
DA:107,1302
DA:109,1302
DA:110,383
DA:111,383
DA:112,383
DA:113,383
DA:114,383
DA:115,383
DA:116,383
DA:117,383
DA:118,383
DA:119,383
DA:120,383
DA:121,383
DA:122,383
DA:123,383
DA:124,383
DA:125,383
DA:126,919
DA:127,919
DA:128,919
DA:129,919
DA:130,919
DA:131,919
DA:132,919
DA:133,919
DA:134,919
DA:135,919
DA:140,1302
DA:141,447
DA:142,855
DA:149,750
DA:150,1
DA:151,749
DA:152,749
DA:153,771
DA:161,2359
DA:162,2359
DA:163,2359
DA:164,2359
DA:165,2359
DA:166,2359
DA:167,1315
DA:168,1315
DA:169,1209
DA:170,1209
DA:171,1209
DA:173,2359
DA:174,1209
DA:175,1209
DA:176,2359
DA:184,888
DA:185,888
DA:186,1886
DA:187,998
DA:188,997
DA:189,1
DA:190,996
DA:191,996
DA:192,110
DA:193,110
DA:194,996
DA:196,888
DA:205,358
DA:206,358
DA:207,358
DA:208,358
DA:209,358
DA:210,358
DA:211,358
DA:212,358
DA:213,358
DA:214,358
DA:224,1302
DA:225,1302
DA:226,1302
DA:227,1302
DA:228,1302
DA:229,1302
DA:230,1302
DA:231,1302
DA:232,927
DA:234,375
DA:235,296
DA:236,79
DA:238,1302
BRF:0
BRH:0
LF:158
LH:157
end_of_record
SF:/var/home/jack/Code/koan/src/machine/execute/scheduler/finish.rs
FN:35,_RNCNvMNtNtNtNtCscUx3zdyuqfq_4koan7machine7execute9scheduler6finishNtB6_9Scheduler11run_combine0Bc_
FN:46,_RNCNvMNtNtNtNtCscUx3zdyuqfq_4koan7machine7execute9scheduler6finishNtB6_9Scheduler11run_combines0_0Bc_
FN:44,_RNCNvMNtNtNtNtCscUx3zdyuqfq_4koan7machine7execute9scheduler6finishNtB6_9Scheduler11run_combines_0Bc_
FN:25,_RNvMNtNtNtNtCscUx3zdyuqfq_4koan7machine7execute9scheduler6finishNtB4_9Scheduler11run_combine
FN:14,_RNvMNtNtNtNtCscUx3zdyuqfq_4koan7machine7execute9scheduler6finishNtB4_9Scheduler12reclaim_deps
FN:102,_RNvMNtNtNtNtCscUx3zdyuqfq_4koan7machine7execute9scheduler6finishNtB4_9Scheduler8run_lift
FN:67,_RNvMNtNtNtNtCscUx3zdyuqfq_4koan7machine7execute9scheduler6finishNtB4_9Scheduler9run_catch
FN:25,_RNvMNtNtNtNtCseriWsCb5ev6_4koan7machine7execute9scheduler6finishNtB4_9Scheduler11run_combine
FN:14,_RNvMNtNtNtNtCseriWsCb5ev6_4koan7machine7execute9scheduler6finishNtB4_9Scheduler12reclaim_deps
FN:102,_RNvMNtNtNtNtCseriWsCb5ev6_4koan7machine7execute9scheduler6finishNtB4_9Scheduler8run_lift
FN:67,_RNvMNtNtNtNtCseriWsCb5ev6_4koan7machine7execute9scheduler6finishNtB4_9Scheduler9run_catch
FN:35,_RNCNvMNtNtNtNtCseriWsCb5ev6_4koan7machine7execute9scheduler6finishNtB6_9Scheduler11run_combine0Bc_
FN:46,_RNCNvMNtNtNtNtCseriWsCb5ev6_4koan7machine7execute9scheduler6finishNtB6_9Scheduler11run_combines0_0Bc_
FN:44,_RNCNvMNtNtNtNtCseriWsCb5ev6_4koan7machine7execute9scheduler6finishNtB6_9Scheduler11run_combines_0Bc_
FNDA:1,_RNCNvMNtNtNtNtCscUx3zdyuqfq_4koan7machine7execute9scheduler6finishNtB6_9Scheduler11run_combine0Bc_
FNDA:39,_RNCNvMNtNtNtNtCscUx3zdyuqfq_4koan7machine7execute9scheduler6finishNtB6_9Scheduler11run_combines0_0Bc_
FNDA:47,_RNCNvMNtNtNtNtCscUx3zdyuqfq_4koan7machine7execute9scheduler6finishNtB6_9Scheduler11run_combines_0Bc_
FNDA:48,_RNvMNtNtNtNtCscUx3zdyuqfq_4koan7machine7execute9scheduler6finishNtB4_9Scheduler11run_combine
FNDA:47,_RNvMNtNtNtNtCscUx3zdyuqfq_4koan7machine7execute9scheduler6finishNtB4_9Scheduler12reclaim_deps
FNDA:48,_RNvMNtNtNtNtCscUx3zdyuqfq_4koan7machine7execute9scheduler6finishNtB4_9Scheduler8run_lift
FNDA:0,_RNvMNtNtNtNtCscUx3zdyuqfq_4koan7machine7execute9scheduler6finishNtB4_9Scheduler9run_catch
FNDA:330,_RNvMNtNtNtNtCseriWsCb5ev6_4koan7machine7execute9scheduler6finishNtB4_9Scheduler11run_combine
FNDA:347,_RNvMNtNtNtNtCseriWsCb5ev6_4koan7machine7execute9scheduler6finishNtB4_9Scheduler12reclaim_deps
FNDA:322,_RNvMNtNtNtNtCseriWsCb5ev6_4koan7machine7execute9scheduler6finishNtB4_9Scheduler8run_lift
FNDA:25,_RNvMNtNtNtNtCseriWsCb5ev6_4koan7machine7execute9scheduler6finishNtB4_9Scheduler9run_catch
FNDA:8,_RNCNvMNtNtNtNtCseriWsCb5ev6_4koan7machine7execute9scheduler6finishNtB6_9Scheduler11run_combine0Bc_
FNDA:317,_RNCNvMNtNtNtNtCseriWsCb5ev6_4koan7machine7execute9scheduler6finishNtB6_9Scheduler11run_combines0_0Bc_
FNDA:331,_RNCNvMNtNtNtNtCseriWsCb5ev6_4koan7machine7execute9scheduler6finishNtB6_9Scheduler11run_combines_0Bc_
FNF:7
FNH:7
DA:14,394
DA:15,394
DA:16,394
DA:17,381
DA:18,381
DA:19,394
DA:25,378
DA:26,378
DA:27,378
DA:28,378
DA:29,378
DA:30,378
DA:31,378
DA:32,378
DA:35,378
DA:36,388
DA:37,388
DA:38,9
DA:39,9
DA:40,9
DA:41,379
DA:44,378
DA:45,369
DA:46,369
DA:47,369
DA:48,369
DA:49,369
DA:50,363
DA:51,0
DA:52,0
DA:53,0
DA:54,0
DA:55,0
DA:56,0
DA:57,0
DA:58,0
DA:60,0
DA:61,6
DA:63,378
DA:67,25
DA:68,25
DA:69,25
DA:70,25
DA:71,25
DA:72,25
DA:73,25
DA:74,25
DA:75,12
DA:78,13
DA:80,25
DA:81,25
DA:82,25
DA:83,8
DA:84,13
DA:85,13
DA:86,13
DA:87,13
DA:88,13
DA:89,13
DA:90,13
DA:91,13
DA:93,0
DA:94,4
DA:96,25
DA:102,370
DA:103,370
DA:104,370
DA:105,0
DA:109,370
BRF:0
BRH:0
LF:72
LH:61
end_of_record
SF:/var/home/jack/Code/koan/src/machine/execute/scheduler/literal.rs
FN:24,_RNvMNtNtNtNtCscUx3zdyuqfq_4koan7machine7execute9scheduler7literalNtB2_4Slot11materialize
FN:69,_RNvMs_NtNtNtNtCscUx3zdyuqfq_4koan7machine7execute9scheduler7literalNtB6_9Scheduler21schedule_dict_literal
FN:34,_RNvMs_NtNtNtNtCscUx3zdyuqfq_4koan7machine7execute9scheduler7literalNtB6_9Scheduler21schedule_list_literal
FN:119,_RNvMs_NtNtNtNtCscUx3zdyuqfq_4koan7machine7execute9scheduler7literalNtB6_9Scheduler23classify_aggregate_part
FN:163,_RNvMs_NtNtNtNtCscUx3zdyuqfq_4koan7machine7execute9scheduler7literalNtB6_9Scheduler27resolve_aggregate_bare_name
FN:57,_RNCNCNvMs_NtNtNtNtCscUx3zdyuqfq_4koan7machine7execute9scheduler7literalNtBa_9Scheduler21schedule_list_literal00Bg_
FN:94,_RNCNvMs_NtNtNtNtCscUx3zdyuqfq_4koan7machine7execute9scheduler7literalNtB8_9Scheduler21schedule_dict_literal0Be_
FN:96,_RNCNvMs_NtNtNtNtCscUx3zdyuqfq_4koan7machine7execute9scheduler7literalNtB8_9Scheduler21schedule_dict_literals_0Be_
FN:54,_RNCNvMs_NtNtNtNtCscUx3zdyuqfq_4koan7machine7execute9scheduler7literalNtB8_9Scheduler21schedule_list_literal0Be_
FN:57,_RNCNCNvMs_NtNtNtNtCseriWsCb5ev6_4koan7machine7execute9scheduler7literalNtBa_9Scheduler21schedule_list_literal00Bg_
FN:94,_RNCNvMs_NtNtNtNtCseriWsCb5ev6_4koan7machine7execute9scheduler7literalNtB8_9Scheduler21schedule_dict_literal0Be_
FN:96,_RNCNvMs_NtNtNtNtCseriWsCb5ev6_4koan7machine7execute9scheduler7literalNtB8_9Scheduler21schedule_dict_literals_0Be_
FN:54,_RNCNvMs_NtNtNtNtCseriWsCb5ev6_4koan7machine7execute9scheduler7literalNtB8_9Scheduler21schedule_list_literal0Be_
FN:24,_RNvMNtNtNtNtCseriWsCb5ev6_4koan7machine7execute9scheduler7literalNtB2_4Slot11materialize
FN:69,_RNvMs_NtNtNtNtCseriWsCb5ev6_4koan7machine7execute9scheduler7literalNtB6_9Scheduler21schedule_dict_literal
FN:34,_RNvMs_NtNtNtNtCseriWsCb5ev6_4koan7machine7execute9scheduler7literalNtB6_9Scheduler21schedule_list_literal
FN:119,_RNvMs_NtNtNtNtCseriWsCb5ev6_4koan7machine7execute9scheduler7literalNtB6_9Scheduler23classify_aggregate_part
FN:163,_RNvMs_NtNtNtNtCseriWsCb5ev6_4koan7machine7execute9scheduler7literalNtB6_9Scheduler27resolve_aggregate_bare_name
FNDA:2,_RNvMNtNtNtNtCscUx3zdyuqfq_4koan7machine7execute9scheduler7literalNtB2_4Slot11materialize
FNDA:1,_RNvMs_NtNtNtNtCscUx3zdyuqfq_4koan7machine7execute9scheduler7literalNtB6_9Scheduler21schedule_dict_literal
FNDA:0,_RNvMs_NtNtNtNtCscUx3zdyuqfq_4koan7machine7execute9scheduler7literalNtB6_9Scheduler21schedule_list_literal
FNDA:2,_RNvMs_NtNtNtNtCscUx3zdyuqfq_4koan7machine7execute9scheduler7literalNtB6_9Scheduler23classify_aggregate_part
FNDA:1,_RNvMs_NtNtNtNtCscUx3zdyuqfq_4koan7machine7execute9scheduler7literalNtB6_9Scheduler27resolve_aggregate_bare_name
FNDA:0,_RNCNCNvMs_NtNtNtNtCscUx3zdyuqfq_4koan7machine7execute9scheduler7literalNtBa_9Scheduler21schedule_list_literal00Bg_
FNDA:0,_RNCNvMs_NtNtNtNtCscUx3zdyuqfq_4koan7machine7execute9scheduler7literalNtB8_9Scheduler21schedule_dict_literal0Be_
FNDA:1,_RNCNvMs_NtNtNtNtCscUx3zdyuqfq_4koan7machine7execute9scheduler7literalNtB8_9Scheduler21schedule_dict_literals_0Be_
FNDA:0,_RNCNvMs_NtNtNtNtCscUx3zdyuqfq_4koan7machine7execute9scheduler7literalNtB8_9Scheduler21schedule_list_literal0Be_
FNDA:82,_RNCNCNvMs_NtNtNtNtCseriWsCb5ev6_4koan7machine7execute9scheduler7literalNtBa_9Scheduler21schedule_list_literal00Bg_
FNDA:1,_RNCNvMs_NtNtNtNtCseriWsCb5ev6_4koan7machine7execute9scheduler7literalNtB8_9Scheduler21schedule_dict_literal0Be_
FNDA:13,_RNCNvMs_NtNtNtNtCseriWsCb5ev6_4koan7machine7execute9scheduler7literalNtB8_9Scheduler21schedule_dict_literals_0Be_
FNDA:38,_RNCNvMs_NtNtNtNtCseriWsCb5ev6_4koan7machine7execute9scheduler7literalNtB8_9Scheduler21schedule_list_literal0Be_
FNDA:118,_RNvMNtNtNtNtCseriWsCb5ev6_4koan7machine7execute9scheduler7literalNtB2_4Slot11materialize
FNDA:14,_RNvMs_NtNtNtNtCseriWsCb5ev6_4koan7machine7execute9scheduler7literalNtB6_9Scheduler21schedule_dict_literal
FNDA:38,_RNvMs_NtNtNtNtCseriWsCb5ev6_4koan7machine7execute9scheduler7literalNtB6_9Scheduler21schedule_list_literal
FNDA:120,_RNvMs_NtNtNtNtCseriWsCb5ev6_4koan7machine7execute9scheduler7literalNtB6_9Scheduler23classify_aggregate_part
FNDA:2,_RNvMs_NtNtNtNtCseriWsCb5ev6_4koan7machine7execute9scheduler7literalNtB6_9Scheduler27resolve_aggregate_bare_name
FNF:9
FNH:9
DA:24,120
DA:25,120
DA:26,109
DA:27,0
DA:28,11
DA:30,120
DA:34,38
DA:35,38
DA:36,38
DA:37,38
DA:38,38
DA:39,38
DA:40,38
DA:41,38
DA:42,82
DA:43,82
DA:44,82
DA:45,82
DA:46,82
DA:47,82
DA:48,82
DA:49,82
DA:50,82
DA:51,82
DA:52,82
DA:53,38
DA:54,38
DA:55,38
DA:56,38
DA:57,82
DA:58,38
DA:59,38
DA:60,38
DA:61,38
DA:62,38
DA:63,38
DA:64,38
DA:69,15
DA:70,15
DA:71,15
DA:72,15
DA:73,15
DA:74,15
DA:75,15
DA:76,15
DA:77,20
DA:78,20
DA:79,20
DA:80,20
DA:81,20
DA:82,20
DA:83,20
DA:84,20
DA:85,20
DA:86,20
DA:87,20
DA:88,20
DA:89,20
DA:90,20
DA:91,20
DA:92,20
DA:93,20
DA:94,15
DA:95,15
DA:96,15
DA:97,14
DA:98,19
DA:99,19
DA:100,19
DA:101,19
DA:102,18
DA:103,1
DA:104,1
DA:105,1
DA:107,18
DA:109,13
DA:110,13
DA:111,13
DA:112,14
DA:113,15
DA:114,15
DA:119,122
DA:120,122
DA:121,122
DA:122,122
DA:123,122
DA:124,122
DA:125,122
DA:126,122
DA:127,3
DA:128,4
DA:129,4
DA:130,4
DA:131,4
DA:132,4
DA:134,2
DA:135,2
DA:136,2
DA:137,2
DA:138,2
DA:140,5
DA:141,5
DA:142,5
DA:143,5
DA:144,5
DA:146,3
DA:147,3
DA:149,0
DA:150,0
DA:151,0
DA:153,0
DA:155,108
DA:157,122
DA:163,3
DA:164,3
DA:165,3
DA:166,3
DA:167,3
DA:168,3
DA:169,3
DA:170,3
DA:171,2
DA:172,0
DA:173,0
DA:174,0
DA:175,0
DA:180,1
DA:181,1
DA:183,1
DA:184,1
DA:185,1
DA:186,1
DA:189,3
BRF:0
BRH:0
LF:137
LH:128
end_of_record
SF:/var/home/jack/Code/koan/src/machine/execute/scheduler/node_store.rs
FN:85,_RNvMs1_NtNtNtNtCscUx3zdyuqfq_4koan7machine7execute9scheduler10node_storeNtB5_9NodeStore10alloc_slot
FN:177,_RNvMs1_NtNtNtNtCscUx3zdyuqfq_4koan7machine7execute9scheduler10node_storeNtB5_9NodeStore10unresolved
FN:158,_RNvMs1_NtNtNtNtCscUx3zdyuqfq_4koan7machine7execute9scheduler10node_storeNtB5_9NodeStore11read_result
FN:226,_RNvMs1_NtNtNtNtCscUx3zdyuqfq_4koan7machine7execute9scheduler10node_storeNtB5_9NodeStore12is_reclaimed
FN:103,_RNvMs1_NtNtNtNtCscUx3zdyuqfq_4koan7machine7execute9scheduler10node_storeNtB5_9NodeStore12take_for_run
FN:152,_RNvMs1_NtNtNtNtCscUx3zdyuqfq_4koan7machine7execute9scheduler10node_storeNtB5_9NodeStore15is_result_ready
FN:258,_RNvMs1_NtNtNtNtCscUx3zdyuqfq_4koan7machine7execute9scheduler10node_storeNtB5_9NodeStore16push_recent_wake
FN:233,_RNvMs1_NtNtNtNtCscUx3zdyuqfq_4koan7machine7execute9scheduler10node_storeNtB5_9NodeStore16stamp_lift_ready
FN:273,_RNvMs1_NtNtNtNtCscUx3zdyuqfq_4koan7machine7execute9scheduler10node_storeNtB5_9NodeStore17take_recent_wakes
FN:118,_RNvMs1_NtNtNtNtCscUx3zdyuqfq_4koan7machine7execute9scheduler10node_storeNtB5_9NodeStore20reinstall_with_frame
FN:211,_RNvMs1_NtNtNtNtCscUx3zdyuqfq_4koan7machine7execute9scheduler10node_storeNtB5_9NodeStore3len
FN:74,_RNvMs1_NtNtNtNtCscUx3zdyuqfq_4koan7machine7execute9scheduler10node_storeNtB5_9NodeStore3new
FN:166,_RNvMs1_NtNtNtNtCscUx3zdyuqfq_4koan7machine7execute9scheduler10node_storeNtB5_9NodeStore4read
FN:219,_RNvMs1_NtNtNtNtCscUx3zdyuqfq_4koan7machine7execute9scheduler10node_storeNtB5_9NodeStore7is_live
FN:139,_RNvMs1_NtNtNtNtCscUx3zdyuqfq_4koan7machine7execute9scheduler10node_storeNtB5_9NodeStore8finalize
FN:146,_RNvMs1_NtNtNtNtCscUx3zdyuqfq_4koan7machine7execute9scheduler10node_storeNtB5_9NodeStore8free_one
FN:215,_RNvMs1_NtNtNtNtCscUx3zdyuqfq_4koan7machine7execute9scheduler10node_storeNtB5_9NodeStore8is_empty
FN:111,_RNvMs1_NtNtNtNtCscUx3zdyuqfq_4koan7machine7execute9scheduler10node_storeNtB5_9NodeStore9reinstall
FN:32,_RNvMNtNtNtNtCscUx3zdyuqfq_4koan7machine7execute9scheduler10node_storeINtB2_7SlotVecINtNtCsgW8esjfipvk_5alloc3vec3VecNtNtNtNtB8_4core9kfunction16scheduler_handle6NodeIdEE3newBa_
FN:33,_RNvMNtNtNtNtCscUx3zdyuqfq_4koan7machine7execute9scheduler10node_storeINtB2_7SlotVecINtNtCsgW8esjfipvk_5alloc3vec3VecNtNtNtNtB8_4core9kfunction16scheduler_handle6NodeIdEE4pushBa_
FN:36,_RNvMNtNtNtNtCscUx3zdyuqfq_4koan7machine7execute9scheduler10node_storeINtB2_7SlotVecNtB2_9SlotStateE3getBa_
FN:34,_RNvMNtNtNtNtCscUx3zdyuqfq_4koan7machine7execute9scheduler10node_storeINtB2_7SlotVecNtB2_9SlotStateE3lenBa_
FN:32,_RNvMNtNtNtNtCscUx3zdyuqfq_4koan7machine7execute9scheduler10node_storeINtB2_7SlotVecNtB2_9SlotStateE3newBa_
FN:37,_RNvMNtNtNtNtCscUx3zdyuqfq_4koan7machine7execute9scheduler10node_storeINtB2_7SlotVecNtB2_9SlotStateE4iterBa_
FN:33,_RNvMNtNtNtNtCscUx3zdyuqfq_4koan7machine7execute9scheduler10node_storeINtB2_7SlotVecNtB2_9SlotStateE4pushBa_
FN:35,_RNvMNtNtNtNtCscUx3zdyuqfq_4koan7machine7execute9scheduler10node_storeINtB2_7SlotVecNtB2_9SlotStateE8is_emptyBa_
FN:46,_RNvXs0_NtNtNtNtCscUx3zdyuqfq_4koan7machine7execute9scheduler10node_storeINtB5_7SlotVecINtNtCsgW8esjfipvk_5alloc3vec3VecNtNtNtNtBb_4core9kfunction16scheduler_handle6NodeIdEEINtNtNtCs27Vx93FoQ6z_4core3ops5index8IndexMutB1T_E9index_mutBd_
FN:46,_RNvXs0_NtNtNtNtCscUx3zdyuqfq_4koan7machine7execute9scheduler10node_storeINtB5_7SlotVecNtB5_9SlotStateEINtNtNtCs27Vx93FoQ6z_4core3ops5index8IndexMutNtNtNtNtBb_4core9kfunction16scheduler_handle6NodeIdE9index_mutBd_
FN:42,_RNvXs_NtNtNtNtCscUx3zdyuqfq_4koan7machine7execute9scheduler10node_storeINtB4_7SlotVecNtB4_9SlotStateEINtNtNtCs27Vx93FoQ6z_4core3ops5index5IndexNtNtNtNtBa_4core9kfunction16scheduler_handle6NodeIdE5indexBc_
FN:35,_RNvMNtNtNtNtCseriWsCb5ev6_4koan7machine7execute9scheduler10node_storeINtB2_7SlotVecpE8is_emptyBa_
FN:215,_RNvMs1_NtNtNtNtCseriWsCb5ev6_4koan7machine7execute9scheduler10node_storeNtB5_9NodeStore8is_empty
FN:85,_RNvMs1_NtNtNtNtCseriWsCb5ev6_4koan7machine7execute9scheduler10node_storeNtB5_9NodeStore10alloc_slot
FN:280,_RNvMs1_NtNtNtNtCseriWsCb5ev6_4koan7machine7execute9scheduler10node_storeNtB5_9NodeStore10clear_node
FN:285,_RNvMs1_NtNtNtNtCseriWsCb5ev6_4koan7machine7execute9scheduler10node_storeNtB5_9NodeStore10set_result
FN:177,_RNvMs1_NtNtNtNtCseriWsCb5ev6_4koan7machine7execute9scheduler10node_storeNtB5_9NodeStore10unresolved
FN:158,_RNvMs1_NtNtNtNtCseriWsCb5ev6_4koan7machine7execute9scheduler10node_storeNtB5_9NodeStore11read_result
FN:226,_RNvMs1_NtNtNtNtCseriWsCb5ev6_4koan7machine7execute9scheduler10node_storeNtB5_9NodeStore12is_reclaimed
FN:103,_RNvMs1_NtNtNtNtCseriWsCb5ev6_4koan7machine7execute9scheduler10node_storeNtB5_9NodeStore12take_for_run
FN:305,_RNvMs1_NtNtNtNtCseriWsCb5ev6_4koan7machine7execute9scheduler10node_storeNtB5_9NodeStore13free_list_len
FN:295,_RNvMs1_NtNtNtNtCseriWsCb5ev6_4koan7machine7execute9scheduler10node_storeNtB5_9NodeStore14result_is_none
FN:290,_RNvMs1_NtNtNtNtCseriWsCb5ev6_4koan7machine7execute9scheduler10node_storeNtB5_9NodeStore14result_is_some
FN:152,_RNvMs1_NtNtNtNtCseriWsCb5ev6_4koan7machine7execute9scheduler10node_storeNtB5_9NodeStore15is_result_ready
FN:258,_RNvMs1_NtNtNtNtCseriWsCb5ev6_4koan7machine7execute9scheduler10node_storeNtB5_9NodeStore16push_recent_wake
FN:233,_RNvMs1_NtNtNtNtCseriWsCb5ev6_4koan7machine7execute9scheduler10node_storeNtB5_9NodeStore16stamp_lift_ready
FN:273,_RNvMs1_NtNtNtNtCseriWsCb5ev6_4koan7machine7execute9scheduler10node_storeNtB5_9NodeStore17take_recent_wakes
FN:300,_RNvMs1_NtNtNtNtCseriWsCb5ev6_4koan7machine7execute9scheduler10node_storeNtB5_9NodeStore18free_list_snapshot
FN:118,_RNvMs1_NtNtNtNtCseriWsCb5ev6_4koan7machine7execute9scheduler10node_storeNtB5_9NodeStore20reinstall_with_frame
FN:211,_RNvMs1_NtNtNtNtCseriWsCb5ev6_4koan7machine7execute9scheduler10node_storeNtB5_9NodeStore3len
FN:74,_RNvMs1_NtNtNtNtCseriWsCb5ev6_4koan7machine7execute9scheduler10node_storeNtB5_9NodeStore3new
FN:166,_RNvMs1_NtNtNtNtCseriWsCb5ev6_4koan7machine7execute9scheduler10node_storeNtB5_9NodeStore4read
FN:219,_RNvMs1_NtNtNtNtCseriWsCb5ev6_4koan7machine7execute9scheduler10node_storeNtB5_9NodeStore7is_live
FN:311,_RNvMs1_NtNtNtNtCseriWsCb5ev6_4koan7machine7execute9scheduler10node_storeNtB5_9NodeStore8chain_of
FN:139,_RNvMs1_NtNtNtNtCseriWsCb5ev6_4koan7machine7execute9scheduler10node_storeNtB5_9NodeStore8finalize
FN:146,_RNvMs1_NtNtNtNtCseriWsCb5ev6_4koan7machine7execute9scheduler10node_storeNtB5_9NodeStore8free_one
FN:111,_RNvMs1_NtNtNtNtCseriWsCb5ev6_4koan7machine7execute9scheduler10node_storeNtB5_9NodeStore9reinstall
FN:32,_RNvMNtNtNtNtCseriWsCb5ev6_4koan7machine7execute9scheduler10node_storeINtB2_7SlotVecINtNtCsgW8esjfipvk_5alloc3vec3VecNtNtNtNtB8_4core9kfunction16scheduler_handle6NodeIdEE3newBa_
FN:33,_RNvMNtNtNtNtCseriWsCb5ev6_4koan7machine7execute9scheduler10node_storeINtB2_7SlotVecINtNtCsgW8esjfipvk_5alloc3vec3VecNtNtNtNtB8_4core9kfunction16scheduler_handle6NodeIdEE4pushBa_
FN:36,_RNvMNtNtNtNtCseriWsCb5ev6_4koan7machine7execute9scheduler10node_storeINtB2_7SlotVecNtB2_9SlotStateE3getBa_
FN:34,_RNvMNtNtNtNtCseriWsCb5ev6_4koan7machine7execute9scheduler10node_storeINtB2_7SlotVecNtB2_9SlotStateE3lenBa_
FN:32,_RNvMNtNtNtNtCseriWsCb5ev6_4koan7machine7execute9scheduler10node_storeINtB2_7SlotVecNtB2_9SlotStateE3newBa_
FN:37,_RNvMNtNtNtNtCseriWsCb5ev6_4koan7machine7execute9scheduler10node_storeINtB2_7SlotVecNtB2_9SlotStateE4iterBa_
FN:33,_RNvMNtNtNtNtCseriWsCb5ev6_4koan7machine7execute9scheduler10node_storeINtB2_7SlotVecNtB2_9SlotStateE4pushBa_
FN:46,_RNvXs0_NtNtNtNtCseriWsCb5ev6_4koan7machine7execute9scheduler10node_storeINtB5_7SlotVecINtNtCsgW8esjfipvk_5alloc3vec3VecNtNtNtNtBb_4core9kfunction16scheduler_handle6NodeIdEEINtNtNtCs27Vx93FoQ6z_4core3ops5index8IndexMutB1T_E9index_mutBd_
FN:46,_RNvXs0_NtNtNtNtCseriWsCb5ev6_4koan7machine7execute9scheduler10node_storeINtB5_7SlotVecNtB5_9SlotStateEINtNtNtCs27Vx93FoQ6z_4core3ops5index8IndexMutNtNtNtNtBb_4core9kfunction16scheduler_handle6NodeIdE9index_mutBd_
FN:42,_RNvXs_NtNtNtNtCseriWsCb5ev6_4koan7machine7execute9scheduler10node_storeINtB4_7SlotVecNtB4_9SlotStateEINtNtNtCs27Vx93FoQ6z_4core3ops5index5IndexNtNtNtNtBa_4core9kfunction16scheduler_handle6NodeIdE5indexBc_
FNDA:229,_RNvMs1_NtNtNtNtCscUx3zdyuqfq_4koan7machine7execute9scheduler10node_storeNtB5_9NodeStore10alloc_slot
FNDA:36,_RNvMs1_NtNtNtNtCscUx3zdyuqfq_4koan7machine7execute9scheduler10node_storeNtB5_9NodeStore10unresolved
FNDA:203,_RNvMs1_NtNtNtNtCscUx3zdyuqfq_4koan7machine7execute9scheduler10node_storeNtB5_9NodeStore11read_result
FNDA:91,_RNvMs1_NtNtNtNtCscUx3zdyuqfq_4koan7machine7execute9scheduler10node_storeNtB5_9NodeStore12is_reclaimed
FNDA:336,_RNvMs1_NtNtNtNtCscUx3zdyuqfq_4koan7machine7execute9scheduler10node_storeNtB5_9NodeStore12take_for_run
FNDA:155,_RNvMs1_NtNtNtNtCscUx3zdyuqfq_4koan7machine7execute9scheduler10node_storeNtB5_9NodeStore15is_result_ready
FNDA:151,_RNvMs1_NtNtNtNtCscUx3zdyuqfq_4koan7machine7execute9scheduler10node_storeNtB5_9NodeStore16push_recent_wake
FNDA:145,_RNvMs1_NtNtNtNtCscUx3zdyuqfq_4koan7machine7execute9scheduler10node_storeNtB5_9NodeStore16stamp_lift_ready
FNDA:240,_RNvMs1_NtNtNtNtCscUx3zdyuqfq_4koan7machine7execute9scheduler10node_storeNtB5_9NodeStore17take_recent_wakes
FNDA:7,_RNvMs1_NtNtNtNtCscUx3zdyuqfq_4koan7machine7execute9scheduler10node_storeNtB5_9NodeStore20reinstall_with_frame
FNDA:0,_RNvMs1_NtNtNtNtCscUx3zdyuqfq_4koan7machine7execute9scheduler10node_storeNtB5_9NodeStore3len
FNDA:40,_RNvMs1_NtNtNtNtCscUx3zdyuqfq_4koan7machine7execute9scheduler10node_storeNtB5_9NodeStore3new
FNDA:78,_RNvMs1_NtNtNtNtCscUx3zdyuqfq_4koan7machine7execute9scheduler10node_storeNtB5_9NodeStore4read
FNDA:91,_RNvMs1_NtNtNtNtCscUx3zdyuqfq_4koan7machine7execute9scheduler10node_storeNtB5_9NodeStore7is_live
FNDA:216,_RNvMs1_NtNtNtNtCscUx3zdyuqfq_4koan7machine7execute9scheduler10node_storeNtB5_9NodeStore8finalize
FNDA:91,_RNvMs1_NtNtNtNtCscUx3zdyuqfq_4koan7machine7execute9scheduler10node_storeNtB5_9NodeStore8free_one
FNDA:0,_RNvMs1_NtNtNtNtCscUx3zdyuqfq_4koan7machine7execute9scheduler10node_storeNtB5_9NodeStore8is_empty
FNDA:109,_RNvMs1_NtNtNtNtCscUx3zdyuqfq_4koan7machine7execute9scheduler10node_storeNtB5_9NodeStore9reinstall
FNDA:40,_RNvMNtNtNtNtCscUx3zdyuqfq_4koan7machine7execute9scheduler10node_storeINtB2_7SlotVecINtNtCsgW8esjfipvk_5alloc3vec3VecNtNtNtNtB8_4core9kfunction16scheduler_handle6NodeIdEE3newBa_
FNDA:219,_RNvMNtNtNtNtCscUx3zdyuqfq_4koan7machine7execute9scheduler10node_storeINtB2_7SlotVecINtNtCsgW8esjfipvk_5alloc3vec3VecNtNtNtNtB8_4core9kfunction16scheduler_handle6NodeIdEE4pushBa_
FNDA:155,_RNvMNtNtNtNtCscUx3zdyuqfq_4koan7machine7execute9scheduler10node_storeINtB2_7SlotVecNtB2_9SlotStateE3getBa_
FNDA:219,_RNvMNtNtNtNtCscUx3zdyuqfq_4koan7machine7execute9scheduler10node_storeINtB2_7SlotVecNtB2_9SlotStateE3lenBa_
FNDA:40,_RNvMNtNtNtNtCscUx3zdyuqfq_4koan7machine7execute9scheduler10node_storeINtB2_7SlotVecNtB2_9SlotStateE3newBa_
FNDA:36,_RNvMNtNtNtNtCscUx3zdyuqfq_4koan7machine7execute9scheduler10node_storeINtB2_7SlotVecNtB2_9SlotStateE4iterBa_
FNDA:219,_RNvMNtNtNtNtCscUx3zdyuqfq_4koan7machine7execute9scheduler10node_storeINtB2_7SlotVecNtB2_9SlotStateE4pushBa_
FNDA:0,_RNvMNtNtNtNtCscUx3zdyuqfq_4koan7machine7execute9scheduler10node_storeINtB2_7SlotVecNtB2_9SlotStateE8is_emptyBa_
FNDA:385,_RNvXs0_NtNtNtNtCscUx3zdyuqfq_4koan7machine7execute9scheduler10node_storeINtB5_7SlotVecINtNtCsgW8esjfipvk_5alloc3vec3VecNtNtNtNtBb_4core9kfunction16scheduler_handle6NodeIdEEINtNtNtCs27Vx93FoQ6z_4core3ops5index8IndexMutB1T_E9index_mutBd_
FNDA:817,_RNvXs0_NtNtNtNtCscUx3zdyuqfq_4koan7machine7execute9scheduler10node_storeINtB5_7SlotVecNtB5_9SlotStateEINtNtNtCs27Vx93FoQ6z_4core3ops5index8IndexMutNtNtNtNtBb_4core9kfunction16scheduler_handle6NodeIdE9index_mutBd_
FNDA:729,_RNvXs_NtNtNtNtCscUx3zdyuqfq_4koan7machine7execute9scheduler10node_storeINtB4_7SlotVecNtB4_9SlotStateEINtNtNtCs27Vx93FoQ6z_4core3ops5index5IndexNtNtNtNtBa_4core9kfunction16scheduler_handle6NodeIdE5indexBc_
FNDA:0,_RNvMNtNtNtNtCseriWsCb5ev6_4koan7machine7execute9scheduler10node_storeINtB2_7SlotVecpE8is_emptyBa_
FNDA:0,_RNvMs1_NtNtNtNtCseriWsCb5ev6_4koan7machine7execute9scheduler10node_storeNtB5_9NodeStore8is_empty
FNDA:2193,_RNvMs1_NtNtNtNtCseriWsCb5ev6_4koan7machine7execute9scheduler10node_storeNtB5_9NodeStore10alloc_slot
FNDA:10,_RNvMs1_NtNtNtNtCseriWsCb5ev6_4koan7machine7execute9scheduler10node_storeNtB5_9NodeStore10clear_node
FNDA:9,_RNvMs1_NtNtNtNtCseriWsCb5ev6_4koan7machine7execute9scheduler10node_storeNtB5_9NodeStore10set_result
FNDA:714,_RNvMs1_NtNtNtNtCseriWsCb5ev6_4koan7machine7execute9scheduler10node_storeNtB5_9NodeStore10unresolved
FNDA:1815,_RNvMs1_NtNtNtNtCseriWsCb5ev6_4koan7machine7execute9scheduler10node_storeNtB5_9NodeStore11read_result
FNDA:906,_RNvMs1_NtNtNtNtCseriWsCb5ev6_4koan7machine7execute9scheduler10node_storeNtB5_9NodeStore12is_reclaimed
FNDA:3344,_RNvMs1_NtNtNtNtCseriWsCb5ev6_4koan7machine7execute9scheduler10node_storeNtB5_9NodeStore12take_for_run
FNDA:2,_RNvMs1_NtNtNtNtCseriWsCb5ev6_4koan7machine7execute9scheduler10node_storeNtB5_9NodeStore13free_list_len
FNDA:3,_RNvMs1_NtNtNtNtCseriWsCb5ev6_4koan7machine7execute9scheduler10node_storeNtB5_9NodeStore14result_is_none
FNDA:1,_RNvMs1_NtNtNtNtCseriWsCb5ev6_4koan7machine7execute9scheduler10node_storeNtB5_9NodeStore14result_is_some
FNDA:1370,_RNvMs1_NtNtNtNtCseriWsCb5ev6_4koan7machine7execute9scheduler10node_storeNtB5_9NodeStore15is_result_ready
FNDA:1164,_RNvMs1_NtNtNtNtCseriWsCb5ev6_4koan7machine7execute9scheduler10node_storeNtB5_9NodeStore16push_recent_wake
FNDA:1064,_RNvMs1_NtNtNtNtCseriWsCb5ev6_4koan7machine7execute9scheduler10node_storeNtB5_9NodeStore16stamp_lift_ready
FNDA:2671,_RNvMs1_NtNtNtNtCseriWsCb5ev6_4koan7machine7execute9scheduler10node_storeNtB5_9NodeStore17take_recent_wakes
FNDA:5,_RNvMs1_NtNtNtNtCseriWsCb5ev6_4koan7machine7execute9scheduler10node_storeNtB5_9NodeStore18free_list_snapshot
FNDA:376,_RNvMs1_NtNtNtNtCseriWsCb5ev6_4koan7machine7execute9scheduler10node_storeNtB5_9NodeStore20reinstall_with_frame
FNDA:5,_RNvMs1_NtNtNtNtCseriWsCb5ev6_4koan7machine7execute9scheduler10node_storeNtB5_9NodeStore3len
FNDA:718,_RNvMs1_NtNtNtNtCseriWsCb5ev6_4koan7machine7execute9scheduler10node_storeNtB5_9NodeStore3new
FNDA:874,_RNvMs1_NtNtNtNtCseriWsCb5ev6_4koan7machine7execute9scheduler10node_storeNtB5_9NodeStore4read
FNDA:908,_RNvMs1_NtNtNtNtCseriWsCb5ev6_4koan7machine7execute9scheduler10node_storeNtB5_9NodeStore7is_live
FNDA:6,_RNvMs1_NtNtNtNtCseriWsCb5ev6_4koan7machine7execute9scheduler10node_storeNtB5_9NodeStore8chain_of
FNDA:2143,_RNvMs1_NtNtNtNtCseriWsCb5ev6_4koan7machine7execute9scheduler10node_storeNtB5_9NodeStore8finalize
FNDA:905,_RNvMs1_NtNtNtNtCseriWsCb5ev6_4koan7machine7execute9scheduler10node_storeNtB5_9NodeStore8free_one
FNDA:810,_RNvMs1_NtNtNtNtCseriWsCb5ev6_4koan7machine7execute9scheduler10node_storeNtB5_9NodeStore9reinstall
FNDA:718,_RNvMNtNtNtNtCseriWsCb5ev6_4koan7machine7execute9scheduler10node_storeINtB2_7SlotVecINtNtCsgW8esjfipvk_5alloc3vec3VecNtNtNtNtB8_4core9kfunction16scheduler_handle6NodeIdEE3newBa_
FNDA:2016,_RNvMNtNtNtNtCseriWsCb5ev6_4koan7machine7execute9scheduler10node_storeINtB2_7SlotVecINtNtCsgW8esjfipvk_5alloc3vec3VecNtNtNtNtB8_4core9kfunction16scheduler_handle6NodeIdEE4pushBa_
FNDA:1376,_RNvMNtNtNtNtCseriWsCb5ev6_4koan7machine7execute9scheduler10node_storeINtB2_7SlotVecNtB2_9SlotStateE3getBa_
FNDA:2021,_RNvMNtNtNtNtCseriWsCb5ev6_4koan7machine7execute9scheduler10node_storeINtB2_7SlotVecNtB2_9SlotStateE3lenBa_
FNDA:718,_RNvMNtNtNtNtCseriWsCb5ev6_4koan7machine7execute9scheduler10node_storeINtB2_7SlotVecNtB2_9SlotStateE3newBa_
FNDA:714,_RNvMNtNtNtNtCseriWsCb5ev6_4koan7machine7execute9scheduler10node_storeINtB2_7SlotVecNtB2_9SlotStateE4iterBa_
FNDA:2016,_RNvMNtNtNtNtCseriWsCb5ev6_4koan7machine7execute9scheduler10node_storeINtB2_7SlotVecNtB2_9SlotStateE4pushBa_
FNDA:4054,_RNvXs0_NtNtNtNtCseriWsCb5ev6_4koan7machine7execute9scheduler10node_storeINtB5_7SlotVecINtNtCsgW8esjfipvk_5alloc3vec3VecNtNtNtNtBb_4core9kfunction16scheduler_handle6NodeIdEEINtNtNtCs27Vx93FoQ6z_4core3ops5index8IndexMutB1T_E9index_mutBd_
FNDA:8097,_RNvXs0_NtNtNtNtCseriWsCb5ev6_4koan7machine7execute9scheduler10node_storeINtB5_7SlotVecNtB5_9SlotStateEINtNtNtCs27Vx93FoQ6z_4core3ops5index8IndexMutNtNtNtNtBb_4core9kfunction16scheduler_handle6NodeIdE9index_mutBd_
FNDA:6184,_RNvXs_NtNtNtNtCseriWsCb5ev6_4koan7machine7execute9scheduler10node_storeINtB4_7SlotVecNtB4_9SlotStateEINtNtNtCs27Vx93FoQ6z_4core3ops5index5IndexNtNtNtNtBa_4core9kfunction16scheduler_handle6NodeIdE5indexBc_
FNF:33
FNH:31
DA:32,1516
DA:33,4470
DA:34,2240
DA:35,0
DA:36,1531
DA:37,750
DA:42,6913
DA:46,13353
DA:74,758
DA:75,758
DA:76,758
DA:77,758
DA:78,758
DA:79,758
DA:80,758
DA:85,2422
DA:86,2422
DA:87,187
DA:88,187
DA:89,187
DA:92,2235
DA:93,2235
DA:96,2235
DA:97,2235
DA:100,2422
DA:103,3680
DA:104,3680
DA:105,3680
DA:106,0
DA:108,3680
DA:111,919
DA:112,919
DA:113,919
DA:118,383
DA:119,383
DA:120,383
DA:121,383
DA:122,383
DA:123,383
DA:124,383
DA:125,383
DA:126,383
DA:130,383
DA:131,383
DA:133,383
DA:134,383
DA:135,383
DA:139,2359
DA:140,2359
DA:141,2359
DA:146,996
DA:147,996
DA:148,996
DA:149,996
DA:150,996
DA:152,1525
DA:153,1525
DA:154,1525
DA:158,2018
DA:159,2018
DA:160,1889
DA:161,129
DA:162,0
DA:164,2018
DA:166,952
DA:167,952
DA:168,952
DA:169,0
DA:171,952
DA:177,750
DA:178,750
DA:179,750
DA:180,750
DA:181,2692
DA:182,2692
DA:183,1
DA:184,1
DA:185,1
DA:186,1
DA:187,1
DA:188,1
DA:189,1
DA:190,1
DA:191,1
DA:192,0
DA:193,0
DA:194,0
DA:195,0
DA:196,0
DA:197,0
DA:198,0
DA:199,0
DA:200,0
DA:201,0
DA:203,2691
DA:205,750
DA:206,749
DA:207,1
DA:208,1
DA:209,750
DA:211,5
DA:212,5
DA:213,5
DA:215,0
DA:216,0
DA:217,0
DA:219,999
DA:220,999
DA:221,999
DA:226,997
DA:227,997
DA:228,997
DA:233,1209
DA:234,1209
DA:235,1209
DA:236,1209
DA:237,371
DA:239,1209
DA:240,838
DA:241,371
DA:242,371
DA:243,352
DA:244,19
DA:245,0
DA:247,371
DA:248,371
DA:249,371
DA:250,371
DA:251,0
DA:252,1209
DA:258,1315
DA:259,1315
DA:260,1315
DA:261,1315
DA:263,1315
DA:264,783
DA:265,532
DA:266,532
DA:267,1315
DA:273,2911
DA:274,2911
DA:275,2911
DA:280,10
DA:281,10
DA:282,10
DA:285,9
DA:286,9
DA:287,9
DA:290,1
DA:291,1
DA:292,1
DA:295,3
DA:296,3
DA:297,3
DA:300,5
DA:301,5
DA:302,5
DA:305,2
DA:306,2
DA:307,2
DA:311,6
DA:312,6
DA:313,6
DA:314,0
DA:316,6
BRF:0
BRH:0
LF:165
LH:145
end_of_record
SF:/var/home/jack/Code/koan/src/machine/execute/scheduler/submit.rs
FN:103,_RNvMNtNtNtNtCscUx3zdyuqfq_4koan7machine7execute9scheduler6submitNtB4_9Scheduler11add_combine
FN:94,_RNvMNtNtNtNtCscUx3zdyuqfq_4koan7machine7execute9scheduler6submitNtB4_9Scheduler12add_dispatch
FN:142,_RNvMNtNtNtNtCscUx3zdyuqfq_4koan7machine7execute9scheduler6submitNtB4_9Scheduler14add_with_chain
FN:130,_RNvMNtNtNtNtCscUx3zdyuqfq_4koan7machine7execute9scheduler6submitNtB4_9Scheduler3add
FN:117,_RNvMNtNtNtNtCscUx3zdyuqfq_4koan7machine7execute9scheduler6submitNtB4_9Scheduler9add_catch
FN:44,_RNCNCNvNtNtNtNtCscUx3zdyuqfq_4koan7machine7execute9scheduler6submit22extract_binder_install00Bd_
FN:49,_RNCNCNvNtNtNtNtCscUx3zdyuqfq_4koan7machine7execute9scheduler6submit22extract_binder_install0s0_0Bd_
FN:48,_RNCNCNvNtNtNtNtCscUx3zdyuqfq_4koan7machine7execute9scheduler6submit22extract_binder_install0s_0Bd_
FN:151,_RNCNvMNtNtNtNtCscUx3zdyuqfq_4koan7machine7execute9scheduler6submitNtB6_9Scheduler14add_with_chain0Bc_
FN:224,_RNCNvMNtNtNtNtCscUx3zdyuqfq_4koan7machine7execute9scheduler6submitNtB6_9Scheduler14add_with_chains0_0Bc_
FN:225,_RNCNvMNtNtNtNtCscUx3zdyuqfq_4koan7machine7execute9scheduler6submitNtB6_9Scheduler14add_with_chains1_0Bc_
FN:230,_RNCNvMNtNtNtNtCscUx3zdyuqfq_4koan7machine7execute9scheduler6submitNtB6_9Scheduler14add_with_chains2_0Bc_
FN:219,_RNCNvMNtNtNtNtCscUx3zdyuqfq_4koan7machine7execute9scheduler6submitNtB6_9Scheduler14add_with_chains_0Bc_
FN:43,_RNCNvNtNtNtNtCscUx3zdyuqfq_4koan7machine7execute9scheduler6submit22extract_binder_install0Bb_
FN:62,_RNCNvNtNtNtNtCscUx3zdyuqfq_4koan7machine7execute9scheduler6submit22extract_binder_installs_0Bb_
FN:30,_RNvNtNtNtNtCscUx3zdyuqfq_4koan7machine7execute9scheduler6submit22extract_binder_install
FN:44,_RNCNCNvNtNtNtNtCseriWsCb5ev6_4koan7machine7execute9scheduler6submit22extract_binder_install00Bd_
FN:49,_RNCNCNvNtNtNtNtCseriWsCb5ev6_4koan7machine7execute9scheduler6submit22extract_binder_install0s0_0Bd_
FN:48,_RNCNCNvNtNtNtNtCseriWsCb5ev6_4koan7machine7execute9scheduler6submit22extract_binder_install0s_0Bd_
FN:151,_RNCNvMNtNtNtNtCseriWsCb5ev6_4koan7machine7execute9scheduler6submitNtB6_9Scheduler14add_with_chain0Bc_
FN:224,_RNCNvMNtNtNtNtCseriWsCb5ev6_4koan7machine7execute9scheduler6submitNtB6_9Scheduler14add_with_chains0_0Bc_
FN:225,_RNCNvMNtNtNtNtCseriWsCb5ev6_4koan7machine7execute9scheduler6submitNtB6_9Scheduler14add_with_chains1_0Bc_
FN:230,_RNCNvMNtNtNtNtCseriWsCb5ev6_4koan7machine7execute9scheduler6submitNtB6_9Scheduler14add_with_chains2_0Bc_
FN:219,_RNCNvMNtNtNtNtCseriWsCb5ev6_4koan7machine7execute9scheduler6submitNtB6_9Scheduler14add_with_chains_0Bc_
FN:43,_RNCNvNtNtNtNtCseriWsCb5ev6_4koan7machine7execute9scheduler6submit22extract_binder_install0Bb_
FN:62,_RNCNvNtNtNtNtCseriWsCb5ev6_4koan7machine7execute9scheduler6submit22extract_binder_installs_0Bb_
FN:103,_RNvMNtNtNtNtCseriWsCb5ev6_4koan7machine7execute9scheduler6submitNtB4_9Scheduler11add_combine
FN:94,_RNvMNtNtNtNtCseriWsCb5ev6_4koan7machine7execute9scheduler6submitNtB4_9Scheduler12add_dispatch
FN:142,_RNvMNtNtNtNtCseriWsCb5ev6_4koan7machine7execute9scheduler6submitNtB4_9Scheduler14add_with_chain
FN:130,_RNvMNtNtNtNtCseriWsCb5ev6_4koan7machine7execute9scheduler6submitNtB4_9Scheduler3add
FN:117,_RNvMNtNtNtNtCseriWsCb5ev6_4koan7machine7execute9scheduler6submitNtB4_9Scheduler9add_catch
FN:30,_RNvNtNtNtNtCseriWsCb5ev6_4koan7machine7execute9scheduler6submit22extract_binder_install
FNDA:48,_RNvMNtNtNtNtCscUx3zdyuqfq_4koan7machine7execute9scheduler6submitNtB4_9Scheduler11add_combine
FNDA:64,_RNvMNtNtNtNtCscUx3zdyuqfq_4koan7machine7execute9scheduler6submitNtB4_9Scheduler12add_dispatch
FNDA:229,_RNvMNtNtNtNtCscUx3zdyuqfq_4koan7machine7execute9scheduler6submitNtB4_9Scheduler14add_with_chain
FNDA:112,_RNvMNtNtNtNtCscUx3zdyuqfq_4koan7machine7execute9scheduler6submitNtB4_9Scheduler3add
FNDA:0,_RNvMNtNtNtNtCscUx3zdyuqfq_4koan7machine7execute9scheduler6submitNtB4_9Scheduler9add_catch
FNDA:107,_RNCNCNvNtNtNtNtCscUx3zdyuqfq_4koan7machine7execute9scheduler6submit22extract_binder_install00Bd_
FNDA:15,_RNCNCNvNtNtNtNtCscUx3zdyuqfq_4koan7machine7execute9scheduler6submit22extract_binder_install0s0_0Bd_
FNDA:15,_RNCNCNvNtNtNtNtCscUx3zdyuqfq_4koan7machine7execute9scheduler6submit22extract_binder_install0s_0Bd_
FNDA:79,_RNCNvMNtNtNtNtCscUx3zdyuqfq_4koan7machine7execute9scheduler6submitNtB6_9Scheduler14add_with_chain0Bc_
FNDA:41,_RNCNvMNtNtNtNtCscUx3zdyuqfq_4koan7machine7execute9scheduler6submitNtB6_9Scheduler14add_with_chains0_0Bc_
FNDA:41,_RNCNvMNtNtNtNtCscUx3zdyuqfq_4koan7machine7execute9scheduler6submitNtB6_9Scheduler14add_with_chains1_0Bc_
FNDA:8,_RNCNvMNtNtNtNtCscUx3zdyuqfq_4koan7machine7execute9scheduler6submitNtB6_9Scheduler14add_with_chains2_0Bc_
FNDA:122,_RNCNvMNtNtNtNtCscUx3zdyuqfq_4koan7machine7execute9scheduler6submitNtB6_9Scheduler14add_with_chains_0Bc_
FNDA:197,_RNCNvNtNtNtNtCscUx3zdyuqfq_4koan7machine7execute9scheduler6submit22extract_binder_install0Bb_
FNDA:505,_RNCNvNtNtNtNtCscUx3zdyuqfq_4koan7machine7execute9scheduler6submit22extract_binder_installs_0Bb_
FNDA:181,_RNvNtNtNtNtCscUx3zdyuqfq_4koan7machine7execute9scheduler6submit22extract_binder_install
FNDA:647,_RNCNCNvNtNtNtNtCseriWsCb5ev6_4koan7machine7execute9scheduler6submit22extract_binder_install00Bd_
FNDA:185,_RNCNCNvNtNtNtNtCseriWsCb5ev6_4koan7machine7execute9scheduler6submit22extract_binder_install0s0_0Bd_
FNDA:185,_RNCNCNvNtNtNtNtCseriWsCb5ev6_4koan7machine7execute9scheduler6submit22extract_binder_install0s_0Bd_
FNDA:800,_RNCNvMNtNtNtNtCseriWsCb5ev6_4koan7machine7execute9scheduler6submitNtB6_9Scheduler14add_with_chain0Bc_
FNDA:352,_RNCNvMNtNtNtNtCseriWsCb5ev6_4koan7machine7execute9scheduler6submitNtB6_9Scheduler14add_with_chains0_0Bc_
FNDA:352,_RNCNvMNtNtNtNtCseriWsCb5ev6_4koan7machine7execute9scheduler6submitNtB6_9Scheduler14add_with_chains1_0Bc_
FNDA:14,_RNCNvMNtNtNtNtCseriWsCb5ev6_4koan7machine7execute9scheduler6submitNtB6_9Scheduler14add_with_chains2_0Bc_
FNDA:830,_RNCNvMNtNtNtNtCseriWsCb5ev6_4koan7machine7execute9scheduler6submitNtB6_9Scheduler14add_with_chains_0Bc_
FNDA:1505,_RNCNvNtNtNtNtCseriWsCb5ev6_4koan7machine7execute9scheduler6submit22extract_binder_install0Bb_
FNDA:3627,_RNCNvNtNtNtNtCseriWsCb5ev6_4koan7machine7execute9scheduler6submit22extract_binder_installs_0Bb_
FNDA:330,_RNvMNtNtNtNtCseriWsCb5ev6_4koan7machine7execute9scheduler6submitNtB4_9Scheduler11add_combine
FNDA:1398,_RNvMNtNtNtNtCseriWsCb5ev6_4koan7machine7execute9scheduler6submitNtB4_9Scheduler12add_dispatch
FNDA:2194,_RNvMNtNtNtNtCseriWsCb5ev6_4koan7machine7execute9scheduler6submitNtB4_9Scheduler14add_with_chain
FNDA:1775,_RNvMNtNtNtNtCseriWsCb5ev6_4koan7machine7execute9scheduler6submitNtB4_9Scheduler3add
FNDA:25,_RNvMNtNtNtNtCseriWsCb5ev6_4koan7machine7execute9scheduler6submitNtB4_9Scheduler9add_catch
FNDA:1837,_RNvNtNtNtNtCseriWsCb5ev6_4koan7machine7execute9scheduler6submit22extract_binder_install
FNF:16
FNH:16
DA:30,2018
DA:31,2018
DA:32,2018
DA:33,2018
DA:34,2018
DA:37,2518
DA:38,2518
DA:39,1441
DA:40,1077
DA:42,1441
DA:43,1702
DA:44,1702
DA:45,752
DA:47,950
DA:48,950
DA:49,950
DA:51,1702
DA:52,1441
DA:53,489
DA:58,952
DA:59,952
DA:60,952
DA:61,952
DA:62,4132
DA:63,2104
DA:64,2028
DA:65,4132
DA:66,952
DA:67,1579
DA:68,1579
DA:69,0
DA:70,1579
DA:71,7040
DA:72,7040
DA:73,0
DA:74,7040
DA:75,7040
DA:76,3558
DA:77,1237
DA:78,2321
DA:79,3482
DA:82,952
DA:83,952
DA:84,952
DA:85,952
DA:86,952
DA:88,1066
DA:89,2018
DA:94,1462
DA:95,1462
DA:96,1462
DA:103,378
DA:104,378
DA:105,378
DA:106,378
DA:107,378
DA:108,378
DA:109,378
DA:110,378
DA:111,378
DA:112,378
DA:113,378
DA:114,378
DA:117,25
DA:118,25
DA:119,25
DA:120,25
DA:121,25
DA:122,25
DA:123,25
DA:124,25
DA:130,1887
DA:131,1887
DA:132,878
DA:134,1009
DA:136,1887
DA:142,2423
DA:143,2423
DA:144,2423
DA:145,2423
DA:146,2423
DA:147,2423
DA:150,2423
DA:151,2423
DA:152,2423
DA:153,2423
DA:154,2423
DA:158,2423
DA:159,2019
DA:160,404
DA:162,2423
DA:163,953
DA:164,953
DA:165,2423
DA:167,953
DA:168,4131
DA:169,4131
DA:170,2864
DA:171,1267
DA:172,1267
DA:173,155
DA:178,155
DA:179,155
DA:180,155
DA:181,155
DA:183,155
DA:185,953
DA:187,1470
DA:192,2423
DA:193,2019
DA:194,2019
DA:195,2018
DA:196,1
DA:200,2018
DA:201,2018
DA:204,2018
DA:205,2018
DA:206,2018
DA:207,2018
DA:208,2018
DA:210,404
DA:212,2422
DA:213,2422
DA:214,2422
DA:218,2422
DA:219,952
DA:220,952
DA:221,952
DA:222,2422
DA:223,2422
DA:224,2422
DA:225,2422
DA:226,2422
DA:227,2422
DA:228,2422
DA:229,2422
DA:230,2422
DA:231,2422
DA:232,2422
DA:233,2422
DA:234,2422
DA:235,2422
DA:236,2422
DA:237,2422
DA:238,22
DA:239,22
DA:240,2422
DA:241,952
DA:246,952
DA:247,752
DA:248,752
DA:249,752
DA:250,200
DA:251,200
DA:252,200
DA:254,1470
DA:255,2422
DA:256,2064
DA:257,1927
DA:258,1927
DA:259,137
DA:260,137
DA:261,358
DA:262,2422
DA:263,2422
BRF:0
BRH:0
LF:174
LH:172
end_of_record
SF:/var/home/jack/Code/koan/src/machine/execute/scheduler/work_queues.rs
FN:22,_RNvMNtNtNtNtCscUx3zdyuqfq_4koan7machine7execute9scheduler11work_queuesNtB2_10WorkQueues10push_fresh
FN:35,_RNvMNtNtNtNtCscUx3zdyuqfq_4koan7machine7execute9scheduler11work_queuesNtB2_10WorkQueues10push_woken
FN:31,_RNvMNtNtNtNtCscUx3zdyuqfq_4koan7machine7execute9scheduler11work_queuesNtB2_10WorkQueues18push_after_replace
FN:26,_RNvMNtNtNtNtCscUx3zdyuqfq_4koan7machine7execute9scheduler11work_queuesNtB2_10WorkQueues21push_in_flight_submit
FN:16,_RNvMNtNtNtNtCscUx3zdyuqfq_4koan7machine7execute9scheduler11work_queuesNtB2_10WorkQueues3new
FN:18,_RNvMNtNtNtNtCscUx3zdyuqfq_4koan7machine7execute9scheduler11work_queuesNtB2_10WorkQueues8pop_next
FN:19,_RNCNvMNtNtNtNtCscUx3zdyuqfq_4koan7machine7execute9scheduler11work_queuesNtB4_10WorkQueues8pop_next0Bc_
FN:22,_RNvMNtNtNtNtCseriWsCb5ev6_4koan7machine7execute9scheduler11work_queuesNtB2_10WorkQueues10push_fresh
FN:35,_RNvMNtNtNtNtCseriWsCb5ev6_4koan7machine7execute9scheduler11work_queuesNtB2_10WorkQueues10push_woken
FN:31,_RNvMNtNtNtNtCseriWsCb5ev6_4koan7machine7execute9scheduler11work_queuesNtB2_10WorkQueues18push_after_replace
FN:26,_RNvMNtNtNtNtCseriWsCb5ev6_4koan7machine7execute9scheduler11work_queuesNtB2_10WorkQueues21push_in_flight_submit
FN:16,_RNvMNtNtNtNtCseriWsCb5ev6_4koan7machine7execute9scheduler11work_queuesNtB2_10WorkQueues3new
FN:18,_RNvMNtNtNtNtCseriWsCb5ev6_4koan7machine7execute9scheduler11work_queuesNtB2_10WorkQueues8pop_next
FN:19,_RNCNvMNtNtNtNtCseriWsCb5ev6_4koan7machine7execute9scheduler11work_queuesNtB4_10WorkQueues8pop_next0Bc_
FNDA:178,_RNvMNtNtNtNtCscUx3zdyuqfq_4koan7machine7execute9scheduler11work_queuesNtB2_10WorkQueues10push_fresh
FNDA:145,_RNvMNtNtNtNtCscUx3zdyuqfq_4koan7machine7execute9scheduler11work_queuesNtB2_10WorkQueues10push_woken
FNDA:17,_RNvMNtNtNtNtCscUx3zdyuqfq_4koan7machine7execute9scheduler11work_queuesNtB2_10WorkQueues18push_after_replace
FNDA:4,_RNvMNtNtNtNtCscUx3zdyuqfq_4koan7machine7execute9scheduler11work_queuesNtB2_10WorkQueues21push_in_flight_submit
FNDA:40,_RNvMNtNtNtNtCscUx3zdyuqfq_4koan7machine7execute9scheduler11work_queuesNtB2_10WorkQueues3new
FNDA:372,_RNvMNtNtNtNtCscUx3zdyuqfq_4koan7machine7execute9scheduler11work_queuesNtB2_10WorkQueues8pop_next
FNDA:206,_RNCNvMNtNtNtNtCscUx3zdyuqfq_4koan7machine7execute9scheduler11work_queuesNtB4_10WorkQueues8pop_next0Bc_
FNDA:1749,_RNvMNtNtNtNtCseriWsCb5ev6_4koan7machine7execute9scheduler11work_queuesNtB2_10WorkQueues10push_fresh
FNDA:1064,_RNvMNtNtNtNtCseriWsCb5ev6_4koan7machine7execute9scheduler11work_queuesNtB2_10WorkQueues10push_woken
FNDA:430,_RNvMNtNtNtNtCseriWsCb5ev6_4koan7machine7execute9scheduler11work_queuesNtB2_10WorkQueues18push_after_replace
FNDA:133,_RNvMNtNtNtNtCseriWsCb5ev6_4koan7machine7execute9scheduler11work_queuesNtB2_10WorkQueues21push_in_flight_submit
FNDA:718,_RNvMNtNtNtNtCseriWsCb5ev6_4koan7machine7execute9scheduler11work_queuesNtB2_10WorkQueues3new
FNDA:4060,_RNvMNtNtNtNtCseriWsCb5ev6_4koan7machine7execute9scheduler11work_queuesNtB2_10WorkQueues8pop_next
FNDA:2435,_RNCNvMNtNtNtNtCseriWsCb5ev6_4koan7machine7execute9scheduler11work_queuesNtB4_10WorkQueues8pop_next0Bc_
FNF:7
FNH:7
DA:16,758
DA:18,4432
DA:19,4432
DA:20,4432
DA:22,1927
DA:23,1927
DA:24,1927
DA:26,137
DA:27,137
DA:28,137
DA:31,447
DA:32,447
DA:33,447
DA:35,1209
DA:36,1209
DA:37,1209
BRF:0
BRH:0
LF:17
LH:17
end_of_record
SF:/var/home/jack/Code/koan/src/machine/model/ast.rs
FN:58,_RINvXs1_NtNtNtCscUx3zdyuqfq_4koan7machine5model3astNtB6_8TypeExprNtNtCs27Vx93FoQ6z_4core4hash4Hash4hashNtNtNtCs75vJTIYSa2J_3std4hash6random13DefaultHasherEBc_
FN:88,_RNCNvMs2_NtNtNtCscUx3zdyuqfq_4koan7machine5model3astNtB7_8TypeExpr6render0Bd_
FN:92,_RNCNvMs2_NtNtNtCscUx3zdyuqfq_4koan7machine5model3astNtB7_8TypeExpr6renders_0Bd_
FN:222,_RNCNvMs4_NtNtNtCscUx3zdyuqfq_4koan7machine5model3astNtB7_14ExpressionPart7resolve0Bd_
FN:230,_RNCNvMs4_NtNtNtCscUx3zdyuqfq_4koan7machine5model3astNtB7_14ExpressionPart7resolves_0Bd_
FN:149,_RNCNvMs4_NtNtNtCscUx3zdyuqfq_4koan7machine5model3astNtB7_14ExpressionPart9summarize0Bd_
FN:155,_RNCNvMs4_NtNtNtCscUx3zdyuqfq_4koan7machine5model3astNtB7_14ExpressionPart9summarizes_0Bd_
FN:291,_RNCNvMs7_NtNtNtCscUx3zdyuqfq_4koan7machine5model3astNtB7_11KExpression11untyped_key0Bd_
FN:349,_RNCNvMs7_NtNtNtCscUx3zdyuqfq_4koan7machine5model3astNtB7_11KExpression32try_take_inner_expressions_split0Bd_
FN:373,_RNCNvXs9_NtNtNtCscUx3zdyuqfq_4koan7machine5model3astNtB7_11KExpressionNtNtNtB9_5types7ktraits9Parseable9summarize0Bd_
FN:75,_RNvMs2_NtNtNtCscUx3zdyuqfq_4koan7machine5model3astNtB5_8TypeExpr4leaf
FN:84,_RNvMs2_NtNtNtCscUx3zdyuqfq_4koan7machine5model3astNtB5_8TypeExpr6render
FN:134,_RNvMs4_NtNtNtCscUx3zdyuqfq_4koan7machine5model3astNtB5_14ExpressionPart10expression
FN:174,_RNvMs4_NtNtNtCscUx3zdyuqfq_4koan7machine5model3astNtB5_14ExpressionPart11resolve_for
FN:204,_RNvMs4_NtNtNtCscUx3zdyuqfq_4koan7machine5model3astNtB5_14ExpressionPart7resolve
FN:141,_RNvMs4_NtNtNtCscUx3zdyuqfq_4koan7machine5model3astNtB5_14ExpressionPart9summarize
FN:288,_RNvMs7_NtNtNtCscUx3zdyuqfq_4koan7machine5model3astNtB5_11KExpression11untyped_key
FN:311,_RNvMs7_NtNtNtCscUx3zdyuqfq_4koan7machine5model3astNtB5_11KExpression24borrow_inner_expressions
FN:301,_RNvMs7_NtNtNtCscUx3zdyuqfq_4koan7machine5model3astNtB5_11KExpression26binder_name_from_type_part
FN:325,_RNvMs7_NtNtNtCscUx3zdyuqfq_4koan7machine5model3astNtB5_11KExpression32try_take_inner_expressions_split
FN:281,_RNvMs7_NtNtNtCscUx3zdyuqfq_4koan7machine5model3astNtB5_11KExpression3new
FN:36,_RNvXNtNtNtCscUx3zdyuqfq_4koan7machine5model3astNtB2_8TypeExprNtNtCs27Vx93FoQ6z_4core5clone5Clone5clone
FN:118,_RNvXs3_NtNtNtCscUx3zdyuqfq_4koan7machine5model3astNtB5_14ExpressionPartNtNtCs27Vx93FoQ6z_4core3fmt5Debug3fmt
FN:245,_RNvXs5_NtNtNtCscUx3zdyuqfq_4koan7machine5model3astNtB5_14ExpressionPartNtNtCs27Vx93FoQ6z_4core5clone5Clone5clone
FN:261,_RNvXs6_NtNtNtCscUx3zdyuqfq_4koan7machine5model3astNtB5_11KExpressionNtNtCs27Vx93FoQ6z_4core5clone5Clone5clone
FN:363,_RNvXs8_NtNtNtCscUx3zdyuqfq_4koan7machine5model3astNtB5_11KExpressionNtNtCs27Vx93FoQ6z_4core3fmt5Debug3fmt
FN:369,_RNvXs9_NtNtNtCscUx3zdyuqfq_4koan7machine5model3astNtB5_11KExpressionNtNtNtB7_5types7ktraits9Parseable5equal
FN:370,_RNvXs9_NtNtNtCscUx3zdyuqfq_4koan7machine5model3astNtB5_11KExpressionNtNtNtB7_5types7ktraits9Parseable5ktype
FN:371,_RNvXs9_NtNtNtCscUx3zdyuqfq_4koan7machine5model3astNtB5_11KExpressionNtNtNtB7_5types7ktraits9Parseable9summarize
FN:50,_RNvXs_NtNtNtCscUx3zdyuqfq_4koan7machine5model3astNtB4_8TypeExprNtNtCs27Vx93FoQ6z_4core3cmp9PartialEq2eq
FN:58,_RINvXs1_NtNtNtCseriWsCb5ev6_4koan7machine5model3astNtB6_8TypeExprNtNtCs27Vx93FoQ6z_4core4hash4Hash4hashNtNtNtCs75vJTIYSa2J_3std4hash6random13DefaultHasherEBc_
FN:88,_RNCNvMs2_NtNtNtCseriWsCb5ev6_4koan7machine5model3astNtB7_8TypeExpr6render0Bd_
FN:92,_RNCNvMs2_NtNtNtCseriWsCb5ev6_4koan7machine5model3astNtB7_8TypeExpr6renders_0Bd_
FN:222,_RNCNvMs4_NtNtNtCseriWsCb5ev6_4koan7machine5model3astNtB7_14ExpressionPart7resolve0Bd_
FN:230,_RNCNvMs4_NtNtNtCseriWsCb5ev6_4koan7machine5model3astNtB7_14ExpressionPart7resolves_0Bd_
FN:149,_RNCNvMs4_NtNtNtCseriWsCb5ev6_4koan7machine5model3astNtB7_14ExpressionPart9summarize0Bd_
FN:155,_RNCNvMs4_NtNtNtCseriWsCb5ev6_4koan7machine5model3astNtB7_14ExpressionPart9summarizes_0Bd_
FN:291,_RNCNvMs7_NtNtNtCseriWsCb5ev6_4koan7machine5model3astNtB7_11KExpression11untyped_key0Bd_
FN:349,_RNCNvMs7_NtNtNtCseriWsCb5ev6_4koan7machine5model3astNtB7_11KExpression32try_take_inner_expressions_split0Bd_
FN:373,_RNCNvXs9_NtNtNtCseriWsCb5ev6_4koan7machine5model3astNtB7_11KExpressionNtNtNtB9_5types7ktraits9Parseable9summarize0Bd_
FN:75,_RNvMs2_NtNtNtCseriWsCb5ev6_4koan7machine5model3astNtB5_8TypeExpr4leaf
FN:84,_RNvMs2_NtNtNtCseriWsCb5ev6_4koan7machine5model3astNtB5_8TypeExpr6render
FN:134,_RNvMs4_NtNtNtCseriWsCb5ev6_4koan7machine5model3astNtB5_14ExpressionPart10expression
FN:174,_RNvMs4_NtNtNtCseriWsCb5ev6_4koan7machine5model3astNtB5_14ExpressionPart11resolve_for
FN:204,_RNvMs4_NtNtNtCseriWsCb5ev6_4koan7machine5model3astNtB5_14ExpressionPart7resolve
FN:141,_RNvMs4_NtNtNtCseriWsCb5ev6_4koan7machine5model3astNtB5_14ExpressionPart9summarize
FN:288,_RNvMs7_NtNtNtCseriWsCb5ev6_4koan7machine5model3astNtB5_11KExpression11untyped_key
FN:311,_RNvMs7_NtNtNtCseriWsCb5ev6_4koan7machine5model3astNtB5_11KExpression24borrow_inner_expressions
FN:301,_RNvMs7_NtNtNtCseriWsCb5ev6_4koan7machine5model3astNtB5_11KExpression26binder_name_from_type_part
FN:325,_RNvMs7_NtNtNtCseriWsCb5ev6_4koan7machine5model3astNtB5_11KExpression32try_take_inner_expressions_split
FN:281,_RNvMs7_NtNtNtCseriWsCb5ev6_4koan7machine5model3astNtB5_11KExpression3new
FN:36,_RNvXNtNtNtCseriWsCb5ev6_4koan7machine5model3astNtB2_8TypeExprNtNtCs27Vx93FoQ6z_4core5clone5Clone5clone
FN:118,_RNvXs3_NtNtNtCseriWsCb5ev6_4koan7machine5model3astNtB5_14ExpressionPartNtNtCs27Vx93FoQ6z_4core3fmt5Debug3fmt
FN:245,_RNvXs5_NtNtNtCseriWsCb5ev6_4koan7machine5model3astNtB5_14ExpressionPartNtNtCs27Vx93FoQ6z_4core5clone5Clone5clone
FN:261,_RNvXs6_NtNtNtCseriWsCb5ev6_4koan7machine5model3astNtB5_11KExpressionNtNtCs27Vx93FoQ6z_4core5clone5Clone5clone
FN:363,_RNvXs8_NtNtNtCseriWsCb5ev6_4koan7machine5model3astNtB5_11KExpressionNtNtCs27Vx93FoQ6z_4core3fmt5Debug3fmt
FN:369,_RNvXs9_NtNtNtCseriWsCb5ev6_4koan7machine5model3astNtB5_11KExpressionNtNtNtB7_5types7ktraits9Parseable5equal
FN:370,_RNvXs9_NtNtNtCseriWsCb5ev6_4koan7machine5model3astNtB5_11KExpressionNtNtNtB7_5types7ktraits9Parseable5ktype
FN:371,_RNvXs9_NtNtNtCseriWsCb5ev6_4koan7machine5model3astNtB5_11KExpressionNtNtNtB7_5types7ktraits9Parseable9summarize
FN:50,_RNvXs_NtNtNtCseriWsCb5ev6_4koan7machine5model3astNtB4_8TypeExprNtNtCs27Vx93FoQ6z_4core3cmp9PartialEq2eq
FNDA:7,_RINvXs1_NtNtNtCscUx3zdyuqfq_4koan7machine5model3astNtB6_8TypeExprNtNtCs27Vx93FoQ6z_4core4hash4Hash4hashNtNtNtCs75vJTIYSa2J_3std4hash6random13DefaultHasherEBc_
FNDA:0,_RNCNvMs2_NtNtNtCscUx3zdyuqfq_4koan7machine5model3astNtB7_8TypeExpr6render0Bd_
FNDA:0,_RNCNvMs2_NtNtNtCscUx3zdyuqfq_4koan7machine5model3astNtB7_8TypeExpr6renders_0Bd_
FNDA:0,_RNCNvMs4_NtNtNtCscUx3zdyuqfq_4koan7machine5model3astNtB7_14ExpressionPart7resolve0Bd_
FNDA:0,_RNCNvMs4_NtNtNtCscUx3zdyuqfq_4koan7machine5model3astNtB7_14ExpressionPart7resolves_0Bd_
FNDA:0,_RNCNvMs4_NtNtNtCscUx3zdyuqfq_4koan7machine5model3astNtB7_14ExpressionPart9summarize0Bd_
FNDA:0,_RNCNvMs4_NtNtNtCscUx3zdyuqfq_4koan7machine5model3astNtB7_14ExpressionPart9summarizes_0Bd_
FNDA:1385,_RNCNvMs7_NtNtNtCscUx3zdyuqfq_4koan7machine5model3astNtB7_11KExpression11untyped_key0Bd_
FNDA:0,_RNCNvMs7_NtNtNtCscUx3zdyuqfq_4koan7machine5model3astNtB7_11KExpression32try_take_inner_expressions_split0Bd_
FNDA:9,_RNCNvXs9_NtNtNtCscUx3zdyuqfq_4koan7machine5model3astNtB7_11KExpressionNtNtNtB9_5types7ktraits9Parseable9summarize0Bd_
FNDA:167,_RNvMs2_NtNtNtCscUx3zdyuqfq_4koan7machine5model3astNtB5_8TypeExpr4leaf
FNDA:1,_RNvMs2_NtNtNtCscUx3zdyuqfq_4koan7machine5model3astNtB5_8TypeExpr6render
FNDA:0,_RNvMs4_NtNtNtCscUx3zdyuqfq_4koan7machine5model3astNtB5_14ExpressionPart10expression
FNDA:295,_RNvMs4_NtNtNtCscUx3zdyuqfq_4koan7machine5model3astNtB5_14ExpressionPart11resolve_for
FNDA:227,_RNvMs4_NtNtNtCscUx3zdyuqfq_4koan7machine5model3astNtB5_14ExpressionPart7resolve
FNDA:9,_RNvMs4_NtNtNtCscUx3zdyuqfq_4koan7machine5model3astNtB5_14ExpressionPart9summarize
FNDA:390,_RNvMs7_NtNtNtCscUx3zdyuqfq_4koan7machine5model3astNtB5_11KExpression11untyped_key
FNDA:0,_RNvMs7_NtNtNtCscUx3zdyuqfq_4koan7machine5model3astNtB5_11KExpression24borrow_inner_expressions
FNDA:66,_RNvMs7_NtNtNtCscUx3zdyuqfq_4koan7machine5model3astNtB5_11KExpression26binder_name_from_type_part
FNDA:0,_RNvMs7_NtNtNtCscUx3zdyuqfq_4koan7machine5model3astNtB5_11KExpression32try_take_inner_expressions_split
FNDA:511,_RNvMs7_NtNtNtCscUx3zdyuqfq_4koan7machine5model3astNtB5_11KExpression3new
FNDA:228,_RNvXNtNtNtCscUx3zdyuqfq_4koan7machine5model3astNtB2_8TypeExprNtNtCs27Vx93FoQ6z_4core5clone5Clone5clone
FNDA:0,_RNvXs3_NtNtNtCscUx3zdyuqfq_4koan7machine5model3astNtB5_14ExpressionPartNtNtCs27Vx93FoQ6z_4core3fmt5Debug3fmt
FNDA:581,_RNvXs5_NtNtNtCscUx3zdyuqfq_4koan7machine5model3astNtB5_14ExpressionPartNtNtCs27Vx93FoQ6z_4core5clone5Clone5clone
FNDA:168,_RNvXs6_NtNtNtCscUx3zdyuqfq_4koan7machine5model3astNtB5_11KExpressionNtNtCs27Vx93FoQ6z_4core5clone5Clone5clone
FNDA:0,_RNvXs8_NtNtNtCscUx3zdyuqfq_4koan7machine5model3astNtB5_11KExpressionNtNtCs27Vx93FoQ6z_4core3fmt5Debug3fmt
FNDA:0,_RNvXs9_NtNtNtCscUx3zdyuqfq_4koan7machine5model3astNtB5_11KExpressionNtNtNtB7_5types7ktraits9Parseable5equal
FNDA:0,_RNvXs9_NtNtNtCscUx3zdyuqfq_4koan7machine5model3astNtB5_11KExpressionNtNtNtB7_5types7ktraits9Parseable5ktype
FNDA:4,_RNvXs9_NtNtNtCscUx3zdyuqfq_4koan7machine5model3astNtB5_11KExpressionNtNtNtB7_5types7ktraits9Parseable9summarize
FNDA:0,_RNvXs_NtNtNtCscUx3zdyuqfq_4koan7machine5model3astNtB4_8TypeExprNtNtCs27Vx93FoQ6z_4core3cmp9PartialEq2eq
FNDA:18,_RINvXs1_NtNtNtCseriWsCb5ev6_4koan7machine5model3astNtB6_8TypeExprNtNtCs27Vx93FoQ6z_4core4hash4Hash4hashNtNtNtCs75vJTIYSa2J_3std4hash6random13DefaultHasherEBc_
FNDA:3,_RNCNvMs2_NtNtNtCseriWsCb5ev6_4koan7machine5model3astNtB7_8TypeExpr6render0Bd_
FNDA:3,_RNCNvMs2_NtNtNtCseriWsCb5ev6_4koan7machine5model3astNtB7_8TypeExpr6renders_0Bd_
FNDA:0,_RNCNvMs4_NtNtNtCseriWsCb5ev6_4koan7machine5model3astNtB7_14ExpressionPart7resolve0Bd_
FNDA:0,_RNCNvMs4_NtNtNtCseriWsCb5ev6_4koan7machine5model3astNtB7_14ExpressionPart7resolves_0Bd_
FNDA:2,_RNCNvMs4_NtNtNtCseriWsCb5ev6_4koan7machine5model3astNtB7_14ExpressionPart9summarize0Bd_
FNDA:1,_RNCNvMs4_NtNtNtCseriWsCb5ev6_4koan7machine5model3astNtB7_14ExpressionPart9summarizes_0Bd_
FNDA:12083,_RNCNvMs7_NtNtNtCseriWsCb5ev6_4koan7machine5model3astNtB7_11KExpression11untyped_key0Bd_
FNDA:0,_RNCNvMs7_NtNtNtCseriWsCb5ev6_4koan7machine5model3astNtB7_11KExpression32try_take_inner_expressions_split0Bd_
FNDA:109,_RNCNvXs9_NtNtNtCseriWsCb5ev6_4koan7machine5model3astNtB7_11KExpressionNtNtNtB9_5types7ktraits9Parseable9summarize0Bd_
FNDA:1572,_RNvMs2_NtNtNtCseriWsCb5ev6_4koan7machine5model3astNtB5_8TypeExpr4leaf
FNDA:111,_RNvMs2_NtNtNtCseriWsCb5ev6_4koan7machine5model3astNtB5_8TypeExpr6render
FNDA:11,_RNvMs4_NtNtNtCseriWsCb5ev6_4koan7machine5model3astNtB5_14ExpressionPart10expression
FNDA:2656,_RNvMs4_NtNtNtCseriWsCb5ev6_4koan7machine5model3astNtB5_14ExpressionPart11resolve_for
FNDA:2381,_RNvMs4_NtNtNtCseriWsCb5ev6_4koan7machine5model3astNtB5_14ExpressionPart7resolve
FNDA:130,_RNvMs4_NtNtNtCseriWsCb5ev6_4koan7machine5model3astNtB5_14ExpressionPart9summarize
FNDA:3812,_RNvMs7_NtNtNtCseriWsCb5ev6_4koan7machine5model3astNtB5_11KExpression11untyped_key
FNDA:11,_RNvMs7_NtNtNtCseriWsCb5ev6_4koan7machine5model3astNtB5_11KExpression24borrow_inner_expressions
FNDA:463,_RNvMs7_NtNtNtCseriWsCb5ev6_4koan7machine5model3astNtB5_11KExpression26binder_name_from_type_part
FNDA:4,_RNvMs7_NtNtNtCseriWsCb5ev6_4koan7machine5model3astNtB5_11KExpression32try_take_inner_expressions_split
FNDA:5936,_RNvMs7_NtNtNtCseriWsCb5ev6_4koan7machine5model3astNtB5_11KExpression3new
FNDA:1781,_RNvXNtNtNtCseriWsCb5ev6_4koan7machine5model3astNtB2_8TypeExprNtNtCs27Vx93FoQ6z_4core5clone5Clone5clone
FNDA:22,_RNvXs3_NtNtNtCseriWsCb5ev6_4koan7machine5model3astNtB5_14ExpressionPartNtNtCs27Vx93FoQ6z_4core3fmt5Debug3fmt
FNDA:7385,_RNvXs5_NtNtNtCseriWsCb5ev6_4koan7machine5model3astNtB5_14ExpressionPartNtNtCs27Vx93FoQ6z_4core5clone5Clone5clone
FNDA:2608,_RNvXs6_NtNtNtCseriWsCb5ev6_4koan7machine5model3astNtB5_11KExpressionNtNtCs27Vx93FoQ6z_4core5clone5Clone5clone
FNDA:3,_RNvXs8_NtNtNtCseriWsCb5ev6_4koan7machine5model3astNtB5_11KExpressionNtNtCs27Vx93FoQ6z_4core3fmt5Debug3fmt
FNDA:2,_RNvXs9_NtNtNtCseriWsCb5ev6_4koan7machine5model3astNtB5_11KExpressionNtNtNtB7_5types7ktraits9Parseable5equal
FNDA:1,_RNvXs9_NtNtNtCseriWsCb5ev6_4koan7machine5model3astNtB5_11KExpressionNtNtNtB7_5types7ktraits9Parseable5ktype
FNDA:53,_RNvXs9_NtNtNtCseriWsCb5ev6_4koan7machine5model3astNtB5_11KExpressionNtNtNtB7_5types7ktraits9Parseable9summarize
FNDA:3,_RNvXs_NtNtNtCseriWsCb5ev6_4koan7machine5model3astNtB4_8TypeExprNtNtCs27Vx93FoQ6z_4core3cmp9PartialEq2eq
FNF:30
FNH:27
DA:36,2009
DA:37,2009
DA:38,2009
DA:39,2
DA:40,2007
DA:41,2009
DA:42,2009
DA:43,2009
DA:44,2009
DA:45,2009
DA:46,2009
DA:50,3
DA:51,3
DA:52,3
DA:58,25
DA:59,25
DA:60,25
DA:61,25
DA:75,1739
DA:76,1739
DA:77,1739
DA:78,1739
DA:79,1739
DA:80,1739
DA:81,1739
DA:84,112
DA:85,112
DA:86,107
DA:87,3
DA:88,3
DA:89,3
DA:91,2
DA:92,3
DA:93,2
DA:96,112
DA:118,22
DA:119,22
DA:120,2
DA:121,10
DA:122,2
DA:123,2
DA:124,0
DA:125,2
DA:126,2
DA:127,2
DA:128,0
DA:130,22
DA:134,11
DA:135,11
DA:136,11
DA:137,11
DA:138,11
DA:141,139
DA:142,139
DA:143,56
DA:144,41
DA:145,12
DA:146,5
DA:147,0
DA:148,1
DA:149,2
DA:150,1
DA:152,1
DA:153,1
DA:154,1
DA:155,1
DA:156,1
DA:157,1
DA:159,18
DA:160,11
DA:161,4
DA:162,2
DA:163,1
DA:165,5
DA:167,139
DA:174,2951
DA:176,2951
DA:177,690
DA:183,3
DA:184,3
DA:185,3
DA:187,3
DA:188,687
DA:191,687
DA:192,295
DA:193,295
DA:194,295
DA:195,295
DA:196,295
DA:198,392
DA:200,2261
DA:201,2261
DA:202,2951
DA:204,2608
DA:205,685
DA:206,0
DA:207,391
DA:208,0
DA:209,476
DA:210,150
DA:211,9
DA:212,50
DA:213,829
DA:219,0
DA:221,0
DA:222,0
DA:226,0
DA:227,0
DA:228,0
DA:229,0
DA:230,0
DA:231,0
DA:233,0
DA:235,0
DA:239,703
DA:241,2608
DA:245,7966
DA:246,7966
DA:247,2583
DA:248,1776
DA:249,1336
DA:250,1024
DA:251,81
DA:252,22
DA:253,2
DA:254,1137
DA:255,5
DA:257,7966
DA:261,2776
DA:262,2776
DA:263,2776
DA:264,2776
DA:265,2776
DA:266,2776
DA:267,2776
DA:281,6447
DA:282,6447
DA:283,6447
DA:288,4202
DA:289,4202
DA:290,4202
DA:291,13468
DA:292,6357
DA:293,7111
DA:294,13468
DA:295,4202
DA:296,4202
DA:301,529
DA:302,529
DA:303,527
DA:304,1
DA:306,529
DA:311,11
DA:312,11
DA:313,15
DA:314,15
DA:315,7
DA:316,8
DA:319,3
DA:320,11
DA:325,4
DA:326,4
DA:327,4
DA:328,4
DA:329,4
DA:330,1
DA:332,3
DA:333,2
DA:334,1
DA:335,1
DA:336,1
DA:337,1
DA:340,2
DA:341,3
DA:342,3
DA:343,2
DA:344,2
DA:345,2
DA:346,1
DA:347,1
DA:348,1
DA:349,1
DA:350,1
DA:351,1
DA:352,1
DA:353,1
DA:354,1
DA:358,1
DA:359,4
DA:363,3
DA:364,3
DA:365,3
DA:369,2
DA:370,1
DA:371,57
DA:372,57
DA:373,118
DA:374,57
DA:375,57
DA:376,57
BRF:0
BRH:0
LF:209
LH:190
end_of_record
SF:/var/home/jack/Code/koan/src/machine/model/types/ktraits.rs
FN:27,_RINvXNtNtNtNtCscUx3zdyuqfq_4koan7machine5model5types7ktraitsDNtB3_12SerializableEL_NtNtCs27Vx93FoQ6z_4core4hash4Hash4hashNtNtNtCs75vJTIYSa2J_3std4hash6random13DefaultHasherEBb_
FN:33,_RNvXs_NtNtNtNtCscUx3zdyuqfq_4koan7machine5model5types7ktraitsDNtB4_12SerializableEL_NtNtCs27Vx93FoQ6z_4core3cmp9PartialEq2eq
FN:27,_RINvXNtNtNtNtCseriWsCb5ev6_4koan7machine5model5types7ktraitsDNtB3_12SerializableEL_NtNtCs27Vx93FoQ6z_4core4hash4Hash4hashNtNtNtCs75vJTIYSa2J_3std4hash6random13DefaultHasherEBb_
FN:33,_RNvXs_NtNtNtNtCseriWsCb5ev6_4koan7machine5model5types7ktraitsDNtB4_12SerializableEL_NtNtCs27Vx93FoQ6z_4core3cmp9PartialEq2eq
FNDA:1,_RINvXNtNtNtNtCscUx3zdyuqfq_4koan7machine5model5types7ktraitsDNtB3_12SerializableEL_NtNtCs27Vx93FoQ6z_4core4hash4Hash4hashNtNtNtCs75vJTIYSa2J_3std4hash6random13DefaultHasherEBb_
FNDA:0,_RNvXs_NtNtNtNtCscUx3zdyuqfq_4koan7machine5model5types7ktraitsDNtB4_12SerializableEL_NtNtCs27Vx93FoQ6z_4core3cmp9PartialEq2eq
FNDA:37,_RINvXNtNtNtNtCseriWsCb5ev6_4koan7machine5model5types7ktraitsDNtB3_12SerializableEL_NtNtCs27Vx93FoQ6z_4core4hash4Hash4hashNtNtNtCs75vJTIYSa2J_3std4hash6random13DefaultHasherEBb_
FNDA:12,_RNvXs_NtNtNtNtCseriWsCb5ev6_4koan7machine5model5types7ktraitsDNtB4_12SerializableEL_NtNtCs27Vx93FoQ6z_4core3cmp9PartialEq2eq
FNF:2
FNH:2
DA:27,38
DA:28,38
DA:29,38
DA:33,12
DA:34,12
DA:35,12
BRF:0
BRH:0
LF:6
LH:6
end_of_record
SF:/var/home/jack/Code/koan/src/machine/model/types/ktype.rs
FN:77,_RNvMs0_NtNtNtNtCscUx3zdyuqfq_4koan7machine5model5types5ktypeNtB5_12UserTypeKind15struct_sentinel
FN:65,_RNvMs0_NtNtNtNtCscUx3zdyuqfq_4koan7machine5model5types5ktypeNtB5_12UserTypeKind15surface_keyword
FN:82,_RNvMs0_NtNtNtNtCscUx3zdyuqfq_4koan7machine5model5types5ktypeNtB5_12UserTypeKind15tagged_sentinel
FN:173,_RNvMs1_NtNtNtNtCscUx3zdyuqfq_4koan7machine5model5types5ktypeNtB5_5KType4name
FN:222,_RNvMs1_NtNtNtNtCscUx3zdyuqfq_4koan7machine5model5types5ktypeNtB5_5KType6render
FN:50,_RNvXNtNtNtNtCscUx3zdyuqfq_4koan7machine5model5types5ktypeNtB2_12UserTypeKindNtNtCs27Vx93FoQ6z_4core3cmp9PartialEq2eq
FN:234,_RNvXs2_NtNtNtNtCscUx3zdyuqfq_4koan7machine5model5types5ktypeNtB5_5KTypeNtNtCs27Vx93FoQ6z_4core3cmp9PartialEq2eq
FN:283,_RNvXs4_NtNtNtNtCscUx3zdyuqfq_4koan7machine5model5types5ktypeNtB5_5KTypeNtNtCs27Vx93FoQ6z_4core3fmt5Debug3fmt
FN:182,_RNCNvMs1_NtNtNtNtCscUx3zdyuqfq_4koan7machine5model5types5ktypeNtB7_5KType4name0Bf_
FN:202,_RNCNvMs1_NtNtNtNtCscUx3zdyuqfq_4koan7machine5model5types5ktypeNtB7_5KType4names0_0Bf_
FN:214,_RNCNvMs1_NtNtNtNtCscUx3zdyuqfq_4koan7machine5model5types5ktypeNtB7_5KType4names1_0Bf_
FN:186,_RNCNvMs1_NtNtNtNtCscUx3zdyuqfq_4koan7machine5model5types5ktypeNtB7_5KType4names_0Bf_
FN:77,_RNvMs0_NtNtNtNtCseriWsCb5ev6_4koan7machine5model5types5ktypeNtB5_12UserTypeKind15struct_sentinel
FN:65,_RNvMs0_NtNtNtNtCseriWsCb5ev6_4koan7machine5model5types5ktypeNtB5_12UserTypeKind15surface_keyword
FN:82,_RNvMs0_NtNtNtNtCseriWsCb5ev6_4koan7machine5model5types5ktypeNtB5_12UserTypeKind15tagged_sentinel
FN:173,_RNvMs1_NtNtNtNtCseriWsCb5ev6_4koan7machine5model5types5ktypeNtB5_5KType4name
FN:222,_RNvMs1_NtNtNtNtCseriWsCb5ev6_4koan7machine5model5types5ktypeNtB5_5KType6render
FN:50,_RNvXNtNtNtNtCseriWsCb5ev6_4koan7machine5model5types5ktypeNtB2_12UserTypeKindNtNtCs27Vx93FoQ6z_4core3cmp9PartialEq2eq
FN:234,_RNvXs2_NtNtNtNtCseriWsCb5ev6_4koan7machine5model5types5ktypeNtB5_5KTypeNtNtCs27Vx93FoQ6z_4core3cmp9PartialEq2eq
FN:283,_RNvXs4_NtNtNtNtCseriWsCb5ev6_4koan7machine5model5types5ktypeNtB5_5KTypeNtNtCs27Vx93FoQ6z_4core3fmt5Debug3fmt
FN:299,_RNvNtNtNtNtNtCseriWsCb5ev6_4koan7machine5model5types5ktype5testss_17name_renders_dict
FN:314,_RNvNtNtNtNtNtCseriWsCb5ev6_4koan7machine5model5types5ktype5testss_20name_renders_functor
FN:305,_RNvNtNtNtNtNtCseriWsCb5ev6_4koan7machine5model5types5ktype5testss_21name_renders_function
FN:376,_RNvNtNtNtNtNtCseriWsCb5ev6_4koan7machine5model5types5ktype5testss_25name_renders_mu_as_binder
FN:367,_RNvNtNtNtNtNtCseriWsCb5ev6_4koan7machine5model5types5ktype5testss_29name_renders_function_nullary
FN:293,_RNvNtNtNtNtNtCseriWsCb5ev6_4koan7machine5model5types5ktype5testss_31name_renders_parameterized_list
FN:391,_RNvNtNtNtNtNtCseriWsCb5ev6_4koan7machine5model5types5ktype5testss_31user_type_kind_surface_keywords
FN:323,_RNvNtNtNtNtNtCseriWsCb5ev6_4koan7machine5model5types5ktype5testss_32functor_structural_eq_same_shape
FN:478,_RNvNtNtNtNtNtCseriWsCb5ev6_4koan7machine5model5types5ktype5testss_32user_type_name_renders_bare_name
FN:385,_RNvNtNtNtNtNtCseriWsCb5ev6_4koan7machine5model5types5ktype5testss_34name_renders_recursive_ref_as_name
FN:409,_RNvNtNtNtNtNtCseriWsCb5ev6_4koan7machine5model5types5ktype5testss_36newtype_kind_partial_eq_ignores_repr
FN:458,_RNvNtNtNtNtNtCseriWsCb5ev6_4koan7machine5model5types5ktype5testss_39any_user_type_name_renders_kind_keyword
FN:354,_RNvNtNtNtNtNtCseriWsCb5ev6_4koan7machine5model5types5ktype5testss_39functor_and_function_are_disjoint_types
FN:421,_RNvNtNtNtNtNtCseriWsCb5ev6_4koan7machine5model5types5ktype5testss_43struct_and_tagged_partial_eq_ignore_payload
FN:336,_RNvNtNtNtNtNtCseriWsCb5ev6_4koan7machine5model5types5ktype5testss_48functor_structural_neq_when_params_or_ret_differ
FN:470,_RNvNtNtNtNtNtCseriWsCb5ev6_4koan7machine5model5types5ktype5testss_52any_module_and_any_signature_render_surface_keywords
FN:438,_RNvNtNtNtNtNtCseriWsCb5ev6_4koan7machine5model5types5ktype5testss_62user_type_kind_type_constructor_partial_eq_ignores_param_names
FN:182,_RNCNvMs1_NtNtNtNtCseriWsCb5ev6_4koan7machine5model5types5ktypeNtB7_5KType4name0Bf_
FN:202,_RNCNvMs1_NtNtNtNtCseriWsCb5ev6_4koan7machine5model5types5ktypeNtB7_5KType4names0_0Bf_
FN:214,_RNCNvMs1_NtNtNtNtCseriWsCb5ev6_4koan7machine5model5types5ktypeNtB7_5KType4names1_0Bf_
FN:186,_RNCNvMs1_NtNtNtNtCseriWsCb5ev6_4koan7machine5model5types5ktypeNtB7_5KType4names_0Bf_
FNDA:90,_RNvMs0_NtNtNtNtCscUx3zdyuqfq_4koan7machine5model5types5ktypeNtB5_12UserTypeKind15struct_sentinel
FNDA:0,_RNvMs0_NtNtNtNtCscUx3zdyuqfq_4koan7machine5model5types5ktypeNtB5_12UserTypeKind15surface_keyword
FNDA:82,_RNvMs0_NtNtNtNtCscUx3zdyuqfq_4koan7machine5model5types5ktypeNtB5_12UserTypeKind15tagged_sentinel
FNDA:8,_RNvMs1_NtNtNtNtCscUx3zdyuqfq_4koan7machine5model5types5ktypeNtB5_5KType4name
FNDA:0,_RNvMs1_NtNtNtNtCscUx3zdyuqfq_4koan7machine5model5types5ktypeNtB5_5KType6render
FNDA:42,_RNvXNtNtNtNtCscUx3zdyuqfq_4koan7machine5model5types5ktypeNtB2_12UserTypeKindNtNtCs27Vx93FoQ6z_4core3cmp9PartialEq2eq
FNDA:2794,_RNvXs2_NtNtNtNtCscUx3zdyuqfq_4koan7machine5model5types5ktypeNtB5_5KTypeNtNtCs27Vx93FoQ6z_4core3cmp9PartialEq2eq
FNDA:0,_RNvXs4_NtNtNtNtCscUx3zdyuqfq_4koan7machine5model5types5ktypeNtB5_5KTypeNtNtCs27Vx93FoQ6z_4core3fmt5Debug3fmt
FNDA:0,_RNCNvMs1_NtNtNtNtCscUx3zdyuqfq_4koan7machine5model5types5ktypeNtB7_5KType4name0Bf_
FNDA:0,_RNCNvMs1_NtNtNtNtCscUx3zdyuqfq_4koan7machine5model5types5ktypeNtB7_5KType4names0_0Bf_
FNDA:0,_RNCNvMs1_NtNtNtNtCscUx3zdyuqfq_4koan7machine5model5types5ktypeNtB7_5KType4names1_0Bf_
FNDA:0,_RNCNvMs1_NtNtNtNtCscUx3zdyuqfq_4koan7machine5model5types5ktypeNtB7_5KType4names_0Bf_
FNDA:1059,_RNvMs0_NtNtNtNtCseriWsCb5ev6_4koan7machine5model5types5ktypeNtB5_12UserTypeKind15struct_sentinel
FNDA:6,_RNvMs0_NtNtNtNtCseriWsCb5ev6_4koan7machine5model5types5ktypeNtB5_12UserTypeKind15surface_keyword
FNDA:999,_RNvMs0_NtNtNtNtCseriWsCb5ev6_4koan7machine5model5types5ktypeNtB5_12UserTypeKind15tagged_sentinel
FNDA:223,_RNvMs1_NtNtNtNtCseriWsCb5ev6_4koan7machine5model5types5ktypeNtB5_5KType4name
FNDA:4,_RNvMs1_NtNtNtNtCseriWsCb5ev6_4koan7machine5model5types5ktypeNtB5_5KType6render
FNDA:515,_RNvXNtNtNtNtCseriWsCb5ev6_4koan7machine5model5types5ktypeNtB2_12UserTypeKindNtNtCs27Vx93FoQ6z_4core3cmp9PartialEq2eq
FNDA:29768,_RNvXs2_NtNtNtNtCseriWsCb5ev6_4koan7machine5model5types5ktypeNtB5_5KTypeNtNtCs27Vx93FoQ6z_4core3cmp9PartialEq2eq
FNDA:1,_RNvXs4_NtNtNtNtCseriWsCb5ev6_4koan7machine5model5types5ktypeNtB5_5KTypeNtNtCs27Vx93FoQ6z_4core3fmt5Debug3fmt
FNDA:1,_RNvNtNtNtNtNtCseriWsCb5ev6_4koan7machine5model5types5ktype5testss_17name_renders_dict
FNDA:1,_RNvNtNtNtNtNtCseriWsCb5ev6_4koan7machine5model5types5ktype5testss_20name_renders_functor
FNDA:1,_RNvNtNtNtNtNtCseriWsCb5ev6_4koan7machine5model5types5ktype5testss_21name_renders_function
FNDA:1,_RNvNtNtNtNtNtCseriWsCb5ev6_4koan7machine5model5types5ktype5testss_25name_renders_mu_as_binder
FNDA:1,_RNvNtNtNtNtNtCseriWsCb5ev6_4koan7machine5model5types5ktype5testss_29name_renders_function_nullary
FNDA:1,_RNvNtNtNtNtNtCseriWsCb5ev6_4koan7machine5model5types5ktype5testss_31name_renders_parameterized_list
FNDA:1,_RNvNtNtNtNtNtCseriWsCb5ev6_4koan7machine5model5types5ktype5testss_31user_type_kind_surface_keywords
FNDA:1,_RNvNtNtNtNtNtCseriWsCb5ev6_4koan7machine5model5types5ktype5testss_32functor_structural_eq_same_shape
FNDA:1,_RNvNtNtNtNtNtCseriWsCb5ev6_4koan7machine5model5types5ktype5testss_32user_type_name_renders_bare_name
FNDA:1,_RNvNtNtNtNtNtCseriWsCb5ev6_4koan7machine5model5types5ktype5testss_34name_renders_recursive_ref_as_name
FNDA:1,_RNvNtNtNtNtNtCseriWsCb5ev6_4koan7machine5model5types5ktype5testss_36newtype_kind_partial_eq_ignores_repr
FNDA:1,_RNvNtNtNtNtNtCseriWsCb5ev6_4koan7machine5model5types5ktype5testss_39any_user_type_name_renders_kind_keyword
FNDA:1,_RNvNtNtNtNtNtCseriWsCb5ev6_4koan7machine5model5types5ktype5testss_39functor_and_function_are_disjoint_types
FNDA:1,_RNvNtNtNtNtNtCseriWsCb5ev6_4koan7machine5model5types5ktype5testss_43struct_and_tagged_partial_eq_ignore_payload
FNDA:1,_RNvNtNtNtNtNtCseriWsCb5ev6_4koan7machine5model5types5ktype5testss_48functor_structural_neq_when_params_or_ret_differ
FNDA:1,_RNvNtNtNtNtNtCseriWsCb5ev6_4koan7machine5model5types5ktype5testss_52any_module_and_any_signature_render_surface_keywords
FNDA:1,_RNvNtNtNtNtNtCseriWsCb5ev6_4koan7machine5model5types5ktype5testss_62user_type_kind_type_constructor_partial_eq_ignores_param_names
FNDA:4,_RNCNvMs1_NtNtNtNtCseriWsCb5ev6_4koan7machine5model5types5ktypeNtB7_5KType4name0Bf_
FNDA:1,_RNCNvMs1_NtNtNtNtCseriWsCb5ev6_4koan7machine5model5types5ktypeNtB7_5KType4names0_0Bf_
FNDA:1,_RNCNvMs1_NtNtNtNtCseriWsCb5ev6_4koan7machine5model5types5ktypeNtB7_5KType4names1_0Bf_
FNDA:2,_RNCNvMs1_NtNtNtNtCseriWsCb5ev6_4koan7machine5model5types5ktypeNtB7_5KType4names_0Bf_
FNF:29
FNH:29
DA:50,557
DA:52,509
DA:53,557
DA:59,557
DA:65,6
DA:66,6
DA:67,2
DA:68,2
DA:69,1
DA:70,1
DA:72,6
DA:77,1149
DA:78,1149
DA:79,1149
DA:82,1081
DA:83,1081
DA:84,1081
DA:173,231
DA:174,231
DA:175,106
DA:176,26
DA:177,2
DA:178,14
DA:179,10
DA:180,2
DA:181,4
DA:182,4
DA:183,4
DA:185,1
DA:186,2
DA:187,1
DA:189,0
DA:190,0
DA:191,1
DA:192,43
DA:193,7
DA:194,2
DA:195,2
DA:196,2
DA:197,1
DA:200,1
DA:201,1
DA:202,1
DA:203,1
DA:204,1
DA:207,1
DA:208,2
DA:209,1
DA:210,1
DA:211,1
DA:212,1
DA:213,1
DA:214,1
DA:215,1
DA:217,3
DA:219,231
DA:222,4
DA:223,4
DA:224,4
DA:234,32562
DA:236,32562
DA:240,16547
DA:241,47
DA:242,7
DA:243,7
DA:244,7
DA:246,4
DA:247,4
DA:250,42
DA:251,42
DA:252,42
DA:253,501
DA:255,3
DA:256,3
DA:257,3
DA:259,3
DA:260,3
DA:263,1
DA:264,1
DA:265,1
DA:266,0
DA:267,0
DA:270,1
DA:271,1
DA:272,1
DA:273,2
DA:274,15397
DA:276,32562
DA:283,1
DA:284,1
DA:285,1
DA:293,1
DA:294,1
DA:295,1
DA:296,1
DA:299,1
DA:300,1
DA:301,1
DA:302,1
DA:305,1
DA:306,1
DA:307,1
DA:308,1
DA:309,1
DA:310,1
DA:311,1
DA:314,1
DA:315,1
DA:316,1
DA:317,1
DA:318,1
DA:319,1
DA:320,1
DA:323,1
DA:324,1
DA:325,1
DA:326,1
DA:327,1
DA:328,1
DA:329,1
DA:330,1
DA:331,1
DA:332,1
DA:333,1
DA:336,1
DA:337,1
DA:338,1
DA:339,1
DA:340,1
DA:341,1
DA:342,1
DA:343,1
DA:344,1
DA:345,1
DA:346,1
DA:347,1
DA:348,1
DA:349,1
DA:350,1
DA:351,1
DA:354,1
DA:355,1
DA:356,1
DA:357,1
DA:358,1
DA:359,1
DA:360,1
DA:361,1
DA:362,1
DA:363,1
DA:364,1
DA:367,1
DA:368,1
DA:369,1
DA:370,1
DA:371,1
DA:372,1
DA:373,1
DA:376,1
DA:377,1
DA:378,1
DA:379,1
DA:380,1
DA:381,1
DA:382,1
DA:385,1
DA:386,1
DA:387,1
DA:388,1
DA:391,1
DA:392,1
DA:393,1
DA:394,1
DA:395,1
DA:398,1
DA:399,1
DA:400,1
DA:401,1
DA:402,1
DA:403,1
DA:406,1
DA:409,1
DA:410,1
DA:411,1
DA:412,1
DA:413,1
DA:414,1
DA:415,1
DA:421,1
DA:422,1
DA:423,1
DA:424,1
DA:425,1
DA:426,1
DA:428,1
DA:429,1
DA:430,1
DA:431,1
DA:432,1
DA:434,1
DA:435,1
DA:438,1
DA:439,1
DA:440,1
DA:441,1
DA:442,1
DA:443,1
DA:444,1
DA:445,1
DA:446,1
DA:447,1
DA:448,1
DA:449,1
DA:450,1
DA:451,1
DA:452,1
DA:453,1
DA:454,1
DA:455,1
DA:458,1
DA:459,1
DA:460,1
DA:463,1
DA:464,1
DA:467,1
DA:470,1
DA:471,1
DA:472,1
DA:473,1
DA:474,1
DA:475,1
DA:478,1
DA:481,1
DA:482,1
DA:483,1
DA:484,1
DA:485,1
DA:486,1
DA:487,1
BRF:0
BRH:0
LF:243
LH:238
end_of_record
SF:/var/home/jack/Code/koan/src/machine/model/types/ktype_predicates.rs
FN:241,_RNvMNtNtNtNtCscUx3zdyuqfq_4koan7machine5model5types16ktype_predicatesNtNtB4_5ktype5KType12accepts_part
FN:133,_RNvMNtNtNtNtCscUx3zdyuqfq_4koan7machine5model5types16ktype_predicatesNtNtB4_5ktype5KType12satisfied_by
FN:140,_RNvMNtNtNtNtCscUx3zdyuqfq_4koan7machine5model5types16ktype_predicatesNtNtB4_5ktype5KType13matches_value
FN:14,_RNvMNtNtNtNtCscUx3zdyuqfq_4koan7machine5model5types16ktype_predicatesNtNtB4_5ktype5KType16is_type_denoting
FN:46,_RNvMNtNtNtNtCscUx3zdyuqfq_4koan7machine5model5types16ktype_predicatesNtNtB4_5ktype5KType21is_more_specific_than
FN:30,_RNvMNtNtNtNtCscUx3zdyuqfq_4koan7machine5model5types16ktype_predicatesNtNtB4_5ktype5KType28is_admissible_functor_return
FN:365,_RNCNCNvMNtNtNtNtCscUx3zdyuqfq_4koan7machine5model5types16ktype_predicatesNtNtB8_5ktype5KType12accepts_part00Be_
FN:188,_RNCNCNvMNtNtNtNtCscUx3zdyuqfq_4koan7machine5model5types16ktype_predicatesNtNtB8_5ktype5KType13matches_values0_00Be_
FN:364,_RNCNvMNtNtNtNtCscUx3zdyuqfq_4koan7machine5model5types16ktype_predicatesNtNtB6_5ktype5KType12accepts_part0Bc_
FN:144,_RNCNvMNtNtNtNtCscUx3zdyuqfq_4koan7machine5model5types16ktype_predicatesNtNtB6_5ktype5KType13matches_value0Bc_
FN:187,_RNCNvMNtNtNtNtCscUx3zdyuqfq_4koan7machine5model5types16ktype_predicatesNtNtB6_5ktype5KType13matches_values0_0Bc_
FN:221,_RNCNvMNtNtNtNtCscUx3zdyuqfq_4koan7machine5model5types16ktype_predicatesNtNtB6_5ktype5KType13matches_values1_0Bc_
FN:225,_RNCNvMNtNtNtNtCscUx3zdyuqfq_4koan7machine5model5types16ktype_predicatesNtNtB6_5ktype5KType13matches_values2_0Bc_
FN:148,_RNCNvMNtNtNtNtCscUx3zdyuqfq_4koan7machine5model5types16ktype_predicatesNtNtB6_5ktype5KType13matches_values_0Bc_
FN:69,_RNCNvMNtNtNtNtCscUx3zdyuqfq_4koan7machine5model5types16ktype_predicatesNtNtB6_5ktype5KType21is_more_specific_than0Bc_
FN:104,_RNCNvMNtNtNtNtCscUx3zdyuqfq_4koan7machine5model5types16ktype_predicatesNtNtB6_5ktype5KType21is_more_specific_thans0_0Bc_
FN:119,_RNCNvMNtNtNtNtCscUx3zdyuqfq_4koan7machine5model5types16ktype_predicatesNtNtB6_5ktype5KType21is_more_specific_thans1_0Bc_
FN:123,_RNCNvMNtNtNtNtCscUx3zdyuqfq_4koan7machine5model5types16ktype_predicatesNtNtB6_5ktype5KType21is_more_specific_thans2_0Bc_
FN:80,_RNCNvMNtNtNtNtCscUx3zdyuqfq_4koan7machine5model5types16ktype_predicatesNtNtB6_5ktype5KType21is_more_specific_thans_0Bc_
FN:401,_RNvNtNtNtNtCscUx3zdyuqfq_4koan7machine5model5types16ktype_predicates15function_compat
FN:388,_RNvNtNtNtNtCscUx3zdyuqfq_4koan7machine5model5types16ktype_predicates24result_field_param_index
FN:365,_RNCNCNvMNtNtNtNtCseriWsCb5ev6_4koan7machine5model5types16ktype_predicatesNtNtB8_5ktype5KType12accepts_part00Be_
FN:188,_RNCNCNvMNtNtNtNtCseriWsCb5ev6_4koan7machine5model5types16ktype_predicatesNtNtB8_5ktype5KType13matches_values0_00Be_
FN:364,_RNCNvMNtNtNtNtCseriWsCb5ev6_4koan7machine5model5types16ktype_predicatesNtNtB6_5ktype5KType12accepts_part0Bc_
FN:144,_RNCNvMNtNtNtNtCseriWsCb5ev6_4koan7machine5model5types16ktype_predicatesNtNtB6_5ktype5KType13matches_value0Bc_
FN:187,_RNCNvMNtNtNtNtCseriWsCb5ev6_4koan7machine5model5types16ktype_predicatesNtNtB6_5ktype5KType13matches_values0_0Bc_
FN:221,_RNCNvMNtNtNtNtCseriWsCb5ev6_4koan7machine5model5types16ktype_predicatesNtNtB6_5ktype5KType13matches_values1_0Bc_
FN:225,_RNCNvMNtNtNtNtCseriWsCb5ev6_4koan7machine5model5types16ktype_predicatesNtNtB6_5ktype5KType13matches_values2_0Bc_
FN:148,_RNCNvMNtNtNtNtCseriWsCb5ev6_4koan7machine5model5types16ktype_predicatesNtNtB6_5ktype5KType13matches_values_0Bc_
FN:69,_RNCNvMNtNtNtNtCseriWsCb5ev6_4koan7machine5model5types16ktype_predicatesNtNtB6_5ktype5KType21is_more_specific_than0Bc_
FN:104,_RNCNvMNtNtNtNtCseriWsCb5ev6_4koan7machine5model5types16ktype_predicatesNtNtB6_5ktype5KType21is_more_specific_thans0_0Bc_
FN:119,_RNCNvMNtNtNtNtCseriWsCb5ev6_4koan7machine5model5types16ktype_predicatesNtNtB6_5ktype5KType21is_more_specific_thans1_0Bc_
FN:123,_RNCNvMNtNtNtNtCseriWsCb5ev6_4koan7machine5model5types16ktype_predicatesNtNtB6_5ktype5KType21is_more_specific_thans2_0Bc_
FN:80,_RNCNvMNtNtNtNtCseriWsCb5ev6_4koan7machine5model5types16ktype_predicatesNtNtB6_5ktype5KType21is_more_specific_thans_0Bc_
FN:241,_RNvMNtNtNtNtCseriWsCb5ev6_4koan7machine5model5types16ktype_predicatesNtNtB4_5ktype5KType12accepts_part
FN:133,_RNvMNtNtNtNtCseriWsCb5ev6_4koan7machine5model5types16ktype_predicatesNtNtB4_5ktype5KType12satisfied_by
FN:140,_RNvMNtNtNtNtCseriWsCb5ev6_4koan7machine5model5types16ktype_predicatesNtNtB4_5ktype5KType13matches_value
FN:14,_RNvMNtNtNtNtCseriWsCb5ev6_4koan7machine5model5types16ktype_predicatesNtNtB4_5ktype5KType16is_type_denoting
FN:46,_RNvMNtNtNtNtCseriWsCb5ev6_4koan7machine5model5types16ktype_predicatesNtNtB4_5ktype5KType21is_more_specific_than
FN:30,_RNvMNtNtNtNtCseriWsCb5ev6_4koan7machine5model5types16ktype_predicatesNtNtB4_5ktype5KType28is_admissible_functor_return
FN:401,_RNvNtNtNtNtCseriWsCb5ev6_4koan7machine5model5types16ktype_predicates15function_compat
FN:388,_RNvNtNtNtNtCseriWsCb5ev6_4koan7machine5model5types16ktype_predicates24result_field_param_index
FNDA:1130,_RNvMNtNtNtNtCscUx3zdyuqfq_4koan7machine5model5types16ktype_predicatesNtNtB4_5ktype5KType12accepts_part
FNDA:0,_RNvMNtNtNtNtCscUx3zdyuqfq_4koan7machine5model5types16ktype_predicatesNtNtB4_5ktype5KType12satisfied_by
FNDA:12,_RNvMNtNtNtNtCscUx3zdyuqfq_4koan7machine5model5types16ktype_predicatesNtNtB4_5ktype5KType13matches_value
FNDA:16,_RNvMNtNtNtNtCscUx3zdyuqfq_4koan7machine5model5types16ktype_predicatesNtNtB4_5ktype5KType16is_type_denoting
FNDA:37,_RNvMNtNtNtNtCscUx3zdyuqfq_4koan7machine5model5types16ktype_predicatesNtNtB4_5ktype5KType21is_more_specific_than
FNDA:10,_RNvMNtNtNtNtCscUx3zdyuqfq_4koan7machine5model5types16ktype_predicatesNtNtB4_5ktype5KType28is_admissible_functor_return
FNDA:0,_RNCNCNvMNtNtNtNtCscUx3zdyuqfq_4koan7machine5model5types16ktype_predicatesNtNtB8_5ktype5KType12accepts_part00Be_
FNDA:0,_RNCNCNvMNtNtNtNtCscUx3zdyuqfq_4koan7machine5model5types16ktype_predicatesNtNtB8_5ktype5KType13matches_values0_00Be_
FNDA:0,_RNCNvMNtNtNtNtCscUx3zdyuqfq_4koan7machine5model5types16ktype_predicatesNtNtB6_5ktype5KType12accepts_part0Bc_
FNDA:0,_RNCNvMNtNtNtNtCscUx3zdyuqfq_4koan7machine5model5types16ktype_predicatesNtNtB6_5ktype5KType13matches_value0Bc_
FNDA:0,_RNCNvMNtNtNtNtCscUx3zdyuqfq_4koan7machine5model5types16ktype_predicatesNtNtB6_5ktype5KType13matches_values0_0Bc_
FNDA:0,_RNCNvMNtNtNtNtCscUx3zdyuqfq_4koan7machine5model5types16ktype_predicatesNtNtB6_5ktype5KType13matches_values1_0Bc_
FNDA:0,_RNCNvMNtNtNtNtCscUx3zdyuqfq_4koan7machine5model5types16ktype_predicatesNtNtB6_5ktype5KType13matches_values2_0Bc_
FNDA:0,_RNCNvMNtNtNtNtCscUx3zdyuqfq_4koan7machine5model5types16ktype_predicatesNtNtB6_5ktype5KType13matches_values_0Bc_
FNDA:0,_RNCNvMNtNtNtNtCscUx3zdyuqfq_4koan7machine5model5types16ktype_predicatesNtNtB6_5ktype5KType21is_more_specific_than0Bc_
FNDA:0,_RNCNvMNtNtNtNtCscUx3zdyuqfq_4koan7machine5model5types16ktype_predicatesNtNtB6_5ktype5KType21is_more_specific_thans0_0Bc_
FNDA:0,_RNCNvMNtNtNtNtCscUx3zdyuqfq_4koan7machine5model5types16ktype_predicatesNtNtB6_5ktype5KType21is_more_specific_thans1_0Bc_
FNDA:0,_RNCNvMNtNtNtNtCscUx3zdyuqfq_4koan7machine5model5types16ktype_predicatesNtNtB6_5ktype5KType21is_more_specific_thans2_0Bc_
FNDA:0,_RNCNvMNtNtNtNtCscUx3zdyuqfq_4koan7machine5model5types16ktype_predicatesNtNtB6_5ktype5KType21is_more_specific_thans_0Bc_
FNDA:0,_RNvNtNtNtNtCscUx3zdyuqfq_4koan7machine5model5types16ktype_predicates15function_compat
FNDA:0,_RNvNtNtNtNtCscUx3zdyuqfq_4koan7machine5model5types16ktype_predicates24result_field_param_index
FNDA:2,_RNCNCNvMNtNtNtNtCseriWsCb5ev6_4koan7machine5model5types16ktype_predicatesNtNtB8_5ktype5KType12accepts_part00Be_
FNDA:2,_RNCNCNvMNtNtNtNtCseriWsCb5ev6_4koan7machine5model5types16ktype_predicatesNtNtB8_5ktype5KType13matches_values0_00Be_
FNDA:3,_RNCNvMNtNtNtNtCseriWsCb5ev6_4koan7machine5model5types16ktype_predicatesNtNtB6_5ktype5KType12accepts_part0Bc_
FNDA:65,_RNCNvMNtNtNtNtCseriWsCb5ev6_4koan7machine5model5types16ktype_predicatesNtNtB6_5ktype5KType13matches_value0Bc_
FNDA:3,_RNCNvMNtNtNtNtCseriWsCb5ev6_4koan7machine5model5types16ktype_predicatesNtNtB6_5ktype5KType13matches_values0_0Bc_
FNDA:9,_RNCNvMNtNtNtNtCseriWsCb5ev6_4koan7machine5model5types16ktype_predicatesNtNtB6_5ktype5KType13matches_values1_0Bc_
FNDA:5,_RNCNvMNtNtNtNtCseriWsCb5ev6_4koan7machine5model5types16ktype_predicatesNtNtB6_5ktype5KType13matches_values2_0Bc_
FNDA:4,_RNCNvMNtNtNtNtCseriWsCb5ev6_4koan7machine5model5types16ktype_predicatesNtNtB6_5ktype5KType13matches_values_0Bc_
FNDA:0,_RNCNvMNtNtNtNtCseriWsCb5ev6_4koan7machine5model5types16ktype_predicatesNtNtB6_5ktype5KType21is_more_specific_than0Bc_
FNDA:1,_RNCNvMNtNtNtNtCseriWsCb5ev6_4koan7machine5model5types16ktype_predicatesNtNtB6_5ktype5KType21is_more_specific_thans0_0Bc_
FNDA:3,_RNCNvMNtNtNtNtCseriWsCb5ev6_4koan7machine5model5types16ktype_predicatesNtNtB6_5ktype5KType21is_more_specific_thans1_0Bc_
FNDA:3,_RNCNvMNtNtNtNtCseriWsCb5ev6_4koan7machine5model5types16ktype_predicatesNtNtB6_5ktype5KType21is_more_specific_thans2_0Bc_
FNDA:0,_RNCNvMNtNtNtNtCseriWsCb5ev6_4koan7machine5model5types16ktype_predicatesNtNtB6_5ktype5KType21is_more_specific_thans_0Bc_
FNDA:8950,_RNvMNtNtNtNtCseriWsCb5ev6_4koan7machine5model5types16ktype_predicatesNtNtB4_5ktype5KType12accepts_part
FNDA:68,_RNvMNtNtNtNtCseriWsCb5ev6_4koan7machine5model5types16ktype_predicatesNtNtB4_5ktype5KType12satisfied_by
FNDA:515,_RNvMNtNtNtNtCseriWsCb5ev6_4koan7machine5model5types16ktype_predicatesNtNtB4_5ktype5KType13matches_value
FNDA:385,_RNvMNtNtNtNtCseriWsCb5ev6_4koan7machine5model5types16ktype_predicatesNtNtB4_5ktype5KType16is_type_denoting
FNDA:277,_RNvMNtNtNtNtCseriWsCb5ev6_4koan7machine5model5types16ktype_predicatesNtNtB4_5ktype5KType21is_more_specific_than
FNDA:24,_RNvMNtNtNtNtCseriWsCb5ev6_4koan7machine5model5types16ktype_predicatesNtNtB4_5ktype5KType28is_admissible_functor_return
FNDA:5,_RNvNtNtNtNtCseriWsCb5ev6_4koan7machine5model5types16ktype_predicates15function_compat
FNDA:9,_RNvNtNtNtNtCseriWsCb5ev6_4koan7machine5model5types16ktype_predicates24result_field_param_index
FNF:21
FNH:19
DA:14,401
DA:15,335
DA:16,401
DA:23,401
DA:30,34
DA:31,34
DA:35,28
DA:36,4
DA:37,2
DA:39,34
DA:46,314
DA:48,314
DA:49,26
DA:50,288
DA:51,288
DA:52,160
DA:54,52
DA:55,236
DA:56,236
DA:57,27
DA:58,2
DA:59,2
DA:60,2
DA:61,2
DA:62,2
DA:63,2
DA:66,2
DA:67,2
DA:68,2
DA:69,0
DA:70,0
DA:71,0
DA:72,0
DA:73,0
DA:76,0
DA:77,0
DA:78,0
DA:79,0
DA:80,0
DA:81,0
DA:82,0
DA:83,0
DA:84,0
DA:88,3
DA:89,0
DA:92,0
DA:97,10
DA:98,10
DA:99,10
DA:100,8
DA:101,6
DA:102,2
DA:103,2
DA:104,1
DA:105,1
DA:106,0
DA:109,2
DA:111,4
DA:112,0
DA:113,0
DA:116,2
DA:117,2
DA:118,2
DA:119,3
DA:120,2
DA:121,2
DA:122,2
DA:123,3
DA:124,2
DA:126,192
DA:128,314
DA:133,68
DA:134,68
DA:135,68
DA:140,527
DA:141,527
DA:142,55
DA:143,33
DA:144,65
DA:145,1
DA:147,2
DA:148,4
DA:149,4
DA:150,4
DA:151,4
DA:152,4
DA:153,0
DA:155,2
DA:156,2
DA:157,2
DA:158,0
DA:159,2
DA:160,2
DA:162,0
DA:163,0
DA:165,0
DA:166,0
DA:167,0
DA:168,0
DA:169,0
DA:170,0
DA:172,0
DA:173,0
DA:178,6
DA:179,6
DA:180,6
DA:181,2
DA:182,4
DA:183,4
DA:184,1
DA:185,3
DA:186,3
DA:187,3
DA:188,3
DA:189,3
DA:191,0
DA:193,23
DA:194,0
DA:195,6
DA:196,6
DA:203,2
DA:204,2
DA:209,10
DA:210,10
DA:211,10
DA:212,10
DA:213,10
DA:214,10
DA:216,10
DA:217,0
DA:218,10
DA:219,10
DA:220,5
DA:221,9
DA:222,9
DA:223,9
DA:224,5
DA:225,5
DA:226,5
DA:227,0
DA:230,0
DA:232,386
DA:234,527
DA:241,10080
DA:242,10080
DA:243,2039
DA:244,9
DA:245,209
DA:249,1
DA:250,22
DA:254,0
DA:255,0
DA:259,0
DA:260,0
DA:263,86
DA:264,26
DA:265,56
DA:266,4
DA:268,10
DA:269,4
DA:270,6
DA:271,6
DA:273,0
DA:275,4
DA:276,3
DA:277,3
DA:278,0
DA:279,3
DA:280,3
DA:282,0
DA:283,1
DA:285,0
DA:286,0
DA:287,0
DA:288,0
DA:289,0
DA:290,0
DA:292,0
DA:293,0
DA:295,1717
DA:296,2182
DA:302,79
DA:303,2263
DA:305,4
DA:306,75
DA:307,488
DA:312,154
DA:313,0
DA:315,3
DA:318,151
DA:319,3
DA:324,16
DA:326,325
DA:327,246
DA:328,246
DA:333,79
DA:335,105
DA:336,170
DA:339,2
DA:340,98
DA:343,0
DA:344,0
DA:345,0
DA:347,0
DA:348,0
DA:349,0
DA:355,71
DA:356,61
DA:357,61
DA:358,4
DA:359,57
DA:360,57
DA:361,54
DA:362,3
DA:363,3
DA:364,3
DA:365,3
DA:366,3
DA:368,10
DA:370,0
DA:371,0
DA:375,0
DA:376,0
DA:377,0
DA:380,10080
DA:388,9
DA:389,9
DA:390,9
DA:391,5
DA:392,2
DA:394,9
DA:401,5
DA:402,5
DA:403,5
DA:404,5
DA:405,5
DA:406,5
DA:408,5
DA:409,5
DA:411,0
DA:412,0
DA:417,0
DA:420,5
DA:421,0
DA:422,5
DA:423,5
DA:424,9
DA:425,9
DA:426,4
DA:427,0
DA:428,4
DA:429,4
DA:430,5
DA:432,5
DA:433,5
BRF:0
BRH:0
LF:268
LH:197
end_of_record
SF:/var/home/jack/Code/koan/src/machine/model/types/ktype_resolution.rs
FN:38,_RNvMNtNtNtNtCscUx3zdyuqfq_4koan7machine5model5types16ktype_resolutionNtNtB4_5ktype5KType14from_type_expr
FN:85,_RNvMNtNtNtNtCscUx3zdyuqfq_4koan7machine5model5types16ktype_resolutionNtNtB4_5ktype5KType4join
FN:14,_RNvMNtNtNtNtCscUx3zdyuqfq_4koan7machine5model5types16ktype_resolutionNtNtB4_5ktype5KType9from_name
FN:107,_RINvMNtNtNtNtCscUx3zdyuqfq_4koan7machine5model5types16ktype_resolutionNtNtB5_5ktype5KType9join_iterINtNtNtNtCs27Vx93FoQ6z_4core4iter8adapters3map3MapINtNtNtB1I_5slice4iter4IterNtNtNtB7_6values7kobject7KObjectENCNvMs_B2Q_B2O_4list0EEBb_
FN:107,_RINvMNtNtNtNtCscUx3zdyuqfq_4koan7machine5model5types16ktype_resolutionNtNtB5_5ktype5KType9join_iterINtNtNtNtCs27Vx93FoQ6z_4core4iter8adapters3map3MapINtNtNtNtCs75vJTIYSa2J_3std11collections4hash3map4KeysINtNtCsgW8esjfipvk_5alloc5boxed3BoxDNtNtB5_7ktraits12SerializableEL_ENtNtNtB7_6values7kobject7KObjectENCNvMs_B4o_B4m_4dict0EEBb_
FN:107,_RINvMNtNtNtNtCscUx3zdyuqfq_4koan7machine5model5types16ktype_resolutionNtNtB5_5ktype5KType9join_iterINtNtNtNtCs27Vx93FoQ6z_4core4iter8adapters3map3MapINtNtNtNtCs75vJTIYSa2J_3std11collections4hash3map6ValuesINtNtCsgW8esjfipvk_5alloc5boxed3BoxDNtNtB5_7ktraits12SerializableEL_ENtNtNtB7_6values7kobject7KObjectENCNvMs_B4q_B4o_4dicts_0EEBb_
FN:108,_RNCINvMNtNtNtNtCscUx3zdyuqfq_4koan7machine5model5types16ktype_resolutionNtNtB7_5ktype5KType9join_iterINtNtNtNtCs27Vx93FoQ6z_4core4iter8adapters3map3MapINtNtNtB1K_5slice4iter4IterNtNtNtB9_6values7kobject7KObjectENCNvMs_B2S_B2Q_4list0EE0Bd_
FN:108,_RNCINvMNtNtNtNtCscUx3zdyuqfq_4koan7machine5model5types16ktype_resolutionNtNtB7_5ktype5KType9join_iterINtNtNtNtCs27Vx93FoQ6z_4core4iter8adapters3map3MapINtNtNtNtCs75vJTIYSa2J_3std11collections4hash3map4KeysINtNtCsgW8esjfipvk_5alloc5boxed3BoxDNtNtB7_7ktraits12SerializableEL_ENtNtNtB9_6values7kobject7KObjectENCNvMs_B4q_B4o_4dict0EE0Bd_
FN:108,_RNCINvMNtNtNtNtCscUx3zdyuqfq_4koan7machine5model5types16ktype_resolutionNtNtB7_5ktype5KType9join_iterINtNtNtNtCs27Vx93FoQ6z_4core4iter8adapters3map3MapINtNtNtNtCs75vJTIYSa2J_3std11collections4hash3map6ValuesINtNtCsgW8esjfipvk_5alloc5boxed3BoxDNtNtB7_7ktraits12SerializableEL_ENtNtNtB9_6values7kobject7KObjectENCNvMs_B4s_B4q_4dicts_0EE0Bd_
FN:41,_RNCNvMNtNtNtNtCscUx3zdyuqfq_4koan7machine5model5types16ktype_resolutionNtNtB6_5ktype5KType14from_type_expr0Bc_
FN:98,_RNCNvMNtNtNtNtCscUx3zdyuqfq_4koan7machine5model5types16ktype_resolutionNtNtB6_5ktype5KType4join0Bc_
FN:38,_RNvMNtNtNtNtCseriWsCb5ev6_4koan7machine5model5types16ktype_resolutionNtNtB4_5ktype5KType14from_type_expr
FN:85,_RNvMNtNtNtNtCseriWsCb5ev6_4koan7machine5model5types16ktype_resolutionNtNtB4_5ktype5KType4join
FN:14,_RNvMNtNtNtNtCseriWsCb5ev6_4koan7machine5model5types16ktype_resolutionNtNtB4_5ktype5KType9from_name
FN:108,_RNCINvMNtNtNtNtCseriWsCb5ev6_4koan7machine5model5types16ktype_resolutionNtNtB7_5ktype5KType9join_iterINtNtCsgW8esjfipvk_5alloc3vec3VecB18_EE0Bd_
FN:108,_RNCINvMNtNtNtNtCseriWsCb5ev6_4koan7machine5model5types16ktype_resolutionNtNtB7_5ktype5KType9join_iterINtNtNtNtCs27Vx93FoQ6z_4core4iter8adapters3map3MapINtNtNtB1K_5slice4iter4IterNtNtNtB9_6values7kobject7KObjectENCNvMs_B2S_B2Q_4list0EE0Bd_
FN:108,_RNCINvMNtNtNtNtCseriWsCb5ev6_4koan7machine5model5types16ktype_resolutionNtNtB7_5ktype5KType9join_iterINtNtNtNtCs27Vx93FoQ6z_4core4iter8adapters3map3MapINtNtNtNtCs75vJTIYSa2J_3std11collections4hash3map4KeysINtNtCsgW8esjfipvk_5alloc5boxed3BoxDNtNtB7_7ktraits12SerializableEL_ENtNtNtB9_6values7kobject7KObjectENCNvMs_B4q_B4o_4dict0EE0Bd_
FN:108,_RNCINvMNtNtNtNtCseriWsCb5ev6_4koan7machine5model5types16ktype_resolutionNtNtB7_5ktype5KType9join_iterINtNtNtNtCs27Vx93FoQ6z_4core4iter8adapters3map3MapINtNtNtNtCs75vJTIYSa2J_3std11collections4hash3map6ValuesINtNtCsgW8esjfipvk_5alloc5boxed3BoxDNtNtB7_7ktraits12SerializableEL_ENtNtNtB9_6values7kobject7KObjectENCNvMs_B4s_B4q_4dicts_0EE0Bd_
FN:41,_RNCNvMNtNtNtNtCseriWsCb5ev6_4koan7machine5model5types16ktype_resolutionNtNtB6_5ktype5KType14from_type_expr0Bc_
FN:98,_RNCNvMNtNtNtNtCseriWsCb5ev6_4koan7machine5model5types16ktype_resolutionNtNtB6_5ktype5KType4join0Bc_
FN:120,_RNvNtNtNtNtNtCseriWsCb5ev6_4koan7machine5model5types16ktype_resolution5tests13list_typeexpr
FN:128,_RNvNtNtNtNtNtCseriWsCb5ev6_4koan7machine5model5types16ktype_resolution5tests17function_typeexpr
FN:116,_RNvNtNtNtNtNtCseriWsCb5ev6_4koan7machine5model5types16ktype_resolution5tests4leaf
FN:285,_RNvNtNtNtNtNtCseriWsCb5ev6_4koan7machine5model5types16ktype_resolution5testss_21join_iter_homogeneous
FN:264,_RNvNtNtNtNtNtCseriWsCb5ev6_4koan7machine5model5types16ktype_resolution5testss_21join_same_yields_same
FN:279,_RNvNtNtNtNtNtCseriWsCb5ev6_4koan7machine5model5types16ktype_resolution5testss_22join_iter_empty_is_any
FN:137,_RNvNtNtNtNtNtCseriWsCb5ev6_4koan7machine5model5types16ktype_resolution5testss_26from_type_expr_leaf_number
FN:184,_RNvNtNtNtNtNtCseriWsCb5ev6_4koan7machine5model5types16ktype_resolution5testss_26from_type_expr_nested_list
FN:291,_RNvNtNtNtNtNtCseriWsCb5ev6_4koan7machine5model5types16ktype_resolution5testss_26join_iter_mixed_yields_any
FN:160,_RNvNtNtNtNtNtCseriWsCb5ev6_4koan7machine5model5types16ktype_resolution5testss_29from_type_expr_function_unary
FN:142,_RNvNtNtNtNtNtCseriWsCb5ev6_4koan7machine5model5types16ktype_resolution5testss_29from_type_expr_list_of_number
FN:269,_RNvNtNtNtNtNtCseriWsCb5ev6_4koan7machine5model5types16ktype_resolution5testss_30join_lists_recurses_on_element
FN:172,_RNvNtNtNtNtNtCseriWsCb5ev6_4koan7machine5model5types16ktype_resolution5testss_31from_type_expr_function_nullary
FN:243,_RNvNtNtNtNtNtCseriWsCb5ev6_4koan7machine5model5types16ktype_resolution5testss_33from_name_list_lowers_to_list_any
FN:151,_RNvNtNtNtNtNtCseriWsCb5ev6_4koan7machine5model5types16ktype_resolution5testss_33from_type_expr_dict_string_number
FN:259,_RNvNtNtNtNtNtCseriWsCb5ev6_4koan7machine5model5types16ktype_resolution5testss_34join_distinct_concretes_yields_any
FN:251,_RNvNtNtNtNtNtCseriWsCb5ev6_4koan7machine5model5types16ktype_resolution5testss_37from_name_dict_lowers_to_dict_any_any
FN:238,_RNvNtNtNtNtNtCseriWsCb5ev6_4koan7machine5model5types16ktype_resolution5testss_38from_name_kfunction_no_longer_resolves
FN:200,_RNvNtNtNtNtNtCseriWsCb5ev6_4koan7machine5model5types16ktype_resolution5testss_38from_type_expr_dict_wrong_arity_errors
FN:194,_RNvNtNtNtNtNtCseriWsCb5ev6_4koan7machine5model5types16ktype_resolution5testss_38from_type_expr_list_wrong_arity_errors
FN:211,_RNvNtNtNtNtNtCseriWsCb5ev6_4koan7machine5model5types16ktype_resolution5testss_41from_type_expr_unknown_with_params_errors
FN:230,_RNvNtNtNtNtNtCseriWsCb5ev6_4koan7machine5model5types16ktype_resolution5testss_44from_type_expr_leaf_falls_through_to_builtin
FN:206,_RNvNtNtNtNtNtCseriWsCb5ev6_4koan7machine5model5types16ktype_resolution5testss_44from_type_expr_unknown_paramless_name_errors
FN:217,_RNvNtNtNtNtNtCseriWsCb5ev6_4koan7machine5model5types16ktype_resolution5testss_52from_type_expr_function_arrow_on_non_function_errors
FN:107,_RINvMNtNtNtNtCseriWsCb5ev6_4koan7machine5model5types16ktype_resolutionNtNtB5_5ktype5KType9join_iterINtNtCsgW8esjfipvk_5alloc3vec3VecB16_EEBb_
FN:107,_RINvMNtNtNtNtCseriWsCb5ev6_4koan7machine5model5types16ktype_resolutionNtNtB5_5ktype5KType9join_iterINtNtNtNtCs27Vx93FoQ6z_4core4iter8adapters3map3MapINtNtNtB1I_5slice4iter4IterNtNtNtB7_6values7kobject7KObjectENCNvMs_B2Q_B2O_4list0EEBb_
FN:107,_RINvMNtNtNtNtCseriWsCb5ev6_4koan7machine5model5types16ktype_resolutionNtNtB5_5ktype5KType9join_iterINtNtNtNtCs27Vx93FoQ6z_4core4iter8adapters3map3MapINtNtNtNtCs75vJTIYSa2J_3std11collections4hash3map4KeysINtNtCsgW8esjfipvk_5alloc5boxed3BoxDNtNtB5_7ktraits12SerializableEL_ENtNtNtB7_6values7kobject7KObjectENCNvMs_B4o_B4m_4dict0EEBb_
FN:107,_RINvMNtNtNtNtCseriWsCb5ev6_4koan7machine5model5types16ktype_resolutionNtNtB5_5ktype5KType9join_iterINtNtNtNtCs27Vx93FoQ6z_4core4iter8adapters3map3MapINtNtNtNtCs75vJTIYSa2J_3std11collections4hash3map6ValuesINtNtCsgW8esjfipvk_5alloc5boxed3BoxDNtNtB5_7ktraits12SerializableEL_ENtNtNtB7_6values7kobject7KObjectENCNvMs_B4q_B4o_4dicts_0EEBb_
FNDA:94,_RNvMNtNtNtNtCscUx3zdyuqfq_4koan7machine5model5types16ktype_resolutionNtNtB4_5ktype5KType14from_type_expr
FNDA:0,_RNvMNtNtNtNtCscUx3zdyuqfq_4koan7machine5model5types16ktype_resolutionNtNtB4_5ktype5KType4join
FNDA:94,_RNvMNtNtNtNtCscUx3zdyuqfq_4koan7machine5model5types16ktype_resolutionNtNtB4_5ktype5KType9from_name
FNDA:0,_RINvMNtNtNtNtCscUx3zdyuqfq_4koan7machine5model5types16ktype_resolutionNtNtB5_5ktype5KType9join_iterINtNtNtNtCs27Vx93FoQ6z_4core4iter8adapters3map3MapINtNtNtB1I_5slice4iter4IterNtNtNtB7_6values7kobject7KObjectENCNvMs_B2Q_B2O_4list0EEBb_
FNDA:1,_RINvMNtNtNtNtCscUx3zdyuqfq_4koan7machine5model5types16ktype_resolutionNtNtB5_5ktype5KType9join_iterINtNtNtNtCs27Vx93FoQ6z_4core4iter8adapters3map3MapINtNtNtNtCs75vJTIYSa2J_3std11collections4hash3map4KeysINtNtCsgW8esjfipvk_5alloc5boxed3BoxDNtNtB5_7ktraits12SerializableEL_ENtNtNtB7_6values7kobject7KObjectENCNvMs_B4o_B4m_4dict0EEBb_
FNDA:1,_RINvMNtNtNtNtCscUx3zdyuqfq_4koan7machine5model5types16ktype_resolutionNtNtB5_5ktype5KType9join_iterINtNtNtNtCs27Vx93FoQ6z_4core4iter8adapters3map3MapINtNtNtNtCs75vJTIYSa2J_3std11collections4hash3map6ValuesINtNtCsgW8esjfipvk_5alloc5boxed3BoxDNtNtB5_7ktraits12SerializableEL_ENtNtNtB7_6values7kobject7KObjectENCNvMs_B4q_B4o_4dicts_0EEBb_
FNDA:0,_RNCINvMNtNtNtNtCscUx3zdyuqfq_4koan7machine5model5types16ktype_resolutionNtNtB7_5ktype5KType9join_iterINtNtNtNtCs27Vx93FoQ6z_4core4iter8adapters3map3MapINtNtNtB1K_5slice4iter4IterNtNtNtB9_6values7kobject7KObjectENCNvMs_B2S_B2Q_4list0EE0Bd_
FNDA:0,_RNCINvMNtNtNtNtCscUx3zdyuqfq_4koan7machine5model5types16ktype_resolutionNtNtB7_5ktype5KType9join_iterINtNtNtNtCs27Vx93FoQ6z_4core4iter8adapters3map3MapINtNtNtNtCs75vJTIYSa2J_3std11collections4hash3map4KeysINtNtCsgW8esjfipvk_5alloc5boxed3BoxDNtNtB7_7ktraits12SerializableEL_ENtNtNtB9_6values7kobject7KObjectENCNvMs_B4q_B4o_4dict0EE0Bd_
FNDA:0,_RNCINvMNtNtNtNtCscUx3zdyuqfq_4koan7machine5model5types16ktype_resolutionNtNtB7_5ktype5KType9join_iterINtNtNtNtCs27Vx93FoQ6z_4core4iter8adapters3map3MapINtNtNtNtCs75vJTIYSa2J_3std11collections4hash3map6ValuesINtNtCsgW8esjfipvk_5alloc5boxed3BoxDNtNtB7_7ktraits12SerializableEL_ENtNtNtB9_6values7kobject7KObjectENCNvMs_B4s_B4q_4dicts_0EE0Bd_
FNDA:56,_RNCNvMNtNtNtNtCscUx3zdyuqfq_4koan7machine5model5types16ktype_resolutionNtNtB6_5ktype5KType14from_type_expr0Bc_
FNDA:0,_RNCNvMNtNtNtNtCscUx3zdyuqfq_4koan7machine5model5types16ktype_resolutionNtNtB6_5ktype5KType4join0Bc_
FNDA:911,_RNvMNtNtNtNtCseriWsCb5ev6_4koan7machine5model5types16ktype_resolutionNtNtB4_5ktype5KType14from_type_expr
FNDA:75,_RNvMNtNtNtNtCseriWsCb5ev6_4koan7machine5model5types16ktype_resolutionNtNtB4_5ktype5KType4join
FNDA:915,_RNvMNtNtNtNtCseriWsCb5ev6_4koan7machine5model5types16ktype_resolutionNtNtB4_5ktype5KType9from_name
FNDA:4,_RNCINvMNtNtNtNtCseriWsCb5ev6_4koan7machine5model5types16ktype_resolutionNtNtB7_5ktype5KType9join_iterINtNtCsgW8esjfipvk_5alloc3vec3VecB18_EE0Bd_
FNDA:53,_RNCINvMNtNtNtNtCseriWsCb5ev6_4koan7machine5model5types16ktype_resolutionNtNtB7_5ktype5KType9join_iterINtNtNtNtCs27Vx93FoQ6z_4core4iter8adapters3map3MapINtNtNtB1K_5slice4iter4IterNtNtNtB9_6values7kobject7KObjectENCNvMs_B2S_B2Q_4list0EE0Bd_
FNDA:7,_RNCINvMNtNtNtNtCseriWsCb5ev6_4koan7machine5model5types16ktype_resolutionNtNtB7_5ktype5KType9join_iterINtNtNtNtCs27Vx93FoQ6z_4core4iter8adapters3map3MapINtNtNtNtCs75vJTIYSa2J_3std11collections4hash3map4KeysINtNtCsgW8esjfipvk_5alloc5boxed3BoxDNtNtB7_7ktraits12SerializableEL_ENtNtNtB9_6values7kobject7KObjectENCNvMs_B4q_B4o_4dict0EE0Bd_
FNDA:7,_RNCINvMNtNtNtNtCseriWsCb5ev6_4koan7machine5model5types16ktype_resolutionNtNtB7_5ktype5KType9join_iterINtNtNtNtCs27Vx93FoQ6z_4core4iter8adapters3map3MapINtNtNtNtCs75vJTIYSa2J_3std11collections4hash3map6ValuesINtNtCsgW8esjfipvk_5alloc5boxed3BoxDNtNtB7_7ktraits12SerializableEL_ENtNtNtB9_6values7kobject7KObjectENCNvMs_B4s_B4q_4dicts_0EE0Bd_
FNDA:337,_RNCNvMNtNtNtNtCseriWsCb5ev6_4koan7machine5model5types16ktype_resolutionNtNtB6_5ktype5KType14from_type_expr0Bc_
FNDA:0,_RNCNvMNtNtNtNtCseriWsCb5ev6_4koan7machine5model5types16ktype_resolutionNtNtB6_5ktype5KType4join0Bc_
FNDA:7,_RNvNtNtNtNtNtCseriWsCb5ev6_4koan7machine5model5types16ktype_resolution5tests13list_typeexpr
FNDA:2,_RNvNtNtNtNtNtCseriWsCb5ev6_4koan7machine5model5types16ktype_resolution5tests17function_typeexpr
FNDA:15,_RNvNtNtNtNtNtCseriWsCb5ev6_4koan7machine5model5types16ktype_resolution5tests4leaf
FNDA:1,_RNvNtNtNtNtNtCseriWsCb5ev6_4koan7machine5model5types16ktype_resolution5testss_21join_iter_homogeneous
FNDA:1,_RNvNtNtNtNtNtCseriWsCb5ev6_4koan7machine5model5types16ktype_resolution5testss_21join_same_yields_same
FNDA:1,_RNvNtNtNtNtNtCseriWsCb5ev6_4koan7machine5model5types16ktype_resolution5testss_22join_iter_empty_is_any
FNDA:1,_RNvNtNtNtNtNtCseriWsCb5ev6_4koan7machine5model5types16ktype_resolution5testss_26from_type_expr_leaf_number
FNDA:1,_RNvNtNtNtNtNtCseriWsCb5ev6_4koan7machine5model5types16ktype_resolution5testss_26from_type_expr_nested_list
FNDA:1,_RNvNtNtNtNtNtCseriWsCb5ev6_4koan7machine5model5types16ktype_resolution5testss_26join_iter_mixed_yields_any
FNDA:1,_RNvNtNtNtNtNtCseriWsCb5ev6_4koan7machine5model5types16ktype_resolution5testss_29from_type_expr_function_unary
FNDA:1,_RNvNtNtNtNtNtCseriWsCb5ev6_4koan7machine5model5types16ktype_resolution5testss_29from_type_expr_list_of_number
FNDA:1,_RNvNtNtNtNtNtCseriWsCb5ev6_4koan7machine5model5types16ktype_resolution5testss_30join_lists_recurses_on_element
FNDA:1,_RNvNtNtNtNtNtCseriWsCb5ev6_4koan7machine5model5types16ktype_resolution5testss_31from_type_expr_function_nullary
FNDA:1,_RNvNtNtNtNtNtCseriWsCb5ev6_4koan7machine5model5types16ktype_resolution5testss_33from_name_list_lowers_to_list_any
FNDA:1,_RNvNtNtNtNtNtCseriWsCb5ev6_4koan7machine5model5types16ktype_resolution5testss_33from_type_expr_dict_string_number
FNDA:1,_RNvNtNtNtNtNtCseriWsCb5ev6_4koan7machine5model5types16ktype_resolution5testss_34join_distinct_concretes_yields_any
FNDA:1,_RNvNtNtNtNtNtCseriWsCb5ev6_4koan7machine5model5types16ktype_resolution5testss_37from_name_dict_lowers_to_dict_any_any
FNDA:1,_RNvNtNtNtNtNtCseriWsCb5ev6_4koan7machine5model5types16ktype_resolution5testss_38from_name_kfunction_no_longer_resolves
FNDA:1,_RNvNtNtNtNtNtCseriWsCb5ev6_4koan7machine5model5types16ktype_resolution5testss_38from_type_expr_dict_wrong_arity_errors
FNDA:1,_RNvNtNtNtNtNtCseriWsCb5ev6_4koan7machine5model5types16ktype_resolution5testss_38from_type_expr_list_wrong_arity_errors
FNDA:1,_RNvNtNtNtNtNtCseriWsCb5ev6_4koan7machine5model5types16ktype_resolution5testss_41from_type_expr_unknown_with_params_errors
FNDA:1,_RNvNtNtNtNtNtCseriWsCb5ev6_4koan7machine5model5types16ktype_resolution5testss_44from_type_expr_leaf_falls_through_to_builtin
FNDA:1,_RNvNtNtNtNtNtCseriWsCb5ev6_4koan7machine5model5types16ktype_resolution5testss_44from_type_expr_unknown_paramless_name_errors
FNDA:1,_RNvNtNtNtNtNtCseriWsCb5ev6_4koan7machine5model5types16ktype_resolution5testss_52from_type_expr_function_arrow_on_non_function_errors
FNDA:3,_RINvMNtNtNtNtCseriWsCb5ev6_4koan7machine5model5types16ktype_resolutionNtNtB5_5ktype5KType9join_iterINtNtCsgW8esjfipvk_5alloc3vec3VecB16_EEBb_
FNDA:71,_RINvMNtNtNtNtCseriWsCb5ev6_4koan7machine5model5types16ktype_resolutionNtNtB5_5ktype5KType9join_iterINtNtNtNtCs27Vx93FoQ6z_4core4iter8adapters3map3MapINtNtNtB1I_5slice4iter4IterNtNtNtB7_6values7kobject7KObjectENCNvMs_B2Q_B2O_4list0EEBb_
FNDA:17,_RINvMNtNtNtNtCseriWsCb5ev6_4koan7machine5model5types16ktype_resolutionNtNtB5_5ktype5KType9join_iterINtNtNtNtCs27Vx93FoQ6z_4core4iter8adapters3map3MapINtNtNtNtCs75vJTIYSa2J_3std11collections4hash3map4KeysINtNtCsgW8esjfipvk_5alloc5boxed3BoxDNtNtB5_7ktraits12SerializableEL_ENtNtNtB7_6values7kobject7KObjectENCNvMs_B4o_B4m_4dict0EEBb_
FNDA:17,_RINvMNtNtNtNtCseriWsCb5ev6_4koan7machine5model5types16ktype_resolutionNtNtB5_5ktype5KType9join_iterINtNtNtNtCs27Vx93FoQ6z_4core4iter8adapters3map3MapINtNtNtNtCs75vJTIYSa2J_3std11collections4hash3map6ValuesINtNtCsgW8esjfipvk_5alloc5boxed3BoxDNtNtB5_7ktraits12SerializableEL_ENtNtNtB7_6values7kobject7KObjectENCNvMs_B4q_B4o_4dicts_0EEBb_
FNF:31
FNH:30
DA:14,1009
DA:15,1009
DA:16,1009
DA:17,700
DA:18,626
DA:19,625
DA:20,579
DA:21,576
DA:22,575
DA:23,573
DA:24,487
DA:25,487
DA:26,487
DA:27,435
DA:28,435
DA:29,405
DA:31,1009
DA:38,1005
DA:39,1005
DA:40,995
DA:41,995
DA:42,7
DA:43,3
DA:45,1
DA:46,1
DA:47,1
DA:48,1
DA:49,3
DA:50,1
DA:51,1
DA:53,1
DA:54,1
DA:55,1
DA:56,1
DA:57,3
DA:58,2
DA:59,2
DA:60,2
DA:61,2
DA:62,2
DA:63,2
DA:65,1
DA:66,0
DA:67,0
DA:68,0
DA:69,0
DA:70,0
DA:71,0
DA:74,1
DA:76,1
DA:77,1
DA:78,1
DA:79,1
DA:81,1005
DA:85,75
DA:86,75
DA:87,62
DA:88,13
DA:89,13
DA:90,1
DA:91,0
DA:92,0
DA:95,0
DA:96,0
DA:97,0
DA:98,0
DA:99,0
DA:100,0
DA:102,12
DA:104,75
DA:107,110
DA:108,110
DA:109,110
DA:116,15
DA:117,15
DA:118,15
DA:120,7
DA:121,7
DA:122,7
DA:123,7
DA:124,7
DA:125,7
DA:126,7
DA:128,2
DA:129,2
DA:130,2
DA:131,2
DA:132,2
DA:133,2
DA:134,2
DA:137,1
DA:138,1
DA:139,1
DA:142,1
DA:143,1
DA:144,1
DA:145,1
DA:146,1
DA:148,1
DA:151,1
DA:152,1
DA:153,1
DA:154,1
DA:155,1
DA:157,1
DA:160,1
DA:161,1
DA:162,1
DA:163,1
DA:164,1
DA:165,1
DA:166,1
DA:167,1
DA:169,1
DA:172,1
DA:173,1
DA:174,1
DA:175,1
DA:176,1
DA:177,1
DA:178,1
DA:179,1
DA:181,1
DA:184,1
DA:185,1
DA:186,1
DA:187,1
DA:188,1
DA:189,1
DA:191,1
DA:194,1
DA:195,1
DA:196,1
DA:197,1
DA:200,1
DA:201,1
DA:202,1
DA:203,1
DA:206,1
DA:207,1
DA:208,1
DA:211,1
DA:212,1
DA:213,1
DA:214,1
DA:217,1
DA:218,1
DA:219,1
DA:220,1
DA:221,1
DA:222,1
DA:223,1
DA:224,1
DA:225,1
DA:226,1
DA:227,1
DA:230,1
DA:231,1
DA:232,1
DA:235,1
DA:238,1
DA:239,1
DA:240,1
DA:243,1
DA:244,1
DA:245,1
DA:246,1
DA:248,1
DA:251,1
DA:252,1
DA:253,1
DA:254,1
DA:256,1
DA:259,1
DA:260,1
DA:261,1
DA:264,1
DA:265,1
DA:266,1
DA:269,1
DA:270,1
DA:271,1
DA:272,1
DA:273,1
DA:274,1
DA:276,1
DA:279,1
DA:280,1
DA:281,1
DA:282,1
DA:285,1
DA:286,1
DA:287,1
DA:288,1
DA:291,1
DA:292,1
DA:293,1
DA:294,1
BRF:0
BRH:0
LF:201
LH:186
end_of_record
SF:/var/home/jack/Code/koan/src/machine/model/types/resolver.rs
FN:104,_RNvMs_NtNtNtNtCscUx3zdyuqfq_4koan7machine5model5types8resolverNtB4_10Elaborator17with_current_decl
FN:85,_RNvMs_NtNtNtNtCscUx3zdyuqfq_4koan7machine5model5types8resolverNtB4_10Elaborator3new
FN:331,_RNvNtNtNtNtCscUx3zdyuqfq_4koan7machine5model5types8resolver16close_type_cycle
FN:123,_RNvNtNtNtNtCscUx3zdyuqfq_4koan7machine5model5types8resolver19elaborate_type_expr
FN:289,_RNvNtNtNtNtCscUx3zdyuqfq_4koan7machine5model5types8resolver20detect_pending_cycle
FN:39,_RINvMNtNtNtNtCscUx3zdyuqfq_4koan7machine5model5types8resolverNtB3_10ElabResult7collectABX_j2_EBb_
FN:39,_RINvMNtNtNtNtCscUx3zdyuqfq_4koan7machine5model5types8resolverNtB3_10ElabResult7collectINtNtCsgW8esjfipvk_5alloc3vec3VecBX_EEBb_
FN:39,_RINvMNtNtNtNtCscUx3zdyuqfq_4koan7machine5model5types8resolverNtB3_10ElabResult7collectINtNtNtNtCs27Vx93FoQ6z_4core4iter8adapters3map3MapINtNtNtB1v_5slice4iter4IterNtNtB7_3ast8TypeExprENCNvB3_19elaborate_type_exprs0_0EEBb_
FN:96,_RINvMs_NtNtNtNtCscUx3zdyuqfq_4koan7machine5model5types8resolverNtB5_10Elaborator13with_threadedANtNtCsgW8esjfipvk_5alloc6string6Stringj1_EBd_
FN:338,_RNCNvNtNtNtNtCscUx3zdyuqfq_4koan7machine5model5types8resolver16close_type_cycle0Bb_
FN:359,_RNCNvNtNtNtNtCscUx3zdyuqfq_4koan7machine5model5types8resolver16close_type_cycles_0Bb_
FN:204,_RNCNvNtNtNtNtCscUx3zdyuqfq_4koan7machine5model5types8resolver19elaborate_type_expr0Bb_
FN:258,_RNCNvNtNtNtNtCscUx3zdyuqfq_4koan7machine5model5types8resolver19elaborate_type_exprs0_0Bb_
FN:226,_RNCNvNtNtNtNtCscUx3zdyuqfq_4koan7machine5model5types8resolver19elaborate_type_exprs_0Bb_
FN:299,_RNCNvNtNtNtNtCscUx3zdyuqfq_4koan7machine5model5types8resolver20detect_pending_cycle0Bb_
FN:309,_RNCNvNtNtNtNtCscUx3zdyuqfq_4koan7machine5model5types8resolver20detect_pending_cycles_0Bb_
FN:104,_RNvMs_NtNtNtNtCseriWsCb5ev6_4koan7machine5model5types8resolverNtB4_10Elaborator17with_current_decl
FN:85,_RNvMs_NtNtNtNtCseriWsCb5ev6_4koan7machine5model5types8resolverNtB4_10Elaborator3new
FN:331,_RNvNtNtNtNtCseriWsCb5ev6_4koan7machine5model5types8resolver16close_type_cycle
FN:123,_RNvNtNtNtNtCseriWsCb5ev6_4koan7machine5model5types8resolver19elaborate_type_expr
FN:289,_RNvNtNtNtNtCseriWsCb5ev6_4koan7machine5model5types8resolver20detect_pending_cycle
FN:39,_RINvMNtNtNtNtCseriWsCb5ev6_4koan7machine5model5types8resolverNtB3_10ElabResult7collectABX_j2_EBb_
FN:39,_RINvMNtNtNtNtCseriWsCb5ev6_4koan7machine5model5types8resolverNtB3_10ElabResult7collectINtNtCsgW8esjfipvk_5alloc3vec3VecBX_EEBb_
FN:39,_RINvMNtNtNtNtCseriWsCb5ev6_4koan7machine5model5types8resolverNtB3_10ElabResult7collectINtNtNtNtCs27Vx93FoQ6z_4core4iter8adapters3map3MapINtNtNtB1v_5slice4iter4IterNtNtB7_3ast8TypeExprENCNvB3_19elaborate_type_exprs0_0EEBb_
FN:96,_RINvMs_NtNtNtNtCseriWsCb5ev6_4koan7machine5model5types8resolverNtB5_10Elaborator13with_threadedANtNtCsgW8esjfipvk_5alloc6string6Stringj1_EBd_
FN:338,_RNCNvNtNtNtNtCseriWsCb5ev6_4koan7machine5model5types8resolver16close_type_cycle0Bb_
FN:359,_RNCNvNtNtNtNtCseriWsCb5ev6_4koan7machine5model5types8resolver16close_type_cycles_0Bb_
FN:204,_RNCNvNtNtNtNtCseriWsCb5ev6_4koan7machine5model5types8resolver19elaborate_type_expr0Bb_
FN:258,_RNCNvNtNtNtNtCseriWsCb5ev6_4koan7machine5model5types8resolver19elaborate_type_exprs0_0Bb_
FN:226,_RNCNvNtNtNtNtCseriWsCb5ev6_4koan7machine5model5types8resolver19elaborate_type_exprs_0Bb_
FN:299,_RNCNvNtNtNtNtCseriWsCb5ev6_4koan7machine5model5types8resolver20detect_pending_cycle0Bb_
FN:309,_RNCNvNtNtNtNtCseriWsCb5ev6_4koan7machine5model5types8resolver20detect_pending_cycles_0Bb_
FNDA:5,_RNvMs_NtNtNtNtCscUx3zdyuqfq_4koan7machine5model5types8resolverNtB4_10Elaborator17with_current_decl
FNDA:39,_RNvMs_NtNtNtNtCscUx3zdyuqfq_4koan7machine5model5types8resolverNtB4_10Elaborator3new
FNDA:0,_RNvNtNtNtNtCscUx3zdyuqfq_4koan7machine5model5types8resolver16close_type_cycle
FNDA:41,_RNvNtNtNtNtCscUx3zdyuqfq_4koan7machine5model5types8resolver19elaborate_type_expr
FNDA:0,_RNvNtNtNtNtCscUx3zdyuqfq_4koan7machine5model5types8resolver20detect_pending_cycle
FNDA:0,_RINvMNtNtNtNtCscUx3zdyuqfq_4koan7machine5model5types8resolverNtB3_10ElabResult7collectABX_j2_EBb_
FNDA:0,_RINvMNtNtNtNtCscUx3zdyuqfq_4koan7machine5model5types8resolverNtB3_10ElabResult7collectINtNtCsgW8esjfipvk_5alloc3vec3VecBX_EEBb_
FNDA:0,_RINvMNtNtNtNtCscUx3zdyuqfq_4koan7machine5model5types8resolverNtB3_10ElabResult7collectINtNtNtNtCs27Vx93FoQ6z_4core4iter8adapters3map3MapINtNtNtB1v_5slice4iter4IterNtNtB7_3ast8TypeExprENCNvB3_19elaborate_type_exprs0_0EEBb_
FNDA:7,_RINvMs_NtNtNtNtCscUx3zdyuqfq_4koan7machine5model5types8resolverNtB5_10Elaborator13with_threadedANtNtCsgW8esjfipvk_5alloc6string6Stringj1_EBd_
FNDA:0,_RNCNvNtNtNtNtCscUx3zdyuqfq_4koan7machine5model5types8resolver16close_type_cycle0Bb_
FNDA:0,_RNCNvNtNtNtNtCscUx3zdyuqfq_4koan7machine5model5types8resolver16close_type_cycles_0Bb_
FNDA:0,_RNCNvNtNtNtNtCscUx3zdyuqfq_4koan7machine5model5types8resolver19elaborate_type_expr0Bb_
FNDA:0,_RNCNvNtNtNtNtCscUx3zdyuqfq_4koan7machine5model5types8resolver19elaborate_type_exprs0_0Bb_
FNDA:0,_RNCNvNtNtNtNtCscUx3zdyuqfq_4koan7machine5model5types8resolver19elaborate_type_exprs_0Bb_
FNDA:0,_RNCNvNtNtNtNtCscUx3zdyuqfq_4koan7machine5model5types8resolver20detect_pending_cycle0Bb_
FNDA:0,_RNCNvNtNtNtNtCscUx3zdyuqfq_4koan7machine5model5types8resolver20detect_pending_cycles_0Bb_
FNDA:82,_RNvMs_NtNtNtNtCseriWsCb5ev6_4koan7machine5model5types8resolverNtB4_10Elaborator17with_current_decl
FNDA:373,_RNvMs_NtNtNtNtCseriWsCb5ev6_4koan7machine5model5types8resolverNtB4_10Elaborator3new
FNDA:4,_RNvNtNtNtNtCseriWsCb5ev6_4koan7machine5model5types8resolver16close_type_cycle
FNDA:317,_RNvNtNtNtNtCseriWsCb5ev6_4koan7machine5model5types8resolver19elaborate_type_expr
FNDA:9,_RNvNtNtNtNtCseriWsCb5ev6_4koan7machine5model5types8resolver20detect_pending_cycle
FNDA:0,_RINvMNtNtNtNtCseriWsCb5ev6_4koan7machine5model5types8resolverNtB3_10ElabResult7collectABX_j2_EBb_
FNDA:2,_RINvMNtNtNtNtCseriWsCb5ev6_4koan7machine5model5types8resolverNtB3_10ElabResult7collectINtNtCsgW8esjfipvk_5alloc3vec3VecBX_EEBb_
FNDA:3,_RINvMNtNtNtNtCseriWsCb5ev6_4koan7machine5model5types8resolverNtB3_10ElabResult7collectINtNtNtNtCs27Vx93FoQ6z_4core4iter8adapters3map3MapINtNtNtB1v_5slice4iter4IterNtNtB7_3ast8TypeExprENCNvB3_19elaborate_type_exprs0_0EEBb_
FNDA:88,_RINvMs_NtNtNtNtCseriWsCb5ev6_4koan7machine5model5types8resolverNtB5_10Elaborator13with_threadedANtNtCsgW8esjfipvk_5alloc6string6Stringj1_EBd_
FNDA:9,_RNCNvNtNtNtNtCseriWsCb5ev6_4koan7machine5model5types8resolver16close_type_cycle0Bb_
FNDA:9,_RNCNvNtNtNtNtCseriWsCb5ev6_4koan7machine5model5types8resolver16close_type_cycles_0Bb_
FNDA:0,_RNCNvNtNtNtNtCseriWsCb5ev6_4koan7machine5model5types8resolver19elaborate_type_expr0Bb_
FNDA:3,_RNCNvNtNtNtNtCseriWsCb5ev6_4koan7machine5model5types8resolver19elaborate_type_exprs0_0Bb_
FNDA:2,_RNCNvNtNtNtNtCseriWsCb5ev6_4koan7machine5model5types8resolver19elaborate_type_exprs_0Bb_
FNDA:19,_RNCNvNtNtNtNtCseriWsCb5ev6_4koan7machine5model5types8resolver20detect_pending_cycle0Bb_
FNDA:9,_RNCNvNtNtNtNtCseriWsCb5ev6_4koan7machine5model5types8resolver20detect_pending_cycles_0Bb_
FNF:14
FNH:13
DA:39,5
DA:40,5
DA:41,5
DA:42,5
DA:43,5
DA:44,5
DA:45,5
DA:46,5
DA:47,7
DA:48,0
DA:49,6
DA:50,1
DA:51,0
DA:52,0
DA:55,5
DA:56,0
DA:57,5
DA:58,1
DA:60,4
DA:62,5
DA:85,412
DA:86,412
DA:87,412
DA:88,412
DA:89,412
DA:90,412
DA:91,412
DA:92,412
DA:93,412
DA:94,412
DA:96,95
DA:97,95
DA:98,95
DA:99,95
DA:104,87
DA:105,87
DA:106,87
DA:107,87
DA:108,87
DA:109,87
DA:110,87
DA:111,87
DA:112,87
DA:113,87
DA:114,87
DA:123,358
DA:124,358
DA:125,358
DA:126,358
DA:127,358
DA:128,350
DA:129,350
DA:130,1
DA:131,1
DA:132,349
DA:133,349
DA:134,304
DA:135,45
DA:136,45
DA:137,36
DA:143,36
DA:144,9
DA:145,9
DA:146,4
DA:147,4
DA:148,4
DA:149,0
DA:150,5
DA:151,27
DA:152,32
DA:160,1
DA:161,0
DA:162,1
DA:163,1
DA:164,1
DA:165,1
DA:167,8
DA:168,0
DA:169,8
DA:173,6
DA:174,1
DA:175,1
DA:176,0
DA:179,5
DA:180,0
DA:181,0
DA:182,0
DA:183,5
DA:184,0
DA:185,0
DA:186,0
DA:187,0
DA:188,0
DA:189,0
DA:190,0
DA:192,0
DA:195,5
DA:196,0
DA:197,0
DA:198,0
DA:199,2
DA:202,0
DA:203,0
DA:204,0
DA:205,0
DA:206,0
DA:207,0
DA:208,0
DA:209,0
DA:210,0
DA:211,0
DA:212,0
DA:213,0
DA:215,0
DA:223,2
DA:224,2
DA:225,2
DA:226,2
DA:227,2
DA:228,2
DA:229,2
DA:230,1
DA:231,1
DA:232,1
DA:233,1
DA:234,1
DA:235,1
DA:237,1
DA:240,5
DA:245,5
DA:247,4
DA:249,4
DA:251,4
DA:252,1
DA:253,1
DA:254,1
DA:255,1
DA:256,1
DA:257,3
DA:258,3
DA:259,3
DA:260,3
DA:261,3
DA:262,3
DA:263,3
DA:264,0
DA:266,0
DA:267,1
DA:272,1
DA:273,1
DA:274,0
DA:275,0
DA:277,0
DA:278,0
DA:279,0
DA:281,358
DA:289,9
DA:290,9
DA:291,9
DA:292,0
DA:293,9
DA:294,9
DA:295,9
DA:296,9
DA:298,24
DA:299,19
DA:300,19
DA:301,5
DA:302,5
DA:303,5
DA:304,14
DA:305,14
DA:306,14
DA:307,14
DA:309,9
DA:310,10
DA:311,10
DA:314,5
DA:315,5
DA:316,5
DA:317,5
DA:319,5
DA:320,9
DA:331,4
DA:334,4
DA:335,4
DA:336,4
DA:337,4
DA:338,9
DA:339,9
DA:340,9
DA:341,9
DA:342,9
DA:343,9
DA:344,4
DA:346,9
DA:347,9
DA:348,9
DA:349,9
DA:350,9
DA:351,9
DA:357,9
DA:358,9
DA:359,9
DA:360,0
DA:361,9
DA:364,0
DA:365,9
DA:366,9
DA:367,9
DA:368,9
DA:369,9
DA:371,4
BRF:0
BRH:0
LF:220
LH:174
end_of_record
SF:/var/home/jack/Code/koan/src/machine/model/types/signature.rs
FN:190,_RNvMs5_NtNtNtNtCscUx3zdyuqfq_4koan7machine5model5types9signatureNtB5_10ReturnType11is_resolved
FN:183,_RNvMs5_NtNtNtNtCscUx3zdyuqfq_4koan7machine5model5types9signatureNtB5_10ReturnType13matches_value
FN:172,_RNvMs5_NtNtNtNtCscUx3zdyuqfq_4koan7machine5model5types9signatureNtB5_10ReturnType4name
FN:294,_RNvMs6_NtNtNtNtCscUx3zdyuqfq_4koan7machine5model5types9signatureNtB5_19ExpressionSignature11exact_equal
FN:230,_RNvMs6_NtNtNtNtCscUx3zdyuqfq_4koan7machine5model5types9signatureNtB5_19ExpressionSignature11untyped_key
FN:279,_RNvMs6_NtNtNtNtCscUx3zdyuqfq_4koan7machine5model5types9signatureNtB5_19ExpressionSignature13most_specific
FN:256,_RNvMs6_NtNtNtNtCscUx3zdyuqfq_4koan7machine5model5types9signatureNtB5_19ExpressionSignature14specificity_vs
FN:212,_RNvMs6_NtNtNtNtCscUx3zdyuqfq_4koan7machine5model5types9signatureNtB5_19ExpressionSignature24matches_without_keywords
FN:196,_RNvMs6_NtNtNtNtCscUx3zdyuqfq_4koan7machine5model5types9signatureNtB5_19ExpressionSignature7matches
FN:244,_RNvMs6_NtNtNtNtCscUx3zdyuqfq_4koan7machine5model5types9signatureNtB5_19ExpressionSignature9normalize
FN:323,_RNvMs7_NtNtNtNtCscUx3zdyuqfq_4koan7machine5model5types9signatureNtB5_8Argument7matches
FN:128,_RNvNtNtNtNtCscUx3zdyuqfq_4koan7machine5model5types9signature12type_expr_eq
FN:34,_RNvNtNtNtNtCscUx3zdyuqfq_4koan7machine5model5types9signature16is_keyword_token
FN:83,_RNvXNtNtNtNtCscUx3zdyuqfq_4koan7machine5model5types9signatureNtB2_10ReturnTypeNtNtCs27Vx93FoQ6z_4core5clone5Clone5clone
FN:101,_RNvXs0_NtNtNtNtCscUx3zdyuqfq_4koan7machine5model5types9signatureNtB5_10ReturnTypeNtNtCs27Vx93FoQ6z_4core3cmp9PartialEq2eq
FN:113,_RNvXs2_NtNtNtNtCscUx3zdyuqfq_4koan7machine5model5types9signatureNtB5_14DeferredReturnNtNtCs27Vx93FoQ6z_4core3cmp9PartialEq2eq
FN:151,_RNvXs3_NtNtNtNtCscUx3zdyuqfq_4koan7machine5model5types9signatureNtB5_10ReturnTypeNtNtCs27Vx93FoQ6z_4core3fmt5Debug3fmt
FN:160,_RNvXs4_NtNtNtNtCscUx3zdyuqfq_4koan7machine5model5types9signatureNtB5_14DeferredReturnNtNtCs27Vx93FoQ6z_4core3fmt5Debug3fmt
FN:92,_RNvXs_NtNtNtNtCscUx3zdyuqfq_4koan7machine5model5types9signatureNtB4_14DeferredReturnNtNtCs27Vx93FoQ6z_4core5clone5Clone5clone
FN:284,_RNCNCNvMs6_NtNtNtNtCscUx3zdyuqfq_4koan7machine5model5types9signatureNtB9_19ExpressionSignature13most_specific00Bh_
FN:301,_RNCNvMs6_NtNtNtNtCscUx3zdyuqfq_4koan7machine5model5types9signatureNtB7_19ExpressionSignature11exact_equal0Bf_
FN:233,_RNCNvMs6_NtNtNtNtCscUx3zdyuqfq_4koan7machine5model5types9signatureNtB7_19ExpressionSignature11untyped_key0Bf_
FN:283,_RNCNvMs6_NtNtNtNtCscUx3zdyuqfq_4koan7machine5model5types9signatureNtB7_19ExpressionSignature13most_specific0Bf_
FN:200,_RNCNvMs6_NtNtNtNtCscUx3zdyuqfq_4koan7machine5model5types9signatureNtB7_19ExpressionSignature7matches0Bf_
FN:247,_RNCNvMs6_NtNtNtNtCscUx3zdyuqfq_4koan7machine5model5types9signatureNtB7_19ExpressionSignature9normalize0Bf_
FN:136,_RNCNvNtNtNtNtCscUx3zdyuqfq_4koan7machine5model5types9signature12type_expr_eq0Bb_
FN:143,_RNCNvNtNtNtNtCscUx3zdyuqfq_4koan7machine5model5types9signature12type_expr_eqs_0Bb_
FN:35,_RNCNvNtNtNtNtCscUx3zdyuqfq_4koan7machine5model5types9signature16is_keyword_token0Bb_
FN:40,_RNCNvNtNtNtNtCscUx3zdyuqfq_4koan7machine5model5types9signature16is_keyword_tokens0_0Bb_
FN:39,_RNCNvNtNtNtNtCscUx3zdyuqfq_4koan7machine5model5types9signature16is_keyword_tokens_0Bb_
FN:190,_RNvMs5_NtNtNtNtCseriWsCb5ev6_4koan7machine5model5types9signatureNtB5_10ReturnType11is_resolved
FN:183,_RNvMs5_NtNtNtNtCseriWsCb5ev6_4koan7machine5model5types9signatureNtB5_10ReturnType13matches_value
FN:172,_RNvMs5_NtNtNtNtCseriWsCb5ev6_4koan7machine5model5types9signatureNtB5_10ReturnType4name
FN:294,_RNvMs6_NtNtNtNtCseriWsCb5ev6_4koan7machine5model5types9signatureNtB5_19ExpressionSignature11exact_equal
FN:230,_RNvMs6_NtNtNtNtCseriWsCb5ev6_4koan7machine5model5types9signatureNtB5_19ExpressionSignature11untyped_key
FN:279,_RNvMs6_NtNtNtNtCseriWsCb5ev6_4koan7machine5model5types9signatureNtB5_19ExpressionSignature13most_specific
FN:256,_RNvMs6_NtNtNtNtCseriWsCb5ev6_4koan7machine5model5types9signatureNtB5_19ExpressionSignature14specificity_vs
FN:196,_RNvMs6_NtNtNtNtCseriWsCb5ev6_4koan7machine5model5types9signatureNtB5_19ExpressionSignature7matches
FN:244,_RNvMs6_NtNtNtNtCseriWsCb5ev6_4koan7machine5model5types9signatureNtB5_19ExpressionSignature9normalize
FN:323,_RNvMs7_NtNtNtNtCseriWsCb5ev6_4koan7machine5model5types9signatureNtB5_8Argument7matches
FN:128,_RNvNtNtNtNtCseriWsCb5ev6_4koan7machine5model5types9signature12type_expr_eq
FN:34,_RNvNtNtNtNtCseriWsCb5ev6_4koan7machine5model5types9signature16is_keyword_token
FN:83,_RNvXNtNtNtNtCseriWsCb5ev6_4koan7machine5model5types9signatureNtB2_10ReturnTypeNtNtCs27Vx93FoQ6z_4core5clone5Clone5clone
FN:101,_RNvXs0_NtNtNtNtCseriWsCb5ev6_4koan7machine5model5types9signatureNtB5_10ReturnTypeNtNtCs27Vx93FoQ6z_4core3cmp9PartialEq2eq
FN:113,_RNvXs2_NtNtNtNtCseriWsCb5ev6_4koan7machine5model5types9signatureNtB5_14DeferredReturnNtNtCs27Vx93FoQ6z_4core3cmp9PartialEq2eq
FN:151,_RNvXs3_NtNtNtNtCseriWsCb5ev6_4koan7machine5model5types9signatureNtB5_10ReturnTypeNtNtCs27Vx93FoQ6z_4core3fmt5Debug3fmt
FN:160,_RNvXs4_NtNtNtNtCseriWsCb5ev6_4koan7machine5model5types9signatureNtB5_14DeferredReturnNtNtCs27Vx93FoQ6z_4core3fmt5Debug3fmt
FN:92,_RNvXs_NtNtNtNtCseriWsCb5ev6_4koan7machine5model5types9signatureNtB4_14DeferredReturnNtNtCs27Vx93FoQ6z_4core5clone5Clone5clone
FN:212,_RNvMs6_NtNtNtNtCseriWsCb5ev6_4koan7machine5model5types9signatureNtB5_19ExpressionSignature24matches_without_keywords
FN:284,_RNCNCNvMs6_NtNtNtNtCseriWsCb5ev6_4koan7machine5model5types9signatureNtB9_19ExpressionSignature13most_specific00Bh_
FN:301,_RNCNvMs6_NtNtNtNtCseriWsCb5ev6_4koan7machine5model5types9signatureNtB7_19ExpressionSignature11exact_equal0Bf_
FN:233,_RNCNvMs6_NtNtNtNtCseriWsCb5ev6_4koan7machine5model5types9signatureNtB7_19ExpressionSignature11untyped_key0Bf_
FN:283,_RNCNvMs6_NtNtNtNtCseriWsCb5ev6_4koan7machine5model5types9signatureNtB7_19ExpressionSignature13most_specific0Bf_
FN:200,_RNCNvMs6_NtNtNtNtCseriWsCb5ev6_4koan7machine5model5types9signatureNtB7_19ExpressionSignature7matches0Bf_
FN:247,_RNCNvMs6_NtNtNtNtCseriWsCb5ev6_4koan7machine5model5types9signatureNtB7_19ExpressionSignature9normalize0Bf_
FN:136,_RNCNvNtNtNtNtCseriWsCb5ev6_4koan7machine5model5types9signature12type_expr_eq0Bb_
FN:143,_RNCNvNtNtNtNtCseriWsCb5ev6_4koan7machine5model5types9signature12type_expr_eqs_0Bb_
FN:35,_RNCNvNtNtNtNtCseriWsCb5ev6_4koan7machine5model5types9signature16is_keyword_token0Bb_
FN:40,_RNCNvNtNtNtNtCseriWsCb5ev6_4koan7machine5model5types9signature16is_keyword_tokens0_0Bb_
FN:39,_RNCNvNtNtNtNtCseriWsCb5ev6_4koan7machine5model5types9signature16is_keyword_tokens_0Bb_
FNDA:0,_RNvMs5_NtNtNtNtCscUx3zdyuqfq_4koan7machine5model5types9signatureNtB5_10ReturnType11is_resolved
FNDA:0,_RNvMs5_NtNtNtNtCscUx3zdyuqfq_4koan7machine5model5types9signatureNtB5_10ReturnType13matches_value
FNDA:0,_RNvMs5_NtNtNtNtCscUx3zdyuqfq_4koan7machine5model5types9signatureNtB5_10ReturnType4name
FNDA:961,_RNvMs6_NtNtNtNtCscUx3zdyuqfq_4koan7machine5model5types9signatureNtB5_19ExpressionSignature11exact_equal
FNDA:1534,_RNvMs6_NtNtNtNtCscUx3zdyuqfq_4koan7machine5model5types9signatureNtB5_19ExpressionSignature11untyped_key
FNDA:202,_RNvMs6_NtNtNtNtCscUx3zdyuqfq_4koan7machine5model5types9signatureNtB5_19ExpressionSignature13most_specific
FNDA:11,_RNvMs6_NtNtNtNtCscUx3zdyuqfq_4koan7machine5model5types9signatureNtB5_19ExpressionSignature14specificity_vs
FNDA:0,_RNvMs6_NtNtNtNtCscUx3zdyuqfq_4koan7machine5model5types9signatureNtB5_19ExpressionSignature24matches_without_keywords
FNDA:0,_RNvMs6_NtNtNtNtCscUx3zdyuqfq_4koan7machine5model5types9signatureNtB5_19ExpressionSignature7matches
FNDA:1534,_RNvMs6_NtNtNtNtCscUx3zdyuqfq_4koan7machine5model5types9signatureNtB5_19ExpressionSignature9normalize
FNDA:1050,_RNvMs7_NtNtNtNtCscUx3zdyuqfq_4koan7machine5model5types9signatureNtB5_8Argument7matches
FNDA:0,_RNvNtNtNtNtCscUx3zdyuqfq_4koan7machine5model5types9signature12type_expr_eq
FNDA:606,_RNvNtNtNtNtCscUx3zdyuqfq_4koan7machine5model5types9signature16is_keyword_token
FNDA:0,_RNvXNtNtNtNtCscUx3zdyuqfq_4koan7machine5model5types9signatureNtB2_10ReturnTypeNtNtCs27Vx93FoQ6z_4core5clone5Clone5clone
FNDA:961,_RNvXs0_NtNtNtNtCscUx3zdyuqfq_4koan7machine5model5types9signatureNtB5_10ReturnTypeNtNtCs27Vx93FoQ6z_4core3cmp9PartialEq2eq
FNDA:0,_RNvXs2_NtNtNtNtCscUx3zdyuqfq_4koan7machine5model5types9signatureNtB5_14DeferredReturnNtNtCs27Vx93FoQ6z_4core3cmp9PartialEq2eq
FNDA:0,_RNvXs3_NtNtNtNtCscUx3zdyuqfq_4koan7machine5model5types9signatureNtB5_10ReturnTypeNtNtCs27Vx93FoQ6z_4core3fmt5Debug3fmt
FNDA:0,_RNvXs4_NtNtNtNtCscUx3zdyuqfq_4koan7machine5model5types9signatureNtB5_14DeferredReturnNtNtCs27Vx93FoQ6z_4core3fmt5Debug3fmt
FNDA:0,_RNvXs_NtNtNtNtCscUx3zdyuqfq_4koan7machine5model5types9signatureNtB4_14DeferredReturnNtNtCs27Vx93FoQ6z_4core5clone5Clone5clone
FNDA:209,_RNCNCNvMs6_NtNtNtNtCscUx3zdyuqfq_4koan7machine5model5types9signatureNtB9_19ExpressionSignature13most_specific00Bh_
FNDA:2162,_RNCNvMs6_NtNtNtNtCscUx3zdyuqfq_4koan7machine5model5types9signatureNtB7_19ExpressionSignature11exact_equal0Bf_
FNDA:5392,_RNCNvMs6_NtNtNtNtCscUx3zdyuqfq_4koan7machine5model5types9signatureNtB7_19ExpressionSignature11untyped_key0Bf_
FNDA:198,_RNCNvMs6_NtNtNtNtCscUx3zdyuqfq_4koan7machine5model5types9signatureNtB7_19ExpressionSignature13most_specific0Bf_
FNDA:0,_RNCNvMs6_NtNtNtNtCscUx3zdyuqfq_4koan7machine5model5types9signatureNtB7_19ExpressionSignature7matches0Bf_
FNDA:9654,_RNCNvMs6_NtNtNtNtCscUx3zdyuqfq_4koan7machine5model5types9signatureNtB7_19ExpressionSignature9normalize0Bf_
FNDA:0,_RNCNvNtNtNtNtCscUx3zdyuqfq_4koan7machine5model5types9signature12type_expr_eq0Bb_
FNDA:0,_RNCNvNtNtNtNtCscUx3zdyuqfq_4koan7machine5model5types9signature12type_expr_eqs_0Bb_
FNDA:629,_RNCNvNtNtNtNtCscUx3zdyuqfq_4koan7machine5model5types9signature16is_keyword_token0Bb_
FNDA:1179,_RNCNvNtNtNtNtCscUx3zdyuqfq_4koan7machine5model5types9signature16is_keyword_tokens0_0Bb_
FNDA:1923,_RNCNvNtNtNtNtCscUx3zdyuqfq_4koan7machine5model5types9signature16is_keyword_tokens_0Bb_
FNDA:2,_RNvMs5_NtNtNtNtCseriWsCb5ev6_4koan7machine5model5types9signatureNtB5_10ReturnType11is_resolved
FNDA:3,_RNvMs5_NtNtNtNtCseriWsCb5ev6_4koan7machine5model5types9signatureNtB5_10ReturnType13matches_value
FNDA:20,_RNvMs5_NtNtNtNtCseriWsCb5ev6_4koan7machine5model5types9signatureNtB5_10ReturnType4name
FNDA:11088,_RNvMs6_NtNtNtNtCseriWsCb5ev6_4koan7machine5model5types9signatureNtB5_19ExpressionSignature11exact_equal
FNDA:17762,_RNvMs6_NtNtNtNtCseriWsCb5ev6_4koan7machine5model5types9signatureNtB5_19ExpressionSignature11untyped_key
FNDA:1956,_RNvMs6_NtNtNtNtCseriWsCb5ev6_4koan7machine5model5types9signatureNtB5_19ExpressionSignature13most_specific
FNDA:64,_RNvMs6_NtNtNtNtCseriWsCb5ev6_4koan7machine5model5types9signatureNtB5_19ExpressionSignature14specificity_vs
FNDA:8,_RNvMs6_NtNtNtNtCseriWsCb5ev6_4koan7machine5model5types9signatureNtB5_19ExpressionSignature7matches
FNDA:17768,_RNvMs6_NtNtNtNtCseriWsCb5ev6_4koan7machine5model5types9signatureNtB5_19ExpressionSignature9normalize
FNDA:8408,_RNvMs7_NtNtNtNtCseriWsCb5ev6_4koan7machine5model5types9signatureNtB5_8Argument7matches
FNDA:23,_RNvNtNtNtNtCseriWsCb5ev6_4koan7machine5model5types9signature12type_expr_eq
FNDA:5727,_RNvNtNtNtNtCseriWsCb5ev6_4koan7machine5model5types9signature16is_keyword_token
FNDA:3,_RNvXNtNtNtNtCseriWsCb5ev6_4koan7machine5model5types9signatureNtB2_10ReturnTypeNtNtCs27Vx93FoQ6z_4core5clone5Clone5clone
FNDA:11097,_RNvXs0_NtNtNtNtCseriWsCb5ev6_4koan7machine5model5types9signatureNtB5_10ReturnTypeNtNtCs27Vx93FoQ6z_4core3cmp9PartialEq2eq
FNDA:9,_RNvXs2_NtNtNtNtCseriWsCb5ev6_4koan7machine5model5types9signatureNtB5_14DeferredReturnNtNtCs27Vx93FoQ6z_4core3cmp9PartialEq2eq
FNDA:2,_RNvXs3_NtNtNtNtCseriWsCb5ev6_4koan7machine5model5types9signatureNtB5_10ReturnTypeNtNtCs27Vx93FoQ6z_4core3fmt5Debug3fmt
FNDA:3,_RNvXs4_NtNtNtNtCseriWsCb5ev6_4koan7machine5model5types9signatureNtB5_14DeferredReturnNtNtCs27Vx93FoQ6z_4core3fmt5Debug3fmt
FNDA:2,_RNvXs_NtNtNtNtCseriWsCb5ev6_4koan7machine5model5types9signatureNtB4_14DeferredReturnNtNtCs27Vx93FoQ6z_4core5clone5Clone5clone
FNDA:0,_RNvMs6_NtNtNtNtCseriWsCb5ev6_4koan7machine5model5types9signatureNtB5_19ExpressionSignature24matches_without_keywords
FNDA:1930,_RNCNCNvMs6_NtNtNtNtCseriWsCb5ev6_4koan7machine5model5types9signatureNtB9_19ExpressionSignature13most_specific00Bh_
FNDA:24935,_RNCNvMs6_NtNtNtNtCseriWsCb5ev6_4koan7machine5model5types9signatureNtB7_19ExpressionSignature11exact_equal0Bf_
FNDA:62211,_RNCNvMs6_NtNtNtNtCseriWsCb5ev6_4koan7machine5model5types9signatureNtB7_19ExpressionSignature11untyped_key0Bf_
FNDA:1874,_RNCNvMs6_NtNtNtNtCseriWsCb5ev6_4koan7machine5model5types9signatureNtB7_19ExpressionSignature13most_specific0Bf_
FNDA:14,_RNCNvMs6_NtNtNtNtCseriWsCb5ev6_4koan7machine5model5types9signatureNtB7_19ExpressionSignature7matches0Bf_
FNDA:111493,_RNCNvMs6_NtNtNtNtCseriWsCb5ev6_4koan7machine5model5types9signatureNtB7_19ExpressionSignature9normalize0Bf_
FNDA:2,_RNCNvNtNtNtNtCseriWsCb5ev6_4koan7machine5model5types9signature12type_expr_eq0Bb_
FNDA:3,_RNCNvNtNtNtNtCseriWsCb5ev6_4koan7machine5model5types9signature12type_expr_eqs_0Bb_
FNDA:6031,_RNCNvNtNtNtNtCseriWsCb5ev6_4koan7machine5model5types9signature16is_keyword_token0Bb_
FNDA:11667,_RNCNvNtNtNtNtCseriWsCb5ev6_4koan7machine5model5types9signature16is_keyword_tokens0_0Bb_
FNDA:18857,_RNCNvNtNtNtNtCseriWsCb5ev6_4koan7machine5model5types9signature16is_keyword_tokens_0Bb_
FNF:30
FNH:29
DA:34,6333
DA:35,6660
DA:36,6333
DA:37,1346
DA:38,4987
DA:39,20780
DA:40,12846
DA:41,4987
DA:42,6333
DA:83,3
DA:84,3
DA:85,1
DA:86,2
DA:88,3
DA:92,2
DA:93,2
DA:94,1
DA:95,1
DA:97,2
DA:101,12058
DA:102,12058
DA:103,12053
DA:104,4
DA:105,1
DA:107,12058
DA:113,9
DA:114,9
DA:115,5
DA:116,5
DA:118,3
DA:121,3
DA:123,1
DA:125,9
DA:128,23
DA:129,23
DA:130,6
DA:131,17
DA:133,17
DA:134,8
DA:135,3
DA:136,3
DA:139,4
DA:140,4
DA:142,4
DA:143,3
DA:144,2
DA:146,2
DA:148,23
DA:151,2
DA:152,2
DA:153,1
DA:154,1
DA:156,2
DA:160,3
DA:161,3
DA:162,2
DA:163,1
DA:164,1
DA:167,3
DA:172,20
DA:173,2
DA:174,18
DA:175,1
DA:176,1
DA:178,20
DA:183,3
DA:184,3
DA:185,2
DA:186,1
DA:188,3
DA:190,2
DA:191,2
DA:192,2
DA:196,8
DA:197,8
DA:198,1
DA:199,7
DA:200,14
DA:201,6
DA:202,1
DA:203,7
DA:204,14
DA:205,8
DA:212,0
DA:213,0
DA:214,0
DA:215,0
DA:217,0
DA:218,0
DA:219,0
DA:220,0
DA:221,0
DA:223,0
DA:225,0
DA:226,0
DA:230,19296
DA:231,19296
DA:232,19296
DA:233,67603
DA:234,30818
DA:235,36785
DA:236,67603
DA:237,19296
DA:238,19296
DA:244,19302
DA:245,67586
DA:246,67586
DA:247,121147
DA:248,1
DA:249,30823
DA:250,36762
DA:252,19302
DA:256,75
DA:257,75
DA:258,75
DA:259,206
DA:260,206
DA:261,133
DA:262,39
DA:263,94
DA:264,28
DA:265,66
DA:266,73
DA:268,75
DA:269,35
DA:270,24
DA:271,12
DA:272,4
DA:274,75
DA:279,2158
DA:280,2158
DA:281,2158
DA:282,2158
DA:283,2158
DA:284,2139
DA:285,2139
DA:286,2139
DA:287,2072
DA:288,2158
DA:289,2158
DA:294,12049
DA:295,12049
DA:296,0
DA:297,12049
DA:298,12049
DA:299,0
DA:300,12049
DA:301,27097
DA:302,13048
DA:303,14049
DA:304,0
DA:305,27097
DA:306,12049
DA:323,9458
DA:324,9458
DA:325,9458
BRF:0
BRH:0
LF:167
LH:152
end_of_record
SF:/var/home/jack/Code/koan/src/machine/model/types/typed_field_list.rs
FN:149,_RNvNtNtNtNtCscUx3zdyuqfq_4koan7machine5model5types16typed_field_list16try_synth_legacy
FN:115,_RNvNtNtNtNtCscUx3zdyuqfq_4koan7machine5model5types16typed_field_list26rewrite_threaded_self_refs
FN:31,_RNvNtNtNtNtCscUx3zdyuqfq_4koan7machine5model5types16typed_field_list37parse_typed_field_list_via_elaborator
FN:123,_RNCNvNtNtNtNtCscUx3zdyuqfq_4koan7machine5model5types16typed_field_list26rewrite_threaded_self_refs0Bb_
FN:40,_RNCNvNtNtNtNtCscUx3zdyuqfq_4koan7machine5model5types16typed_field_list37parse_typed_field_list_via_elaborator0Bb_
FN:123,_RNCNvNtNtNtNtCseriWsCb5ev6_4koan7machine5model5types16typed_field_list26rewrite_threaded_self_refs0Bb_
FN:40,_RNCNvNtNtNtNtCseriWsCb5ev6_4koan7machine5model5types16typed_field_list37parse_typed_field_list_via_elaborator0Bb_
FN:149,_RNvNtNtNtNtCseriWsCb5ev6_4koan7machine5model5types16typed_field_list16try_synth_legacy
FN:115,_RNvNtNtNtNtCseriWsCb5ev6_4koan7machine5model5types16typed_field_list26rewrite_threaded_self_refs
FN:31,_RNvNtNtNtNtCseriWsCb5ev6_4koan7machine5model5types16typed_field_list37parse_typed_field_list_via_elaborator
FNDA:2,_RNvNtNtNtNtCscUx3zdyuqfq_4koan7machine5model5types16typed_field_list16try_synth_legacy
FNDA:2,_RNvNtNtNtNtCscUx3zdyuqfq_4koan7machine5model5types16typed_field_list26rewrite_threaded_self_refs
FNDA:7,_RNvNtNtNtNtCscUx3zdyuqfq_4koan7machine5model5types16typed_field_list37parse_typed_field_list_via_elaborator
FNDA:7,_RNCNvNtNtNtNtCscUx3zdyuqfq_4koan7machine5model5types16typed_field_list26rewrite_threaded_self_refs0Bb_
FNDA:11,_RNCNvNtNtNtNtCscUx3zdyuqfq_4koan7machine5model5types16typed_field_list37parse_typed_field_list_via_elaborator0Bb_
FNDA:3,_RNCNvNtNtNtNtCseriWsCb5ev6_4koan7machine5model5types16typed_field_list26rewrite_threaded_self_refs0Bb_
FNDA:139,_RNCNvNtNtNtNtCseriWsCb5ev6_4koan7machine5model5types16typed_field_list37parse_typed_field_list_via_elaborator0Bb_
FNDA:2,_RNvNtNtNtNtCseriWsCb5ev6_4koan7machine5model5types16typed_field_list16try_synth_legacy
FNDA:1,_RNvNtNtNtNtCseriWsCb5ev6_4koan7machine5model5types16typed_field_list26rewrite_threaded_self_refs
FNDA:88,_RNvNtNtNtNtCseriWsCb5ev6_4koan7machine5model5types16typed_field_list37parse_typed_field_list_via_elaborator
FNF:5
FNH:5
DA:31,95
DA:32,95
DA:33,95
DA:34,95
DA:35,95
DA:36,95
DA:37,95
DA:39,95
DA:40,150
DA:41,150
DA:42,150
DA:43,3
DA:44,143
DA:45,135
DA:46,5
DA:47,5
DA:50,5
DA:52,3
DA:60,4
DA:61,4
DA:62,1
DA:63,1
DA:64,0
DA:65,0
DA:66,0
DA:68,0
DA:69,0
DA:73,3
DA:74,3
DA:75,3
DA:76,3
DA:78,3
DA:79,3
DA:82,3
DA:83,0
DA:84,0
DA:85,0
DA:86,0
DA:87,0
DA:88,0
DA:89,0
DA:90,0
DA:91,0
DA:92,0
DA:94,150
DA:95,95
DA:96,7
DA:97,88
DA:98,88
DA:99,8
DA:101,80
DA:105,95
DA:115,3
DA:116,3
DA:117,3
DA:118,3
DA:119,3
DA:120,3
DA:121,3
DA:122,3
DA:123,10
DA:124,10
DA:125,4
DA:126,4
DA:128,1
DA:129,1
DA:130,1
DA:131,1
DA:133,0
DA:134,0
DA:135,0
DA:136,9
DA:138,10
DA:139,10
DA:140,3
DA:141,3
DA:142,3
DA:149,4
DA:150,4
DA:151,4
DA:152,1
DA:153,3
DA:155,1
DA:156,1
DA:157,1
DA:158,1
DA:159,0
DA:160,0
DA:162,0
DA:165,1
DA:166,1
DA:167,1
DA:168,1
DA:169,1
DA:170,1
DA:171,4
BRF:0
BRH:0
LF:98
LH:77
end_of_record
SF:/var/home/jack/Code/koan/src/machine/model/types/unify.rs
FN:100,_RNCNvNtNtNtNtCscUx3zdyuqfq_4koan7machine5model5types5unify4bind0Bb_
FN:30,_RNvNtNtNtNtCscUx3zdyuqfq_4koan7machine5model5types5unify10unify_slot
FN:99,_RNvNtNtNtNtCscUx3zdyuqfq_4koan7machine5model5types5unify4bind
FN:42,_RNvNtNtNtNtCscUx3zdyuqfq_4koan7machine5model5types5unify4walk
FN:30,_RNvNtNtNtNtCseriWsCb5ev6_4koan7machine5model5types5unify10unify_slot
FN:99,_RNvNtNtNtNtCseriWsCb5ev6_4koan7machine5model5types5unify4bind
FN:42,_RNvNtNtNtNtCseriWsCb5ev6_4koan7machine5model5types5unify4walk
FN:100,_RNCNvNtNtNtNtCseriWsCb5ev6_4koan7machine5model5types5unify4bind0Bb_
FNDA:0,_RNCNvNtNtNtNtCscUx3zdyuqfq_4koan7machine5model5types5unify4bind0Bb_
FNDA:0,_RNvNtNtNtNtCscUx3zdyuqfq_4koan7machine5model5types5unify10unify_slot
FNDA:0,_RNvNtNtNtNtCscUx3zdyuqfq_4koan7machine5model5types5unify4bind
FNDA:0,_RNvNtNtNtNtCscUx3zdyuqfq_4koan7machine5model5types5unify4walk
FNDA:9,_RNvNtNtNtNtCseriWsCb5ev6_4koan7machine5model5types5unify10unify_slot
FNDA:10,_RNvNtNtNtNtCseriWsCb5ev6_4koan7machine5model5types5unify4bind
FNDA:21,_RNvNtNtNtNtCseriWsCb5ev6_4koan7machine5model5types5unify4walk
FNDA:4,_RNCNvNtNtNtNtCseriWsCb5ev6_4koan7machine5model5types5unify4bind0Bb_
FNF:4
FNH:4
DA:30,9
DA:31,9
DA:32,9
DA:33,9
DA:34,9
DA:35,9
DA:36,9
DA:37,6
DA:38,3
DA:40,9
DA:42,21
DA:43,21
DA:44,21
DA:45,21
DA:46,21
DA:47,21
DA:48,21
DA:51,11
DA:52,11
DA:53,10
DA:55,1
DA:58,10
DA:59,4
DA:60,1
DA:61,1
DA:62,1
DA:63,1
DA:65,5
DA:66,3
DA:67,3
DA:68,3
DA:70,0
DA:71,0
DA:72,0
DA:73,0
DA:75,2
DA:76,2
DA:77,2
DA:78,1
DA:79,1
DA:80,1
DA:81,1
DA:82,1
DA:83,1
DA:84,2
DA:85,2
DA:87,1
DA:89,0
DA:90,0
DA:91,0
DA:92,0
DA:95,0
DA:97,21
DA:99,10
DA:100,10
DA:101,2
DA:102,1
DA:103,1
DA:104,1
DA:105,1
DA:106,1
DA:107,1
DA:108,1
DA:109,8
DA:110,8
DA:111,8
DA:112,10
BRF:0
BRH:0
LF:68
LH:59
end_of_record
SF:/var/home/jack/Code/koan/src/machine/model/values/kkey.rs
FN:23,_RNvMNtNtNtNtCscUx3zdyuqfq_4koan7machine5model6values4kkeyNtB2_4KKey16try_from_kobject
FN:60,_RNvXs0_NtNtNtNtCscUx3zdyuqfq_4koan7machine5model6values4kkeyNtB5_4KKeyNtNtNtB9_5types7ktraits12Serializable4hash
FN:96,_RNvXs0_NtNtNtNtCscUx3zdyuqfq_4koan7machine5model6values4kkeyNtB5_4KKeyNtNtNtB9_5types7ktraits12Serializable6decode
FN:77,_RNvXs0_NtNtNtNtCscUx3zdyuqfq_4koan7machine5model6values4kkeyNtB5_4KKeyNtNtNtB9_5types7ktraits12Serializable6encode
FN:112,_RNvXs0_NtNtNtNtCscUx3zdyuqfq_4koan7machine5model6values4kkeyNtB5_4KKeyNtNtNtB9_5types7ktraits12Serializable9clone_box
FN:37,_RNvXs_NtNtNtNtCscUx3zdyuqfq_4koan7machine5model6values4kkeyNtB4_4KKeyNtNtNtB8_5types7ktraits9Parseable5equal
FN:41,_RNvXs_NtNtNtNtCscUx3zdyuqfq_4koan7machine5model6values4kkeyNtB4_4KKeyNtNtNtB8_5types7ktraits9Parseable5ktype
FN:50,_RNvXs_NtNtNtNtCscUx3zdyuqfq_4koan7machine5model6values4kkeyNtB4_4KKeyNtNtNtB8_5types7ktraits9Parseable9summarize
FN:124,_RNvNtNtNtNtNtCseriWsCb5ev6_4koan7machine5model6values4kkey5tests7hash_of
FN:180,_RNvNtNtNtNtNtCseriWsCb5ev6_4koan7machine5model6values4kkey5testss_21ktype_reports_variant
FN:136,_RNvNtNtNtNtNtCseriWsCb5ev6_4koan7machine5model6values4kkey5testss_24equal_strings_hash_equal
FN:146,_RNvNtNtNtNtNtCseriWsCb5ev6_4koan7machine5model6values4kkey5testss_27bool_and_number_zero_differ
FN:173,_RNvNtNtNtNtNtCseriWsCb5ev6_4koan7machine5model6values4kkey5testss_29summarize_quotes_strings_only
FN:167,_RNvNtNtNtNtNtCseriWsCb5ev6_4koan7machine5model6values4kkey5testss_29try_from_kobject_rejects_null
FN:151,_RNvNtNtNtNtNtCseriWsCb5ev6_4koan7machine5model6values4kkey5testss_32try_from_kobject_accepts_scalars
FN:131,_RNvNtNtNtNtNtCseriWsCb5ev6_4koan7machine5model6values4kkey5testss_33distinct_strings_hash_differently
FN:187,_RNvNtNtNtNtNtCseriWsCb5ev6_4koan7machine5model6values4kkey5testss_36encode_decode_roundtrip_each_variant
FN:141,_RNvNtNtNtNtNtCseriWsCb5ev6_4koan7machine5model6values4kkey5testss_39number_and_string_with_same_text_differ
FN:202,_RNvNtNtNtNtNtCseriWsCb5ev6_4koan7machine5model6values4kkey5testss_41nan_number_keys_with_same_bits_hash_equal
FN:23,_RNvMNtNtNtNtCseriWsCb5ev6_4koan7machine5model6values4kkeyNtB2_4KKey16try_from_kobject
FN:60,_RNvXs0_NtNtNtNtCseriWsCb5ev6_4koan7machine5model6values4kkeyNtB5_4KKeyNtNtNtB9_5types7ktraits12Serializable4hash
FN:96,_RNvXs0_NtNtNtNtCseriWsCb5ev6_4koan7machine5model6values4kkeyNtB5_4KKeyNtNtNtB9_5types7ktraits12Serializable6decode
FN:77,_RNvXs0_NtNtNtNtCseriWsCb5ev6_4koan7machine5model6values4kkeyNtB5_4KKeyNtNtNtB9_5types7ktraits12Serializable6encode
FN:112,_RNvXs0_NtNtNtNtCseriWsCb5ev6_4koan7machine5model6values4kkeyNtB5_4KKeyNtNtNtB9_5types7ktraits12Serializable9clone_box
FN:37,_RNvXs_NtNtNtNtCseriWsCb5ev6_4koan7machine5model6values4kkeyNtB4_4KKeyNtNtNtB8_5types7ktraits9Parseable5equal
FN:41,_RNvXs_NtNtNtNtCseriWsCb5ev6_4koan7machine5model6values4kkeyNtB4_4KKeyNtNtNtB8_5types7ktraits9Parseable5ktype
FN:50,_RNvXs_NtNtNtNtCseriWsCb5ev6_4koan7machine5model6values4kkeyNtB4_4KKeyNtNtNtB8_5types7ktraits9Parseable9summarize
FNDA:1,_RNvMNtNtNtNtCscUx3zdyuqfq_4koan7machine5model6values4kkeyNtB2_4KKey16try_from_kobject
FNDA:1,_RNvXs0_NtNtNtNtCscUx3zdyuqfq_4koan7machine5model6values4kkeyNtB5_4KKeyNtNtNtB9_5types7ktraits12Serializable4hash
FNDA:0,_RNvXs0_NtNtNtNtCscUx3zdyuqfq_4koan7machine5model6values4kkeyNtB5_4KKeyNtNtNtB9_5types7ktraits12Serializable6decode
FNDA:0,_RNvXs0_NtNtNtNtCscUx3zdyuqfq_4koan7machine5model6values4kkeyNtB5_4KKeyNtNtNtB9_5types7ktraits12Serializable6encode
FNDA:0,_RNvXs0_NtNtNtNtCscUx3zdyuqfq_4koan7machine5model6values4kkeyNtB5_4KKeyNtNtNtB9_5types7ktraits12Serializable9clone_box
FNDA:0,_RNvXs_NtNtNtNtCscUx3zdyuqfq_4koan7machine5model6values4kkeyNtB4_4KKeyNtNtNtB8_5types7ktraits9Parseable5equal
FNDA:1,_RNvXs_NtNtNtNtCscUx3zdyuqfq_4koan7machine5model6values4kkeyNtB4_4KKeyNtNtNtB8_5types7ktraits9Parseable5ktype
FNDA:1,_RNvXs_NtNtNtNtCscUx3zdyuqfq_4koan7machine5model6values4kkeyNtB4_4KKeyNtNtNtB8_5types7ktraits9Parseable9summarize
FNDA:20,_RNvNtNtNtNtNtCseriWsCb5ev6_4koan7machine5model6values4kkey5tests7hash_of
FNDA:1,_RNvNtNtNtNtNtCseriWsCb5ev6_4koan7machine5model6values4kkey5testss_21ktype_reports_variant
FNDA:1,_RNvNtNtNtNtNtCseriWsCb5ev6_4koan7machine5model6values4kkey5testss_24equal_strings_hash_equal
FNDA:1,_RNvNtNtNtNtNtCseriWsCb5ev6_4koan7machine5model6values4kkey5testss_27bool_and_number_zero_differ
FNDA:1,_RNvNtNtNtNtNtCseriWsCb5ev6_4koan7machine5model6values4kkey5testss_29summarize_quotes_strings_only
FNDA:1,_RNvNtNtNtNtNtCseriWsCb5ev6_4koan7machine5model6values4kkey5testss_29try_from_kobject_rejects_null
FNDA:1,_RNvNtNtNtNtNtCseriWsCb5ev6_4koan7machine5model6values4kkey5testss_32try_from_kobject_accepts_scalars
FNDA:1,_RNvNtNtNtNtNtCseriWsCb5ev6_4koan7machine5model6values4kkey5testss_33distinct_strings_hash_differently
FNDA:1,_RNvNtNtNtNtNtCseriWsCb5ev6_4koan7machine5model6values4kkey5testss_36encode_decode_roundtrip_each_variant
FNDA:1,_RNvNtNtNtNtNtCseriWsCb5ev6_4koan7machine5model6values4kkey5testss_39number_and_string_with_same_text_differ
FNDA:1,_RNvNtNtNtNtNtCseriWsCb5ev6_4koan7machine5model6values4kkey5testss_41nan_number_keys_with_same_bits_hash_equal
FNDA:22,_RNvMNtNtNtNtCseriWsCb5ev6_4koan7machine5model6values4kkeyNtB2_4KKey16try_from_kobject
FNDA:57,_RNvXs0_NtNtNtNtCseriWsCb5ev6_4koan7machine5model6values4kkeyNtB5_4KKeyNtNtNtB9_5types7ktraits12Serializable4hash
FNDA:4,_RNvXs0_NtNtNtNtCseriWsCb5ev6_4koan7machine5model6values4kkeyNtB5_4KKeyNtNtNtB9_5types7ktraits12Serializable6decode
FNDA:4,_RNvXs0_NtNtNtNtCseriWsCb5ev6_4koan7machine5model6values4kkeyNtB5_4KKeyNtNtNtB9_5types7ktraits12Serializable6encode
FNDA:2,_RNvXs0_NtNtNtNtCseriWsCb5ev6_4koan7machine5model6values4kkeyNtB5_4KKeyNtNtNtB9_5types7ktraits12Serializable9clone_box
FNDA:12,_RNvXs_NtNtNtNtCseriWsCb5ev6_4koan7machine5model6values4kkeyNtB4_4KKeyNtNtNtB8_5types7ktraits9Parseable5equal
FNDA:28,_RNvXs_NtNtNtNtCseriWsCb5ev6_4koan7machine5model6values4kkeyNtB4_4KKeyNtNtNtB8_5types7ktraits9Parseable5ktype
FNDA:35,_RNvXs_NtNtNtNtCseriWsCb5ev6_4koan7machine5model6values4kkeyNtB4_4KKeyNtNtNtB8_5types7ktraits9Parseable9summarize
FNF:19
FNH:19
DA:23,23
DA:24,23
DA:25,15
DA:26,3
DA:27,3
DA:28,2
DA:29,2
DA:30,2
DA:31,2
DA:33,23
DA:37,12
DA:38,12
DA:39,12
DA:41,29
DA:42,29
DA:43,23
DA:44,3
DA:45,3
DA:47,29
DA:50,36
DA:51,36
DA:52,20
DA:53,7
DA:54,9
DA:56,36
DA:60,58
DA:61,58
DA:62,37
DA:63,37
DA:64,37
DA:65,37
DA:66,12
DA:67,12
DA:68,12
DA:69,12
DA:70,9
DA:71,9
DA:72,9
DA:73,9
DA:75,58
DA:77,4
DA:78,4
DA:79,4
DA:80,1
DA:81,1
DA:82,1
DA:83,1
DA:84,1
DA:85,1
DA:86,1
DA:87,1
DA:88,2
DA:89,2
DA:90,2
DA:91,2
DA:93,4
DA:94,4
DA:96,4
DA:97,4
DA:98,4
DA:100,4
DA:101,1
DA:103,1
DA:104,1
DA:105,1
DA:107,2
DA:108,0
DA:110,4
DA:112,2
DA:113,2
DA:114,2
DA:124,20
DA:125,20
DA:126,20
DA:127,20
DA:128,20
DA:131,1
DA:132,1
DA:133,1
DA:136,1
DA:137,1
DA:138,1
DA:141,1
DA:142,1
DA:143,1
DA:146,1
DA:147,1
DA:148,1
DA:151,1
DA:152,1
DA:153,1
DA:154,1
DA:156,1
DA:157,1
DA:158,1
DA:160,1
DA:161,1
DA:164,1
DA:167,1
DA:168,1
DA:169,1
DA:170,1
DA:173,1
DA:174,1
DA:175,1
DA:176,1
DA:177,1
DA:180,1
DA:181,1
DA:182,1
DA:183,1
DA:184,1
DA:187,1
DA:188,4
DA:189,1
DA:190,1
DA:191,1
DA:192,1
DA:193,1
DA:194,4
DA:195,4
DA:196,4
DA:197,4
DA:199,1
DA:202,1
DA:203,1
DA:204,1
DA:205,1
DA:206,1
DA:207,1
DA:208,1
BRF:0
BRH:0
LF:131
LH:130
end_of_record
SF:/var/home/jack/Code/koan/src/machine/model/values/kobject.rs
FN:29,_RNvMNtNtNtNtCscUx3zdyuqfq_4koan7machine5model6values7kobjectNtB2_13NonWrappedRef3get
FN:22,_RNvMNtNtNtNtCscUx3zdyuqfq_4koan7machine5model6values7kobjectNtB2_13NonWrappedRef4peel
FN:258,_RNvMs_NtNtNtNtCscUx3zdyuqfq_4koan7machine5model6values7kobjectNtB4_7KObject10deep_clone
FN:160,_RNvMs_NtNtNtNtCscUx3zdyuqfq_4koan7machine5model6values7kobjectNtB4_7KObject10stamp_type
FN:322,_RNvMs_NtNtNtNtCscUx3zdyuqfq_4koan7machine5model6values7kobjectNtB4_7KObject11as_function
FN:308,_RNvMs_NtNtNtNtCscUx3zdyuqfq_4koan7machine5model6values7kobjectNtB4_7KObject12as_signature
FN:292,_RNvMs_NtNtNtNtCscUx3zdyuqfq_4koan7machine5model6values7kobjectNtB4_7KObject14as_kexpression
FN:141,_RNvMs_NtNtNtNtCscUx3zdyuqfq_4koan7machine5model6values7kobjectNtB4_7KObject14dict_with_type
FN:129,_RNvMs_NtNtNtNtCscUx3zdyuqfq_4koan7machine5model6values7kobjectNtB4_7KObject14list_with_type
FN:191,_RNvMs_NtNtNtNtCscUx3zdyuqfq_4koan7machine5model6values7kobjectNtB4_7KObject28is_unstamped_empty_container
FN:134,_RNvMs_NtNtNtNtCscUx3zdyuqfq_4koan7machine5model6values7kobjectNtB4_7KObject4dict
FN:121,_RNvMs_NtNtNtNtCscUx3zdyuqfq_4koan7machine5model6values7kobjectNtB4_7KObject4list
FN:207,_RNvMs_NtNtNtNtCscUx3zdyuqfq_4koan7machine5model6values7kobjectNtB4_7KObject5ktype
FN:315,_RNvMs_NtNtNtNtCscUx3zdyuqfq_4koan7machine5model6values7kobjectNtB4_7KObject8as_ktype
FN:300,_RNvMs_NtNtNtNtCscUx3zdyuqfq_4koan7machine5model6values7kobjectNtB4_7KObject9as_module
FN:330,_RNvNtNtNtNtCscUx3zdyuqfq_4koan7machine5model6values7kobject20function_value_ktype
FN:361,_RNvXs0_NtNtNtNtCscUx3zdyuqfq_4koan7machine5model6values7kobjectNtB5_7KObjectNtNtNtB9_5types7ktraits9Parseable5equal
FN:364,_RNvXs0_NtNtNtNtCscUx3zdyuqfq_4koan7machine5model6values7kobjectNtB5_7KObjectNtNtNtB9_5types7ktraits9Parseable5ktype
FN:367,_RNvXs0_NtNtNtNtCscUx3zdyuqfq_4koan7machine5model6values7kobjectNtB5_7KObjectNtNtNtB9_5types7ktraits9Parseable9summarize
FN:135,_RNCNvMs_NtNtNtNtCscUx3zdyuqfq_4koan7machine5model6values7kobjectNtB6_7KObject4dict0Be_
FN:136,_RNCNvMs_NtNtNtNtCscUx3zdyuqfq_4koan7machine5model6values7kobjectNtB6_7KObject4dicts_0Be_
FN:122,_RNCNvMs_NtNtNtNtCscUx3zdyuqfq_4koan7machine5model6values7kobjectNtB6_7KObject4list0Be_
FN:336,_RNCNvNtNtNtNtCscUx3zdyuqfq_4koan7machine5model6values7kobject20function_value_ktype0Bb_
FN:373,_RNCNvXs0_NtNtNtNtCscUx3zdyuqfq_4koan7machine5model6values7kobjectNtB7_7KObjectNtNtNtBb_5types7ktraits9Parseable9summarize0Bf_
FN:390,_RNCNvXs0_NtNtNtNtCscUx3zdyuqfq_4koan7machine5model6values7kobjectNtB7_7KObjectNtNtNtBb_5types7ktraits9Parseable9summarizes0_0Bf_
FN:379,_RNCNvXs0_NtNtNtNtCscUx3zdyuqfq_4koan7machine5model6values7kobjectNtB7_7KObjectNtNtNtBb_5types7ktraits9Parseable9summarizes_0Bf_
FN:135,_RNCNvMs_NtNtNtNtCseriWsCb5ev6_4koan7machine5model6values7kobjectNtB6_7KObject4dict0Be_
FN:136,_RNCNvMs_NtNtNtNtCseriWsCb5ev6_4koan7machine5model6values7kobjectNtB6_7KObject4dicts_0Be_
FN:122,_RNCNvMs_NtNtNtNtCseriWsCb5ev6_4koan7machine5model6values7kobjectNtB6_7KObject4list0Be_
FN:336,_RNCNvNtNtNtNtCseriWsCb5ev6_4koan7machine5model6values7kobject20function_value_ktype0Bb_
FN:373,_RNCNvXs0_NtNtNtNtCseriWsCb5ev6_4koan7machine5model6values7kobjectNtB7_7KObjectNtNtNtBb_5types7ktraits9Parseable9summarize0Bf_
FN:390,_RNCNvXs0_NtNtNtNtCseriWsCb5ev6_4koan7machine5model6values7kobjectNtB7_7KObjectNtNtNtBb_5types7ktraits9Parseable9summarizes0_0Bf_
FN:379,_RNCNvXs0_NtNtNtNtCseriWsCb5ev6_4koan7machine5model6values7kobjectNtB7_7KObjectNtNtNtBb_5types7ktraits9Parseable9summarizes_0Bf_
FN:361,_RNvXs0_NtNtNtNtCseriWsCb5ev6_4koan7machine5model6values7kobjectNtB5_7KObjectNtNtNtB9_5types7ktraits9Parseable5equal
FN:364,_RNvXs0_NtNtNtNtCseriWsCb5ev6_4koan7machine5model6values7kobjectNtB5_7KObjectNtNtNtB9_5types7ktraits9Parseable5ktype
FN:29,_RNvMNtNtNtNtCseriWsCb5ev6_4koan7machine5model6values7kobjectNtB2_13NonWrappedRef3get
FN:22,_RNvMNtNtNtNtCseriWsCb5ev6_4koan7machine5model6values7kobjectNtB2_13NonWrappedRef4peel
FN:258,_RNvMs_NtNtNtNtCseriWsCb5ev6_4koan7machine5model6values7kobjectNtB4_7KObject10deep_clone
FN:160,_RNvMs_NtNtNtNtCseriWsCb5ev6_4koan7machine5model6values7kobjectNtB4_7KObject10stamp_type
FN:322,_RNvMs_NtNtNtNtCseriWsCb5ev6_4koan7machine5model6values7kobjectNtB4_7KObject11as_function
FN:308,_RNvMs_NtNtNtNtCseriWsCb5ev6_4koan7machine5model6values7kobjectNtB4_7KObject12as_signature
FN:292,_RNvMs_NtNtNtNtCseriWsCb5ev6_4koan7machine5model6values7kobjectNtB4_7KObject14as_kexpression
FN:141,_RNvMs_NtNtNtNtCseriWsCb5ev6_4koan7machine5model6values7kobjectNtB4_7KObject14dict_with_type
FN:129,_RNvMs_NtNtNtNtCseriWsCb5ev6_4koan7machine5model6values7kobjectNtB4_7KObject14list_with_type
FN:191,_RNvMs_NtNtNtNtCseriWsCb5ev6_4koan7machine5model6values7kobjectNtB4_7KObject28is_unstamped_empty_container
FN:134,_RNvMs_NtNtNtNtCseriWsCb5ev6_4koan7machine5model6values7kobjectNtB4_7KObject4dict
FN:121,_RNvMs_NtNtNtNtCseriWsCb5ev6_4koan7machine5model6values7kobjectNtB4_7KObject4list
FN:207,_RNvMs_NtNtNtNtCseriWsCb5ev6_4koan7machine5model6values7kobjectNtB4_7KObject5ktype
FN:315,_RNvMs_NtNtNtNtCseriWsCb5ev6_4koan7machine5model6values7kobjectNtB4_7KObject8as_ktype
FN:300,_RNvMs_NtNtNtNtCseriWsCb5ev6_4koan7machine5model6values7kobjectNtB4_7KObject9as_module
FN:330,_RNvNtNtNtNtCseriWsCb5ev6_4koan7machine5model6values7kobject20function_value_ktype
FN:367,_RNvXs0_NtNtNtNtCseriWsCb5ev6_4koan7machine5model6values7kobjectNtB5_7KObjectNtNtNtB9_5types7ktraits9Parseable9summarize
FNDA:0,_RNvMNtNtNtNtCscUx3zdyuqfq_4koan7machine5model6values7kobjectNtB2_13NonWrappedRef3get
FNDA:0,_RNvMNtNtNtNtCscUx3zdyuqfq_4koan7machine5model6values7kobjectNtB2_13NonWrappedRef4peel
FNDA:156,_RNvMs_NtNtNtNtCscUx3zdyuqfq_4koan7machine5model6values7kobjectNtB4_7KObject10deep_clone
FNDA:7,_RNvMs_NtNtNtNtCscUx3zdyuqfq_4koan7machine5model6values7kobjectNtB4_7KObject10stamp_type
FNDA:51,_RNvMs_NtNtNtNtCscUx3zdyuqfq_4koan7machine5model6values7kobjectNtB4_7KObject11as_function
FNDA:4,_RNvMs_NtNtNtNtCscUx3zdyuqfq_4koan7machine5model6values7kobjectNtB4_7KObject12as_signature
FNDA:5,_RNvMs_NtNtNtNtCscUx3zdyuqfq_4koan7machine5model6values7kobjectNtB4_7KObject14as_kexpression
FNDA:0,_RNvMs_NtNtNtNtCscUx3zdyuqfq_4koan7machine5model6values7kobjectNtB4_7KObject14dict_with_type
FNDA:0,_RNvMs_NtNtNtNtCscUx3zdyuqfq_4koan7machine5model6values7kobjectNtB4_7KObject14list_with_type
FNDA:58,_RNvMs_NtNtNtNtCscUx3zdyuqfq_4koan7machine5model6values7kobjectNtB4_7KObject28is_unstamped_empty_container
FNDA:1,_RNvMs_NtNtNtNtCscUx3zdyuqfq_4koan7machine5model6values7kobjectNtB4_7KObject4dict
FNDA:0,_RNvMs_NtNtNtNtCscUx3zdyuqfq_4koan7machine5model6values7kobjectNtB4_7KObject4list
FNDA:11,_RNvMs_NtNtNtNtCscUx3zdyuqfq_4koan7machine5model6values7kobjectNtB4_7KObject5ktype
FNDA:12,_RNvMs_NtNtNtNtCscUx3zdyuqfq_4koan7machine5model6values7kobjectNtB4_7KObject8as_ktype
FNDA:11,_RNvMs_NtNtNtNtCscUx3zdyuqfq_4koan7machine5model6values7kobjectNtB4_7KObject9as_module
FNDA:0,_RNvNtNtNtNtCscUx3zdyuqfq_4koan7machine5model6values7kobject20function_value_ktype
FNDA:0,_RNvXs0_NtNtNtNtCscUx3zdyuqfq_4koan7machine5model6values7kobjectNtB5_7KObjectNtNtNtB9_5types7ktraits9Parseable5equal
FNDA:0,_RNvXs0_NtNtNtNtCscUx3zdyuqfq_4koan7machine5model6values7kobjectNtB5_7KObjectNtNtNtB9_5types7ktraits9Parseable5ktype
FNDA:7,_RNvXs0_NtNtNtNtCscUx3zdyuqfq_4koan7machine5model6values7kobjectNtB5_7KObjectNtNtNtB9_5types7ktraits9Parseable9summarize
FNDA:1,_RNCNvMs_NtNtNtNtCscUx3zdyuqfq_4koan7machine5model6values7kobjectNtB6_7KObject4dict0Be_
FNDA:1,_RNCNvMs_NtNtNtNtCscUx3zdyuqfq_4koan7machine5model6values7kobjectNtB6_7KObject4dicts_0Be_
FNDA:0,_RNCNvMs_NtNtNtNtCscUx3zdyuqfq_4koan7machine5model6values7kobjectNtB6_7KObject4list0Be_
FNDA:0,_RNCNvNtNtNtNtCscUx3zdyuqfq_4koan7machine5model6values7kobject20function_value_ktype0Bb_
FNDA:0,_RNCNvXs0_NtNtNtNtCscUx3zdyuqfq_4koan7machine5model6values7kobjectNtB7_7KObjectNtNtNtBb_5types7ktraits9Parseable9summarize0Bf_
FNDA:0,_RNCNvXs0_NtNtNtNtCscUx3zdyuqfq_4koan7machine5model6values7kobjectNtB7_7KObjectNtNtNtBb_5types7ktraits9Parseable9summarizes0_0Bf_
FNDA:1,_RNCNvXs0_NtNtNtNtCscUx3zdyuqfq_4koan7machine5model6values7kobjectNtB7_7KObjectNtNtNtBb_5types7ktraits9Parseable9summarizes_0Bf_
FNDA:21,_RNCNvMs_NtNtNtNtCseriWsCb5ev6_4koan7machine5model6values7kobjectNtB6_7KObject4dict0Be_
FNDA:21,_RNCNvMs_NtNtNtNtCseriWsCb5ev6_4koan7machine5model6values7kobjectNtB6_7KObject4dicts_0Be_
FNDA:106,_RNCNvMs_NtNtNtNtCseriWsCb5ev6_4koan7machine5model6values7kobjectNtB6_7KObject4list0Be_
FNDA:16,_RNCNvNtNtNtNtCseriWsCb5ev6_4koan7machine5model6values7kobject20function_value_ktype0Bb_
FNDA:7,_RNCNvXs0_NtNtNtNtCseriWsCb5ev6_4koan7machine5model6values7kobjectNtB7_7KObjectNtNtNtBb_5types7ktraits9Parseable9summarize0Bf_
FNDA:5,_RNCNvXs0_NtNtNtNtCseriWsCb5ev6_4koan7machine5model6values7kobjectNtB7_7KObjectNtNtNtBb_5types7ktraits9Parseable9summarizes0_0Bf_
FNDA:0,_RNCNvXs0_NtNtNtNtCseriWsCb5ev6_4koan7machine5model6values7kobjectNtB7_7KObjectNtNtNtBb_5types7ktraits9Parseable9summarizes_0Bf_
FNDA:0,_RNvXs0_NtNtNtNtCseriWsCb5ev6_4koan7machine5model6values7kobjectNtB5_7KObjectNtNtNtB9_5types7ktraits9Parseable5equal
FNDA:0,_RNvXs0_NtNtNtNtCseriWsCb5ev6_4koan7machine5model6values7kobjectNtB5_7KObjectNtNtNtB9_5types7ktraits9Parseable5ktype
FNDA:11,_RNvMNtNtNtNtCseriWsCb5ev6_4koan7machine5model6values7kobjectNtB2_13NonWrappedRef3get
FNDA:14,_RNvMNtNtNtNtCseriWsCb5ev6_4koan7machine5model6values7kobjectNtB2_13NonWrappedRef4peel
FNDA:1838,_RNvMs_NtNtNtNtCseriWsCb5ev6_4koan7machine5model6values7kobjectNtB4_7KObject10deep_clone
FNDA:277,_RNvMs_NtNtNtNtCseriWsCb5ev6_4koan7machine5model6values7kobjectNtB4_7KObject10stamp_type
FNDA:580,_RNvMs_NtNtNtNtCseriWsCb5ev6_4koan7machine5model6values7kobjectNtB4_7KObject11as_function
FNDA:46,_RNvMs_NtNtNtNtCseriWsCb5ev6_4koan7machine5model6values7kobjectNtB4_7KObject12as_signature
FNDA:22,_RNvMs_NtNtNtNtCseriWsCb5ev6_4koan7machine5model6values7kobjectNtB4_7KObject14as_kexpression
FNDA:4,_RNvMs_NtNtNtNtCseriWsCb5ev6_4koan7machine5model6values7kobjectNtB4_7KObject14dict_with_type
FNDA:15,_RNvMs_NtNtNtNtCseriWsCb5ev6_4koan7machine5model6values7kobjectNtB4_7KObject14list_with_type
FNDA:243,_RNvMs_NtNtNtNtCseriWsCb5ev6_4koan7machine5model6values7kobjectNtB4_7KObject28is_unstamped_empty_container
FNDA:17,_RNvMs_NtNtNtNtCseriWsCb5ev6_4koan7machine5model6values7kobjectNtB4_7KObject4dict
FNDA:71,_RNvMs_NtNtNtNtCseriWsCb5ev6_4koan7machine5model6values7kobjectNtB4_7KObject4list
FNDA:584,_RNvMs_NtNtNtNtCseriWsCb5ev6_4koan7machine5model6values7kobjectNtB4_7KObject5ktype
FNDA:84,_RNvMs_NtNtNtNtCseriWsCb5ev6_4koan7machine5model6values7kobjectNtB4_7KObject8as_ktype
FNDA:54,_RNvMs_NtNtNtNtCseriWsCb5ev6_4koan7machine5model6values7kobjectNtB4_7KObject9as_module
